LX51 LINKER/LOCATER V4.66.66.0                                                          03/09/2017  11:29:19  PAGE 1


LX51 LINKER/LOCATER V4.66.66.0, INVOKED BY:
D:\MYPROKITS\MUCKITS\KEIL_TOOLS\C51\BIN\LX51.EXE .\Objects\InitDevice.obj, .\Objects\Main.obj, .\Objects\Global.obj, .\O
>> bjects\Esc.obj, .\Objects\Stablizer.obj, .\Objects\LipoCells.obj, .\Objects\Sterring.obj, .\Objects\PageRes.obj, .\Ob
>> jects\LcdBsae.obj, .\Objects\LcdDraw.obj, .\Objects\Page.obj, .\Objects\PageEsc.obj, .\Objects\PageEsc1th.obj, .\Obje
>> cts\PageEsc2th.obj, .\Objects\PageEsc3th.obj, .\Objects\PageLipoCells.obj, .\Objects\PageStabilizer.obj, .\Objects\Pa
>> geStabilizerBuild.obj, .\Objects\PageStabilizerMode.obj, .\Objects\PageStabilizerPitchGain.obj, .\Objects\PageStabili
>> zerRollGain.obj, .\Objects\PageStabilizerYawGain.obj, .\Objects\PageSteering.obj, .\Objects\InputBtn.obj, .\Objects\I
>> nputBtnBsp.obj TO .\Objects\Keil_Silicon PRINT (.\Listings\Keil_Silicon.map) IXREF DISABLEWARNING (16, 57)


CPU MODE:     8051 MODE
MEMORY MODEL: LARGE WITH FLOATING POINT ARITHMETIC


INPUT MODULES INCLUDED:
  .\Objects\InitDevice.obj (INITDEVICE)
         COMMENT TYPE 0: C51 V9.56.0.0
  .\Objects\Main.obj (MAIN)
         COMMENT TYPE 0: C51 V9.56.0.0
  .\Objects\Global.obj (GLOBAL)
         COMMENT TYPE 0: C51 V9.56.0.0
  .\Objects\Esc.obj (ESC)
         COMMENT TYPE 0: C51 V9.56.0.0
  .\Objects\Stablizer.obj (STABLIZER)
         COMMENT TYPE 0: C51 V9.56.0.0
  .\Objects\LipoCells.obj (LIPOCELLS)
         COMMENT TYPE 0: C51 V9.56.0.0
  .\Objects\Sterring.obj (STERRING)
         COMMENT TYPE 0: C51 V9.56.0.0
  .\Objects\PageRes.obj (PAGERES)
         COMMENT TYPE 0: C51 V9.56.0.0
  .\Objects\LcdBsae.obj (LCDBSAE)
         COMMENT TYPE 0: C51 V9.56.0.0
  .\Objects\LcdDraw.obj (LCDDRAW)
         COMMENT TYPE 0: C51 V9.56.0.0
  .\Objects\Page.obj (PAGE)
         COMMENT TYPE 0: C51 V9.56.0.0
  .\Objects\PageEsc.obj (PAGEESC)
         COMMENT TYPE 0: C51 V9.56.0.0
  .\Objects\PageEsc1th.obj (PAGEESC1TH)
         COMMENT TYPE 0: C51 V9.56.0.0
  .\Objects\PageEsc2th.obj (PAGEESC2TH)
         COMMENT TYPE 0: C51 V9.56.0.0
  .\Objects\PageEsc3th.obj (PAGEESC3TH)
         COMMENT TYPE 0: C51 V9.56.0.0
  .\Objects\PageLipoCells.obj (PAGELIPOCELLS)
         COMMENT TYPE 0: C51 V9.56.0.0
  .\Objects\PageStabilizer.obj (PAGESTABILIZER)
         COMMENT TYPE 0: C51 V9.56.0.0
  .\Objects\PageStabilizerBuild.obj (PAGESTABILIZERBUILD)
         COMMENT TYPE 0: C51 V9.56.0.0
  .\Objects\PageStabilizerMode.obj (PAGESTABILIZERMODE)
         COMMENT TYPE 0: C51 V9.56.0.0
  .\Objects\PageStabilizerPitchGain.obj (PAGESTABILIZERPITCHGAIN)
         COMMENT TYPE 0: C51 V9.56.0.0
  .\Objects\PageStabilizerRollGain.obj (PAGESTABILIZERROLLGAIN)
         COMMENT TYPE 0: C51 V9.56.0.0
  .\Objects\PageStabilizerYawGain.obj (PAGESTABILIZERYAWGAIN)
         COMMENT TYPE 0: C51 V9.56.0.0
  .\Objects\PageSteering.obj (PAGESTEERING)
         COMMENT TYPE 0: C51 V9.56.0.0
  .\Objects\InputBtn.obj (INPUTBTN)
         COMMENT TYPE 0: C51 V9.56.0.0
  .\Objects\InputBtnBsp.obj (INPUTBTNBSP)
         COMMENT TYPE 0: C51 V9.56.0.0
  D:\MYPROKITS\MUCKITS\KEIL_TOOLS\C51\LIB\C51FPL.LIB (?C?FPADD)
LX51 LINKER/LOCATER V4.66.66.0                                                        03/09/2017  11:29:19  PAGE 2


         COMMENT TYPE 1: A51 / ASM51 Assembler
  D:\MYPROKITS\MUCKITS\KEIL_TOOLS\C51\LIB\C51FPL.LIB (?C?FPMUL)
         COMMENT TYPE 1: A51 / ASM51 Assembler
  D:\MYPROKITS\MUCKITS\KEIL_TOOLS\C51\LIB\C51FPL.LIB (?C?FPDIV)
         COMMENT TYPE 1: A51 / ASM51 Assembler
  D:\MYPROKITS\MUCKITS\KEIL_TOOLS\C51\LIB\C51FPL.LIB (?C?FCAST)
         COMMENT TYPE 1: A51 / ASM51 Assembler
  D:\MYPROKITS\MUCKITS\KEIL_TOOLS\C51\LIB\C51FPL.LIB (PRINTF)
         COMMENT TYPE 1: A51 / ASM51 Assembler
  D:\MYPROKITS\MUCKITS\KEIL_TOOLS\C51\LIB\C51FPL.LIB (?C?FPGETOPN)
         COMMENT TYPE 1: A51 / ASM51 Assembler
  D:\MYPROKITS\MUCKITS\KEIL_TOOLS\C51\LIB\C51FPL.LIB (?C?FPROUND)
         COMMENT TYPE 1: A51 / ASM51 Assembler
  D:\MYPROKITS\MUCKITS\KEIL_TOOLS\C51\LIB\C51FPL.LIB (?C?FPCONVERT)
         COMMENT TYPE 1: A51 / ASM51 Assembler
  D:\MYPROKITS\MUCKITS\KEIL_TOOLS\C51\LIB\C51FPL.LIB (?C?FTNPWR)
         COMMENT TYPE 1: A51 / ASM51 Assembler
  D:\MYPROKITS\MUCKITS\KEIL_TOOLS\C51\LIB\C51L.LIB (?C_STARTUP)
         COMMENT TYPE 1: A51 / ASM51 Assembler
  D:\MYPROKITS\MUCKITS\KEIL_TOOLS\C51\LIB\C51L.LIB (?C?CLDPTR)
         COMMENT TYPE 1: A51 / ASM51 Assembler
  D:\MYPROKITS\MUCKITS\KEIL_TOOLS\C51\LIB\C51L.LIB (?C?CLDOPTR)
         COMMENT TYPE 1: A51 / ASM51 Assembler
  D:\MYPROKITS\MUCKITS\KEIL_TOOLS\C51\LIB\C51L.LIB (?C?CILDOPTR)
         COMMENT TYPE 1: A51 / ASM51 Assembler
  D:\MYPROKITS\MUCKITS\KEIL_TOOLS\C51\LIB\C51L.LIB (?C?CSTPTR)
         COMMENT TYPE 1: A51 / ASM51 Assembler
  D:\MYPROKITS\MUCKITS\KEIL_TOOLS\C51\LIB\C51L.LIB (?C?CSTOPTR)
         COMMENT TYPE 1: A51 / ASM51 Assembler
  D:\MYPROKITS\MUCKITS\KEIL_TOOLS\C51\LIB\C51L.LIB (?C?IMUL)
         COMMENT TYPE 1: A51 / ASM51 Assembler
  D:\MYPROKITS\MUCKITS\KEIL_TOOLS\C51\LIB\C51L.LIB (?C?UIDIV)
         COMMENT TYPE 1: A51 / ASM51 Assembler
  D:\MYPROKITS\MUCKITS\KEIL_TOOLS\C51\LIB\C51L.LIB (?C?SIDIV)
         COMMENT TYPE 1: A51 / ASM51 Assembler
  D:\MYPROKITS\MUCKITS\KEIL_TOOLS\C51\LIB\C51L.LIB (?C?IILDX)
         COMMENT TYPE 1: A51 / ASM51 Assembler
  D:\MYPROKITS\MUCKITS\KEIL_TOOLS\C51\LIB\C51L.LIB (?C?ILDIX)
         COMMENT TYPE 1: A51 / ASM51 Assembler
  D:\MYPROKITS\MUCKITS\KEIL_TOOLS\C51\LIB\C51L.LIB (?C?ILDPTR)
         COMMENT TYPE 1: A51 / ASM51 Assembler
  D:\MYPROKITS\MUCKITS\KEIL_TOOLS\C51\LIB\C51L.LIB (?C?ILDOPTR)
         COMMENT TYPE 1: A51 / ASM51 Assembler
  D:\MYPROKITS\MUCKITS\KEIL_TOOLS\C51\LIB\C51L.LIB (?C?IILDPTR)
         COMMENT TYPE 1: A51 / ASM51 Assembler
  D:\MYPROKITS\MUCKITS\KEIL_TOOLS\C51\LIB\C51L.LIB (?C?ISTPTR)
         COMMENT TYPE 1: A51 / ASM51 Assembler
  D:\MYPROKITS\MUCKITS\KEIL_TOOLS\C51\LIB\C51L.LIB (?C?LMUL)
         COMMENT TYPE 1: A51 / ASM51 Assembler
  D:\MYPROKITS\MUCKITS\KEIL_TOOLS\C51\LIB\C51L.LIB (?C?ULDIV)
         COMMENT TYPE 1: A51 / ASM51 Assembler
  D:\MYPROKITS\MUCKITS\KEIL_TOOLS\C51\LIB\C51L.LIB (?C?LNOT)
         COMMENT TYPE 1: A51 / ASM51 Assembler
  D:\MYPROKITS\MUCKITS\KEIL_TOOLS\C51\LIB\C51L.LIB (?C?LNEG)
         COMMENT TYPE 1: A51 / ASM51 Assembler
  D:\MYPROKITS\MUCKITS\KEIL_TOOLS\C51\LIB\C51L.LIB (?C?LSHL)
         COMMENT TYPE 1: A51 / ASM51 Assembler
  D:\MYPROKITS\MUCKITS\KEIL_TOOLS\C51\LIB\C51L.LIB (?C?LSTXDATA)
         COMMENT TYPE 1: A51 / ASM51 Assembler
  D:\MYPROKITS\MUCKITS\KEIL_TOOLS\C51\LIB\C51L.LIB (?C?LSTKXDATA)
         COMMENT TYPE 1: A51 / ASM51 Assembler
  D:\MYPROKITS\MUCKITS\KEIL_TOOLS\C51\LIB\C51L.LIB (?C?OFFX256)
         COMMENT TYPE 1: A51 / ASM51 Assembler
  D:\MYPROKITS\MUCKITS\KEIL_TOOLS\C51\LIB\C51L.LIB (?C?OFFXADD)
         COMMENT TYPE 1: A51 / ASM51 Assembler
LX51 LINKER/LOCATER V4.66.66.0                                                        03/09/2017  11:29:19  PAGE 3


  D:\MYPROKITS\MUCKITS\KEIL_TOOLS\C51\LIB\C51L.LIB (?C?PLDIXDATA)
         COMMENT TYPE 1: A51 / ASM51 Assembler
  D:\MYPROKITS\MUCKITS\KEIL_TOOLS\C51\LIB\C51L.LIB (?C?PSTXDATA)
         COMMENT TYPE 1: A51 / ASM51 Assembler
  D:\MYPROKITS\MUCKITS\KEIL_TOOLS\C51\LIB\C51L.LIB (?C?PLDPTR)
         COMMENT TYPE 1: A51 / ASM51 Assembler
  D:\MYPROKITS\MUCKITS\KEIL_TOOLS\C51\LIB\C51L.LIB (?C?PLDOPTR)
         COMMENT TYPE 1: A51 / ASM51 Assembler
  D:\MYPROKITS\MUCKITS\KEIL_TOOLS\C51\LIB\C51L.LIB (?C?CCASE)
         COMMENT TYPE 1: A51 / ASM51 Assembler
  D:\MYPROKITS\MUCKITS\KEIL_TOOLS\C51\LIB\C51L.LIB (?C?ICALL)
         COMMENT TYPE 1: A51 / ASM51 Assembler
  D:\MYPROKITS\MUCKITS\KEIL_TOOLS\C51\LIB\C51L.LIB (PUTCHAR)
         COMMENT TYPE 1: A51 / ASM51 Assembler
  D:\MYPROKITS\MUCKITS\KEIL_TOOLS\C51\LIB\C51L.LIB (ABS)
         COMMENT TYPE 1: A51 / ASM51 Assembler
  D:\MYPROKITS\MUCKITS\KEIL_TOOLS\C51\LIB\C51L.LIB (STRLEN)
         COMMENT TYPE 1: A51 / ASM51 Assembler
  D:\MYPROKITS\MUCKITS\KEIL_TOOLS\C51\LIB\C51L.LIB (?C_INIT)
         COMMENT TYPE 1: A51 / ASM51 Assembler
  D:\MYPROKITS\MUCKITS\KEIL_TOOLS\C51\LIB\C51L.LIB (?C?PLDIDATA)
         COMMENT TYPE 1: A51 / ASM51 Assembler
  D:\MYPROKITS\MUCKITS\KEIL_TOOLS\C51\LIB\C51L.LIB (?C?PLDXDATA)
         COMMENT TYPE 1: A51 / ASM51 Assembler
  D:\MYPROKITS\MUCKITS\KEIL_TOOLS\C51\LIB\C51L.LIB (?C?PLDPDATA)
         COMMENT TYPE 1: A51 / ASM51 Assembler
  D:\MYPROKITS\MUCKITS\KEIL_TOOLS\C51\LIB\C51L.LIB (?C?PLDCODE)
         COMMENT TYPE 1: A51 / ASM51 Assembler


ACTIVE MEMORY CLASSES OF MODULE:  .\Objects\Keil_Silicon (INITDEVICE)

BASE        START       END         USED      MEMORY CLASS
==========================================================
C:000000H   C:000000H   C:00FFFFH   007A31H   CODE
X:000000H   X:000000H   X:00FFFFH   000A19H   XDATA
C:000000H   C:000000H   C:00FFFFH   0014ABH   CONST
I:000000H   I:000000H   I:00007FH   000042H   DATA
I:000020H.0 I:000020H.0 I:00002FH.7 000001H.1 BIT
I:000000H   I:000000H   I:0000FFH   000001H   IDATA


MEMORY MAP OF MODULE:  .\Objects\Keil_Silicon (INITDEVICE)


START     STOP      LENGTH    ALIGN  RELOC    MEMORY CLASS   SEGMENT NAME
=========================================================================

* * * * * * * * * * *   D A T A   M E M O R Y   * * * * * * * * * * * * *
000000H   000007H   000008H   ---    AT..     DATA           "REG BANK 0"
000008H   00001BH   000014H   BYTE   UNIT     DATA           ?DT?PAGE
00001CH   00001FH   000004H   BYTE   UNIT     DATA           ?DT?INPUTBTN
000020H.0 000021H.0 000001H.1 BIT    UNIT     BIT            _BIT_GROUP_
000021H.1 000021H   000000H.7 ---    ---      **GAP**
000022H   00002AH   000009H   BYTE   UNIT     DATA           ?DT?ESC
00002BH   000033H   000009H   BYTE   UNIT     DATA           ?DT?STERRING
000034H   000039H   000006H   BYTE   UNIT     DATA           ?DT?STABLIZER
00003AH   00003EH   000005H   BYTE   UNIT     DATA           _DATA_GROUP_
00003FH   000041H   000003H   BYTE   UNIT     DATA           ?DT?PAGESTABILIZERBUILD
000042H   000043H   000002H   BYTE   UNIT     DATA           ?DT?GLOBAL
000044H   000044H   000001H   BYTE   UNIT     IDATA          ?STACK

* * * * * * * * * * *   C O D E   M E M O R Y   * * * * * * * * * * * * *
000000H   000002H   000003H   ---    OFFS..   CODE           ?CO??C_STARTUP?0
000003H   000005H   000003H   BYTE   OFFS..   CODE           ?ESC?00003
LX51 LINKER/LOCATER V4.66.66.0                                                        03/09/2017  11:29:19  PAGE 4


000006H   000009H   000004H   BYTE   UNIT     CODE           ?PR?PCACH_4_ENTER_DEFAULTMODE_FROM_RESET?INITDEVICE
00000AH   00000AH   000001H   BYTE   UNIT     CODE           ?PR?PCACH_0_ENTER_DEFAULTMODE_FROM_RESET?INITDEVICE
00000BH   00000DH   000003H   BYTE   OFFS..   CODE           ?ESC?0000B
00000EH   00001AH   00000DH   BYTE   UNIT     CODE           ?PR?ADC_0_ENTER_DEFAULTMODE_FROM_RESET?INITDEVICE
00001BH   00001DH   000003H   BYTE   OFFS..   CODE           ?GLOBAL?0001B
00001EH   00002AH   00000DH   BYTE   UNIT     CODE           ?PR?UARTE_1_ENTER_DEFAULTMODE_FROM_RESET?INITDEVICE
00002BH   00002DH   000003H   BYTE   OFFS..   CODE           ?ESC?0002B
00002EH   000050H   000023H   BYTE   UNIT     CODE           ?PR?_LCD_SETCOLUMN?LCDBSAE
000051H   000051H   000001H   BYTE   UNIT     CODE           ?PR?STERRINGPROCESSHANDLE?STERRING
000052H   000052H   000001H   ---    ---      **GAP**
000053H   000055H   000003H   BYTE   OFFS..   CODE           ?LIPOCELLS?00053
000056H   000072H   00001DH   BYTE   UNIT     CODE           ?PR?_DELAY?LCDBSAE
000073H   000075H   000003H   BYTE   OFFS..   CODE           ?STERRING?00073
000076H   000081H   00000CH   BYTE   UNIT     CODE           ?PR?_ABS?ABS
000082H   000082H   000001H   ---    ---      **GAP**
000083H   000085H   000003H   BYTE   OFFS..   CODE           ?STABLIZER?00083
000086H   000D57H   000CD2H   BYTE   UNIT     CODE           ?PR?_PAGEMENUPROC?PAGE
000D58H   001713H   0009BCH   BYTE   UNIT     CODE           ?PR?ESC1THDATPROCCESS?PAGEESC1TH
001714H   002083H   000970H   BYTE   UNIT     CODE           ?C?LIB_CODE
002084H   0025D6H   000553H   BYTE   UNIT     CODE           ?PR?ESC2THDATPREPROCCESS?PAGEESC2TH
0025D7H   002A59H   000483H   BYTE   UNIT     CODE           ?PR?PRINTF?PRINTF
002A5AH   002E11H   0003B8H   BYTE   UNIT     CODE           ?PR?ESC3THDATPROCCESS?PAGEESC3TH
002E12H   0031ACH   00039BH   BYTE   UNIT     CODE           ?PR?_PAGEBATVOLT?PAGELIPOCELLS
0031ADH   0034CFH   000323H   BYTE   UNIT     CODE           ?PR?_LCDDRAWBMPTOARRAY?LCDDRAW
0034D0H   0037BAH   0002EBH   BYTE   UNIT     CODE           ?PR?_LCDDRAWMINIINT?LCDDRAW
0037BBH   003A94H   0002DAH   BYTE   UNIT     CODE           ?PR?_LCDDRAWINT?LCDDRAW
003A95H   003D69H   0002D5H   BYTE   UNIT     CODE           ?PR?_LCDDRAWLINE?LCDDRAW
003D6AH   003FA1H   000238H   BYTE   UNIT     CODE           ?PR?RXSOCKETDECODE?STABLIZER
003FA2H   004194H   0001F3H   BYTE   UNIT     CODE           ?PR?ADC0EOC_ISR?LIPOCELLS
004195H   004376H   0001E2H   BYTE   UNIT     CODE           ?PR?_LCDDRAWCHSCHAR?LCDDRAW
004377H   00453FH   0001C9H   BYTE   UNIT     CODE           ?PR?UART1_WRITE_ENCODE?STABLIZER
004540H   004706H   0001C7H   BYTE   UNIT     CODE           ?PR?_PAGESTABLIZERBUILD?PAGESTABILIZERBUILD
004707H   0048A8H   0001A2H   BYTE   UNIT     CODE           ?PR?TIMER3_ISR?STERRING
0048A9H   004A47H   00019FH   BYTE   UNIT     CODE           ?PR?PARAMESCDATPROCCESS?PAGEESC
004A48H   004BD2H   00018BH   BYTE   UNIT     CODE           ?PR?MAIN?MAIN
004BD3H   004D49H   000177H   BYTE   UNIT     CODE           ?PR?_LCDDRAWGECHAR?LCDDRAW
004D4AH   004EB3H   00016AH   BYTE   UNIT     CODE           ?PR?LCDDRAWBUFFERREFRESH?LCDBSAE
004EB4H   00500CH   000159H   BYTE   UNIT     CODE           ?PR?_LCDDRAWPIXEL?LCDDRAW
00500DH   005163H   000157H   BYTE   UNIT     CODE           ?PR?BTNSCANHANDLE?INPUTBTN
005164H   0052AEH   00014BH   BYTE   UNIT     CODE           ?PR?PAGEMENUSTATDATINIT?PAGE
0052AFH   0053DEH   000130H   BYTE   UNIT     CODE           ?PR?_LCDDRAWMINIASC?LCDDRAW
0053DFH   0054FDH   00011FH   BYTE   UNIT     CODE           ?PR?ESCDETECT?ESC
0054FEH   005609H   00010CH   BYTE   UNIT     CODE           ?PR?_PAGEAUTOFLY?PAGESTABILIZER
00560AH   005715H   00010CH   BYTE   UNIT     CODE           ?PR?_PAGEAUTOFLYMODE?PAGESTABILIZERMODE
005716H   005821H   00010CH   BYTE   UNIT     CODE           ?PR?_PAGEAUTOFLYPITCHGAIN?PAGESTABILIZERPITCHGAIN
005822H   00592DH   00010CH   BYTE   UNIT     CODE           ?PR?_PAGEAUTOFLYROLLGAIN?PAGESTABILIZERROLLGAIN
00592EH   005A39H   00010CH   BYTE   UNIT     CODE           ?PR?_PAGEAUTOFLYYAWGAIN?PAGESTABILIZERYAWGAIN
005A3AH   005B3FH   000106H   BYTE   UNIT     CODE           ?PR?_PAGEESC1TH?PAGEESC1TH
005B40H   005C43H   000104H   BYTE   UNIT     CODE           ?PR?_PAGEESC2TH?PAGEESC2TH
005C44H   005D47H   000104H   BYTE   UNIT     CODE           ?PR?_PAGEESC3TH?PAGEESC3TH
005D48H   005E4AH   000103H   BYTE   UNIT     CODE           ?PR?TIMER0_ISR?ESC
005E4BH   005F4BH   000101H   BYTE   UNIT     CODE           ?PR?_PAGESTERRING?PAGESTEERING
005F4CH   006044H   0000F9H   BYTE   UNIT     CODE           ?PR?UART1_ISR?STABLIZER
006045H   006135H   0000F1H   BYTE   UNIT     CODE           ?PR?_PAGEESC1THRST?PAGEESC
006136H   006220H   0000EBH   BYTE   UNIT     CODE           ?PR?_PAGEESC2THRST?PAGEESC
006221H   006307H   0000E7H   BYTE   UNIT     CODE           ?PR?_PAGEESC3THABOUT?PAGEESC
006308H   0063E3H   0000DCH   BYTE   UNIT     CODE           ?PR?_LCDDRAWASCCHAR?LCDDRAW
0063E4H   0064AFH   0000CCH   BYTE   UNIT     CODE           ?PR?_DETECTCHARGEPARAMETER?STABLIZER
0064B0H   006578H   0000C9H   BYTE   UNIT     CODE           ?PR?_LCDDRAWTEXTSTRING?LCDDRAW
006579H   006634H   0000BCH   BYTE   UNIT     CODE           ?PR?_LCDDRAWMASKX?LCDDRAW
006635H   0066F0H   0000BCH   BYTE   UNIT     CODE           ?PR?_LCDDRAWMASKY?LCDDRAW
0066F1H   0067A4H   0000B4H   BYTE   UNIT     CODE           ?PR?RXSOCKETHANDLER?STABLIZER
0067A5H   00684BH   0000A7H   BYTE   UNIT     CODE           ?PR?STABLIZERDATINIT?STABLIZER
00684CH   0068F2H   0000A7H   BYTE   UNIT     CODE           ?PR?_LCDDRAWHZLINE?LCDDRAW
0068F3H   006994H   0000A2H   BYTE   UNIT     CODE           ?PR?LCDDATINIT?LCDDRAW
LX51 LINKER/LOCATER V4.66.66.0                                                        03/09/2017  11:29:19  PAGE 5


006995H   006A32H   00009EH   BYTE   UNIT     CODE           ?PR?_LCDDRAWCLR?LCDDRAW
006A33H   006ACFH   00009DH   BYTE   UNIT     CODE           ?PR?_PAGEESC3THRST?PAGEESC
006AD0H   006B69H   00009AH   BYTE   UNIT     CODE           ?PR?_LCDDRAWRECT?LCDDRAW
006B6AH   006BF7H   00008EH   BYTE   UNIT     CODE           ?PR?_ESCDATCHARGE?ESC
006BF8H   006C83H   00008CH   BYTE   UNIT     CODE           ?C_C51STARTUP
006C84H   006D0EH   00008BH   BYTE   UNIT     CODE           ?PR?_LCDWRITEASCCHAR?LCDBSAE
006D0FH   006D97H   000089H   BYTE   UNIT     CODE           ?PR?STABLIZERDETECT?STABLIZER
006D98H   006E1CH   000085H   BYTE   UNIT     CODE           ?PR?_DELAYMS?GLOBAL
006E1DH   006E9FH   000083H   BYTE   UNIT     CODE           ?PR?STABLIZERPROCESSHANDLE?STABLIZER
006EA0H   006F21H   000082H   BYTE   UNIT     CODE           ?PR?_PAGEESCPARAM?PAGEESC
006F22H   006FA1H   000080H   BYTE   UNIT     CODE           ?PR?_LCDDRAWSTART?LCDDRAW
006FA2H   00701FH   00007EH   BYTE   UNIT     CODE           ?PR?_LCDDRAWMINIBMP?LCDDRAW
007020H   00708DH   00006EH   BYTE   UNIT     CODE           ?PR?_PAGEINIT?PAGE
00708EH   0070F8H   00006BH   BYTE   UNIT     CODE           ?PR?ESCDATINIT?ESC
0070F9H   007160H   000068H   BYTE   UNIT     CODE           ?PR?_LCDWRITECLR?LCDBSAE
007161H   0071C7H   000067H   BYTE   UNIT     CODE           ?PR?TIMER2_ISR?ESC
0071C8H   00722AH   000063H   BYTE   UNIT     CODE           ?PR?LCD_INIT?LCDBSAE
00722BH   007283H   000059H   BYTE   UNIT     CODE           ?PR?LIPOCELLSDATINIT?LIPOCELLS
007284H   0072D8H   000055H   BYTE   UNIT     CODE           ?PR?_UART1_WRITE_BUFFER?STABLIZER
0072D9H   00732AH   000052H   BYTE   UNIT     CODE           ?PR?_LCDWRITEASCSTRING?LCDBSAE
00732BH   00737CH   000052H   BYTE   UNIT     CODE           ?PR?_LCDDRAWHLINE?LCDDRAW
00737DH   0073CEH   000052H   BYTE   UNIT     CODE           ?PR?_LCDDRAWVLINE?LCDDRAW
0073CFH   00741CH   00004EH   BYTE   UNIT     CODE           ?PR?_PAGEENTER?PAGE
00741DH   007467H   00004BH   BYTE   UNIT     CODE           ?PR?TIMER1_ISR?GLOBAL
007468H   0074AFH   000048H   BYTE   UNIT     CODE           ?PR?_SYSHANDLEPROCESS?MAIN
0074B0H   0074F6H   000047H   BYTE   UNIT     CODE           ?PR?SYSDATINIT?GLOBAL
0074F7H   00753BH   000045H   BYTE   UNIT     CODE           ?PR?_PAGEGOTO?PAGE
00753CH   007580H   000045H   BYTE   UNIT     CODE           ?PR?_BTNGETSTATE?INPUTBTNBSP
007581H   0075C4H   000044H   BYTE   UNIT     CODE           ?PR?_LCDDRAWPIXELXY?LCDDRAW
0075C5H   007606H   000042H   BYTE   UNIT     CODE           ?PR?INT0_ISR?ESC
007607H   007647H   000041H   BYTE   UNIT     CODE           ?PR?ENTER_DEFAULTMODE_FROM_RESET?INITDEVICE
007648H   007685H   00003EH   BYTE   UNIT     CODE           ?PR?_SPI_SWRITEBYTE?LCDBSAE
007686H   0076C0H   00003BH   BYTE   UNIT     CODE           ?PR?LIPOCELLSDETECT?LIPOCELLS
0076C1H   0076F8H   000038H   BYTE   UNIT     CODE           ?PR?BTNDATINIT?INPUTBTN
0076F9H   00772CH   000034H   BYTE   UNIT     CODE           ?PR?_LCD_SETPAGECOLUMN?LCDBSAE
00772DH   007759H   00002DH   BYTE   UNIT     CODE           ?PR?UART1_READ_ENCODE?STABLIZER
00775AH   007786H   00002DH   BYTE   UNIT     CODE           ?PR?_PAGERETURN?PAGE
007787H   0077B3H   00002DH   BYTE   UNIT     CODE           ?PR?_BTNTSTDOWN?INPUTBTN
0077B4H   0077E0H   00002DH   BYTE   UNIT     CODE           ?PR?_BTNTSTHOLD?INPUTBTN
0077E1H   00780BH   00002BH   BYTE   UNIT     CODE           ?PR?TIMER01_0_ENTER_DEFAULTMODE_FROM_RESET?INITDEVICE
00780CH   007836H   00002BH   BYTE   UNIT     CODE           ?PR?STERRINGDATINIT?STERRING
007837H   00785DH   000027H   BYTE   UNIT     CODE           ?PR?PUTCHAR?PUTCHAR
00785EH   00787FH   000022H   BYTE   UNIT     CODE           ?PR?TIMER16_2_ENTER_DEFAULTMODE_FROM_RESET?INITDEVICE
007880H   0078A1H   000022H   BYTE   UNIT     CODE           ?PR?TIMER16_3_ENTER_DEFAULTMODE_FROM_RESET?INITDEVICE
0078A2H   0078C1H   000020H   BYTE   UNIT     CODE           ?PR?_LCD_RST?LCDBSAE
0078C2H   0078E0H   00001FH   BYTE   UNIT     CODE           ?PR?_LCDWRITECLRLINE?LCDBSAE
0078E1H   0078FDH   00001DH   BYTE   UNIT     CODE           ?C_INITSEG
0078FEH   007919H   00001CH   BYTE   UNIT     CODE           ?PR?_BTNTSTSTAT?INPUTBTN
00791AH   007932H   000019H   BYTE   UNIT     CODE           ?PR?LIPOCELLSPROCESSHANDLE?LIPOCELLS
007933H   00794AH   000018H   BYTE   UNIT     CODE           ?PR?BTNFLUSH?INPUTBTN
00794BH   007962H   000018H   BYTE   UNIT     CODE           ?PR?_BTNCLEARDOWN?INPUTBTN
007963H   007977H   000015H   BYTE   UNIT     CODE           ?PR?_STRLEN?STRLEN
007978H   00798AH   000013H   BYTE   UNIT     CODE           ?PR?INTERRUPT_0_ENTER_DEFAULTMODE_FROM_RESET?INITDEVICE
00798BH   00799CH   000012H   BYTE   UNIT     CODE           ?PR?_LCD_SETPAGE?LCDBSAE
00799DH   0079ACH   000010H   BYTE   UNIT     CODE           ?PR?_LCD_CMD?LCDBSAE
0079ADH   0079BCH   000010H   BYTE   UNIT     CODE           ?PR?_LCD_DAT?LCDBSAE
0079BDH   0079CBH   00000FH   BYTE   UNIT     CODE           ?PR?STERRINGDETECT?STERRING
0079CCH   0079D9H   00000EH   BYTE   UNIT     CODE           ?PR?_LCDWRITEDATLINE?LCDBSAE
0079DAH   0079E3H   00000AH   BYTE   UNIT     CODE           ?PR?PCA_0_ENTER_DEFAULTMODE_FROM_RESET?INITDEVICE
0079E4H   0079EDH   00000AH   BYTE   UNIT     CODE           ?PR?PORTS_0_ENTER_DEFAULTMODE_FROM_RESET?INITDEVICE
0079EEH   0079F7H   00000AH   BYTE   UNIT     CODE           ?PR?PORTS_1_ENTER_DEFAULTMODE_FROM_RESET?INITDEVICE
0079F8H   007A01H   00000AH   BYTE   UNIT     CODE           ?PR?PORTS_2_ENTER_DEFAULTMODE_FROM_RESET?INITDEVICE
007A02H   007A0BH   00000AH   BYTE   UNIT     CODE           ?PR?TIMER_SETUP_0_ENTER_DEFAULTMODE_FROM_RESET?INITDEVICE
007A0CH   007A12H   000007H   BYTE   UNIT     CODE           ?PR?PBCFG_0_ENTER_DEFAULTMODE_FROM_RESET?INITDEVICE
007A13H   007A19H   000007H   BYTE   UNIT     CODE           ?PR?SPI_INTI?LCDBSAE
LX51 LINKER/LOCATER V4.66.66.0                                                        03/09/2017  11:29:19  PAGE 6


007A1AH   007A20H   000007H   BYTE   UNIT     CODE           ?PR?BTNSTOPCNT?INPUTBTN
007A21H   007A26H   000006H   BYTE   UNIT     CODE           ?PR?LCDDRAWINIT?LCDDRAW
007A27H   007A2AH   000004H   BYTE   UNIT     CODE           ?PR?HFOSC_0_ENTER_DEFAULTMODE_FROM_RESET?INITDEVICE
007A2BH   007A2EH   000004H   BYTE   UNIT     CODE           ?PR?CLOCK_0_ENTER_DEFAULTMODE_FROM_RESET?INITDEVICE
007A2FH   007A32H   000004H   BYTE   UNIT     CODE           ?PR?EXTINT_0_ENTER_DEFAULTMODE_FROM_RESET?INITDEVICE
007A33H   008268H   000836H   BYTE   UNIT     CONST          ?CO?PAGERES
008269H   008556H   0002EEH   BYTE   UNIT     CONST          ?CO?PAGEESC1TH
008557H   008734H   0001DEH   BYTE   UNIT     CONST          ?CO?PAGEESC2TH
008735H   0088ABH   000177H   BYTE   UNIT     CONST          ?CO?PAGESTABILIZER
0088ACH   0089F6H   00014BH   BYTE   UNIT     CONST          ?CO?PAGEESC3TH
0089F7H   008AEBH   0000F5H   BYTE   UNIT     CONST          ?CO?PAGEESC
008AECH   008B95H   0000AAH   BYTE   UNIT     CONST          ?CO?PAGESTEERING
008B96H   008C3CH   0000A7H   BYTE   UNIT     CONST          ?CO?PAGESTABILIZERMODE
008C3DH   008CCEH   000092H   BYTE   UNIT     CONST          ?CO?PAGESTABILIZERPITCHGAIN
008CCFH   008D5FH   000091H   BYTE   UNIT     CONST          ?CO?PAGESTABILIZERROLLGAIN
008D60H   008DEFH   000090H   BYTE   UNIT     CONST          ?CO?PAGESTABILIZERYAWGAIN
008DF0H   008E6DH   00007EH   BYTE   UNIT     CONST          ?CO?PAGELIPOCELLS
008E6EH   008EC4H   000057H   BYTE   UNIT     CONST          ?CO?PAGESTABILIZERBUILD
008EC5H   008ED2H   00000EH   BYTE   UNIT     CONST          ?CO?MAIN
008ED3H   008EDDH   00000BH   BYTE   UNIT     CONST          ?CO?PAGE

* * * * * * * * * * *  X D A T A   M E M O R Y  * * * * * * * * * * * * *
000000H   000489H   00048AH   BYTE   UNIT     XDATA          ?XD?LCDDRAW
00048AH   0005BBH   000132H   BYTE   UNIT     XDATA          ?XD?PAGEESC1TH
0005BCH   000675H   0000BAH   BYTE   UNIT     XDATA          ?XD?PAGEESC2TH
000676H   0006FFH   00008AH   BYTE   UNIT     XDATA          ?XD?PAGEESC
000700H   00077DH   00007EH   BYTE   UNIT     XDATA          ?XD?PAGEESC3TH
00077EH   0007E7H   00006AH   BYTE   UNIT     XDATA          ?XD?ESC
0007E8H   00082FH   000048H   BYTE   UNIT     XDATA          ?XD?STABLIZER
000830H   00085FH   000030H   BYTE   UNIT     XDATA          _XDATA_GROUP_
000860H   00087BH   00001CH   BYTE   UNIT     XDATA          ?XD?LIPOCELLS
00087CH   000891H   000016H   BYTE   UNIT     XDATA          ?XD?_LCDDRAWLINE?LCDDRAW
000892H   0008A4H   000013H   BYTE   UNIT     XDATA          ?XD?_LCDDRAWBMPTOARRAY?LCDDRAW
0008A5H   0008B6H   000012H   BYTE   UNIT     XDATA          ?XD?_LCDDRAWINT?LCDDRAW
0008B7H   0008C8H   000012H   BYTE   UNIT     XDATA          ?XD?_LCDDRAWMINIINT?LCDDRAW
0008C9H   0008D9H   000011H   BYTE   UNIT     XDATA          ?XD?_LCDDRAWCHSCHAR?LCDDRAW
0008DAH   0008E9H   000010H   BYTE   UNIT     XDATA          ?XD?GLOBAL
0008EAH   0008F8H   00000FH   BYTE   UNIT     XDATA          ?XD?_LCDDRAWGECHAR?LCDDRAW
0008F9H   000904H   00000CH   BYTE   UNIT     XDATA          ?XD?_LCDDRAWHZLINE?LCDDRAW
000905H   000910H   00000CH   BYTE   UNIT     XDATA          ?XD?_LCDDRAWRECT?LCDDRAW
000911H   00091BH   00000BH   BYTE   UNIT     XDATA          ?XD?_LCDDRAWASCCHAR?LCDDRAW
00091CH   000925H   00000AH   BYTE   UNIT     XDATA          ?XD?_LCDDRAWMASKX?LCDDRAW
000926H   00092FH   00000AH   BYTE   UNIT     XDATA          ?XD?_LCDDRAWMASKY?LCDDRAW
000930H   000938H   000009H   BYTE   UNIT     XDATA          ?XD?_LCDDRAWSTART?LCDDRAW
000939H   000941H   000009H   BYTE   UNIT     XDATA          ?XD?_PAGEMENUPROC?PAGE
000942H   000949H   000008H   BYTE   UNIT     XDATA          ?XD?LCDDRAWBUFFERREFRESH?LCDBSAE
00094AH   000951H   000008H   BYTE   UNIT     XDATA          ?XD?_LCDDRAWHLINE?LCDDRAW
000952H   000959H   000008H   BYTE   UNIT     XDATA          ?XD?_LCDDRAWVLINE?LCDDRAW
00095AH   000961H   000008H   BYTE   UNIT     XDATA          ?XD?_LCDDRAWMINIASC?LCDDRAW
000962H   000969H   000008H   BYTE   UNIT     XDATA          ?XD?INPUTBTN
00096AH   000970H   000007H   BYTE   UNIT     XDATA          ?XD?_LCDWRITEASCCHAR?LCDBSAE
000971H   000977H   000007H   BYTE   UNIT     XDATA          ?XD?_LCDDRAWTEXTSTRING?LCDDRAW
000978H   00097DH   000006H   BYTE   UNIT     XDATA          ?XD?STERRING
00097EH   000983H   000006H   BYTE   UNIT     XDATA          ?XD?_LCDWRITEASCSTRING?LCDBSAE
000984H   000989H   000006H   BYTE   UNIT     XDATA          ?XD?_LCDDRAWPIXELXY?LCDDRAW
00098AH   00098FH   000006H   BYTE   UNIT     XDATA          ?XD?_LCDDRAWMINIBMP?LCDDRAW
000990H   000995H   000006H   BYTE   UNIT     XDATA          ?XD?PAGELIPOCELLS
000996H   00099BH   000006H   BYTE   UNIT     XDATA          ?XD?PAGESTABILIZER
00099CH   0009A1H   000006H   BYTE   UNIT     XDATA          ?XD?PAGESTABILIZERMODE
0009A2H   0009A7H   000006H   BYTE   UNIT     XDATA          ?XD?PAGESTABILIZERPITCHGAIN
0009A8H   0009ADH   000006H   BYTE   UNIT     XDATA          ?XD?PAGESTABILIZERROLLGAIN
0009AEH   0009B3H   000006H   BYTE   UNIT     XDATA          ?XD?PAGESTABILIZERYAWGAIN
0009B4H   0009B9H   000006H   BYTE   UNIT     XDATA          ?XD?PAGESTEERING
0009BAH   0009BEH   000005H   BYTE   UNIT     XDATA          ?XD?_DELAYMS?GLOBAL
0009BFH   0009C3H   000005H   BYTE   UNIT     XDATA          ?XD?_ESCDATCHARGE?ESC
LX51 LINKER/LOCATER V4.66.66.0                                                        03/09/2017  11:29:19  PAGE 7


0009C4H   0009C8H   000005H   BYTE   UNIT     XDATA          ?XD?_UART1_WRITE_BUFFER?STABLIZER
0009C9H   0009CDH   000005H   BYTE   UNIT     XDATA          ?XD?_DETECTCHARGEPARAMETER?STABLIZER
0009CEH   0009D1H   000004H   BYTE   UNIT     XDATA          ?XD?_LCDDRAWPIXEL?LCDDRAW
0009D2H   0009D5H   000004H   BYTE   UNIT     XDATA          ?XD?_PAGEINIT?PAGE
0009D6H   0009D9H   000004H   BYTE   UNIT     XDATA          ?XD?_PAGEGOTO?PAGE
0009DAH   0009DDH   000004H   BYTE   UNIT     XDATA          ?XD?_PAGEENTER?PAGE
0009DEH   0009E0H   000003H   BYTE   UNIT     XDATA          ?XD?_LCDWRITECLR?LCDBSAE
0009E1H   0009E3H   000003H   BYTE   UNIT     XDATA          ?XD?_LCDDRAWCLR?LCDDRAW
0009E4H   0009E5H   000002H   BYTE   UNIT     XDATA          ?XD?RXSOCKETHANDLER?STABLIZER
0009E6H   0009E7H   000002H   BYTE   UNIT     XDATA          ?XD?_DELAY?LCDBSAE
0009E8H   0009E9H   000002H   BYTE   UNIT     XDATA          ?XD?_SPI_SWRITEBYTE?LCDBSAE
0009EAH   0009EBH   000002H   BYTE   UNIT     XDATA          ?XD?_LCD_SETPAGECOLUMN?LCDBSAE
0009ECH   0009EDH   000002H   BYTE   UNIT     XDATA          ?XD?_LCDWRITECLRLINE?LCDBSAE
0009EEH   0009EFH   000002H   BYTE   UNIT     XDATA          ?XD?LCDDATINIT?LCDDRAW
0009F0H   0009F0H   000001H   BYTE   UNIT     XDATA          ?XD?ENTER_DEFAULTMODE_FROM_RESET?INITDEVICE
0009F1H   0009F1H   000001H   BYTE   UNIT     XDATA          ?XD?TIMER01_0_ENTER_DEFAULTMODE_FROM_RESET?INITDEVICE
0009F2H   0009F2H   000001H   BYTE   UNIT     XDATA          ?XD?TIMER16_2_ENTER_DEFAULTMODE_FROM_RESET?INITDEVICE
0009F3H   0009F3H   000001H   BYTE   UNIT     XDATA          ?XD?TIMER16_3_ENTER_DEFAULTMODE_FROM_RESET?INITDEVICE
0009F4H   0009F4H   000001H   BYTE   UNIT     XDATA          ?XD?_SYSHANDLEPROCESS?MAIN
0009F5H   0009F5H   000001H   BYTE   UNIT     XDATA          ?XD?ESCDATINIT?ESC
0009F6H   0009F6H   000001H   BYTE   UNIT     XDATA          ?XD?ESCDETECT?ESC
0009F7H   0009F7H   000001H   BYTE   UNIT     XDATA          ?XD?STABLIZERDATINIT?STABLIZER
0009F8H   0009F8H   000001H   BYTE   UNIT     XDATA          ?XD?STABLIZERDETECT?STABLIZER
0009F9H   0009F9H   000001H   BYTE   UNIT     XDATA          ?XD?_LCD_RST?LCDBSAE
0009FAH   0009FAH   000001H   BYTE   UNIT     XDATA          ?XD?_LCD_CMD?LCDBSAE
0009FBH   0009FBH   000001H   BYTE   UNIT     XDATA          ?XD?_LCD_DAT?LCDBSAE
0009FCH   0009FCH   000001H   BYTE   UNIT     XDATA          ?XD?_LCD_SETPAGE?LCDBSAE
0009FDH   0009FDH   000001H   BYTE   UNIT     XDATA          ?XD?_LCD_SETCOLUMN?LCDBSAE
0009FEH   0009FEH   000001H   BYTE   UNIT     XDATA          ?XD?_LCDWRITEDATLINE?LCDBSAE
0009FFH   0009FFH   000001H   BYTE   UNIT     XDATA          ?XD?_PAGERETURN?PAGE
000A00H   000A00H   000001H   BYTE   UNIT     XDATA          ?XD?_PAGEESCPARAM?PAGEESC
000A01H   000A01H   000001H   BYTE   UNIT     XDATA          ?XD?_PAGEESC1THRST?PAGEESC
000A02H   000A02H   000001H   BYTE   UNIT     XDATA          ?XD?_PAGEESC2THRST?PAGEESC
000A03H   000A03H   000001H   BYTE   UNIT     XDATA          ?XD?_PAGEESC3THRST?PAGEESC
000A04H   000A04H   000001H   BYTE   UNIT     XDATA          ?XD?_PAGEESC3THABOUT?PAGEESC
000A05H   000A05H   000001H   BYTE   UNIT     XDATA          ?XD?_PAGEESC1TH?PAGEESC1TH
000A06H   000A06H   000001H   BYTE   UNIT     XDATA          ?XD?ESC1THDATPROCCESS?PAGEESC1TH
000A07H   000A07H   000001H   BYTE   UNIT     XDATA          ?XD?_PAGEESC2TH?PAGEESC2TH
000A08H   000A08H   000001H   BYTE   UNIT     XDATA          ?XD?ESC2THDATPREPROCCESS?PAGEESC2TH
000A09H   000A09H   000001H   BYTE   UNIT     XDATA          ?XD?_PAGEESC3TH?PAGEESC3TH
000A0AH   000A0AH   000001H   BYTE   UNIT     XDATA          ?XD?ESC3THDATPROCCESS?PAGEESC3TH
000A0BH   000A0BH   000001H   BYTE   UNIT     XDATA          ?XD?_PAGEBATVOLT?PAGELIPOCELLS
000A0CH   000A0CH   000001H   BYTE   UNIT     XDATA          ?XD?_PAGEAUTOFLY?PAGESTABILIZER
000A0DH   000A0DH   000001H   BYTE   UNIT     XDATA          ?XD?_PAGESTABLIZERBUILD?PAGESTABILIZERBUILD
000A0EH   000A0EH   000001H   BYTE   UNIT     XDATA          ?XD?PAGESTABILIZERBUILD
000A0FH   000A0FH   000001H   BYTE   UNIT     XDATA          ?XD?_PAGEAUTOFLYMODE?PAGESTABILIZERMODE
000A10H   000A10H   000001H   BYTE   UNIT     XDATA          ?XD?_PAGEAUTOFLYPITCHGAIN?PAGESTABILIZERPITCHGAIN
000A11H   000A11H   000001H   BYTE   UNIT     XDATA          ?XD?_PAGEAUTOFLYROLLGAIN?PAGESTABILIZERROLLGAIN
000A12H   000A12H   000001H   BYTE   UNIT     XDATA          ?XD?_PAGEAUTOFLYYAWGAIN?PAGESTABILIZERYAWGAIN
000A13H   000A13H   000001H   BYTE   UNIT     XDATA          ?XD?_PAGESTERRING?PAGESTEERING
000A14H   000A14H   000001H   BYTE   UNIT     XDATA          ?XD?_BTNCLEARDOWN?INPUTBTN
000A15H   000A15H   000001H   BYTE   UNIT     XDATA          ?XD?_BTNTSTSTAT?INPUTBTN
000A16H   000A16H   000001H   BYTE   UNIT     XDATA          ?XD?_BTNTSTDOWN?INPUTBTN
000A17H   000A17H   000001H   BYTE   UNIT     XDATA          ?XD?_BTNTSTHOLD?INPUTBTN
000A18H   000A18H   000001H   BYTE   UNIT     XDATA          ?XD?_BTNGETSTATE?INPUTBTNBSP



OVERLAY MAP OF MODULE:   .\Objects\Keil_Silicon (INITDEVICE)


FUNCTION/MODULE                                BIT_GROUP   DATA_GROUP   XDATA_GROUP
--> CALLED FUNCTION/MODULE                    START  STOP  START  STOP  START  STOP
===================================================================================
TIMER1_ISR/GLOBAL                             ----- -----  ----- -----  ----- -----
LX51 LINKER/LOCATER V4.66.66.0                                                        03/09/2017  11:29:19  PAGE 8


  +--> BTNSCANHANDLE/INPUTBTN

BTNSCANHANDLE/INPUTBTN                        ----- -----  ----- -----  ----- -----
  +--> _BTNGETSTATE/INPUTBTNBSP

_BTNGETSTATE/INPUTBTNBSP                      ----- -----  ----- -----  ----- -----

*** NEW ROOT ********************************

TIMER0_ISR/ESC                                ----- -----  ----- -----  ----- -----

*** NEW ROOT ********************************

TIMER2_ISR/ESC                                ----- -----  ----- -----  ----- -----

*** NEW ROOT ********************************

INT0_ISR/ESC                                  ----- -----  ----- -----  ----- -----

*** NEW ROOT ********************************

UART1_ISR/STABLIZER                           ----- -----  ----- -----  ----- -----

*** NEW ROOT ********************************

ADC0EOC_ISR/LIPOCELLS                         ----- -----  ----- -----  ----- -----

*** NEW ROOT ********************************

TIMER3_ISR/STERRING                           ----- -----  ----- -----  ----- -----

*** NEW ROOT ********************************

?C_C51STARTUP                                 ----- -----  ----- -----  ----- -----
  +--> MAIN/MAIN
  +--> ?C_INITSEG

MAIN/MAIN                                     ----- -----  ----- -----  ----- -----
  +--> ENTER_DEFAULTMODE_FROM_RESET/INITDEVICE
  +--> SYSDATINIT/GLOBAL
  +--> BTNDATINIT/INPUTBTN
  +--> ESCDATINIT/ESC
  +--> LIPOCELLSDATINIT/LIPOCELLS
  +--> STABLIZERDATINIT/STABLIZER
  +--> STERRINGDATINIT/STERRING
  +--> PAGEMENUSTATDATINIT/PAGE
  +--> LCD_INIT/LCDBSAE
  +--> _LCDDRAWCLR/LCDDRAW
  +--> _LCDWRITECLR/LCDBSAE
  +--> ?CO?PAGERES
  +--> _LCDDRAWBMPTOARRAY/LCDDRAW
  +--> ?CO?MAIN
  +--> _LCDDRAWTEXTSTRING/LCDDRAW
  +--> LCDDRAWBUFFERREFRESH/LCDBSAE
  +--> ESCDETECT/ESC
  +--> LIPOCELLSDETECT/LIPOCELLS
  +--> STABLIZERDETECT/STABLIZER
  +--> STERRINGDETECT/STERRING
  +--> _PAGEESC1TH/PAGEESC1TH
  +--> _PAGEINIT/PAGE
  +--> _PAGEESC2TH/PAGEESC2TH
  +--> _PAGEESC3TH/PAGEESC3TH
  +--> _PAGEBATVOLT/PAGELIPOCELLS
  +--> _PAGEAUTOFLY/PAGESTABILIZER
  +--> _PAGESTERRING/PAGESTEERING
LX51 LINKER/LOCATER V4.66.66.0                                                        03/09/2017  11:29:19  PAGE 9


  +--> _SYSHANDLEPROCESS/MAIN

ENTER_DEFAULTMODE_FROM_RESET/INITDEVICE       ----- -----  ----- -----  ----- -----
  +--> PCA_0_ENTER_DEFAULTMODE_FROM_RESET/INITDEVICE
  +--> PCACH_0_ENTER_DEFAULTMODE_FROM_RESET/INITDEVICE
  +--> PCACH_4_ENTER_DEFAULTMODE_FROM_RESET/INITDEVICE
  +--> PORTS_0_ENTER_DEFAULTMODE_FROM_RESET/INITDEVICE
  +--> PORTS_1_ENTER_DEFAULTMODE_FROM_RESET/INITDEVICE
  +--> PORTS_2_ENTER_DEFAULTMODE_FROM_RESET/INITDEVICE
  +--> PBCFG_0_ENTER_DEFAULTMODE_FROM_RESET/INITDEVICE
  +--> ADC_0_ENTER_DEFAULTMODE_FROM_RESET/INITDEVICE
  +--> HFOSC_0_ENTER_DEFAULTMODE_FROM_RESET/INITDEVICE
  +--> CLOCK_0_ENTER_DEFAULTMODE_FROM_RESET/INITDEVICE
  +--> TIMER01_0_ENTER_DEFAULTMODE_FROM_RESET/INITDEVICE
  +--> TIMER16_2_ENTER_DEFAULTMODE_FROM_RESET/INITDEVICE
  +--> TIMER16_3_ENTER_DEFAULTMODE_FROM_RESET/INITDEVICE
  +--> TIMER_SETUP_0_ENTER_DEFAULTMODE_FROM_RESET/INITDEVICE
  +--> UARTE_1_ENTER_DEFAULTMODE_FROM_RESET/INITDEVICE
  +--> EXTINT_0_ENTER_DEFAULTMODE_FROM_RESET/INITDEVICE
  +--> INTERRUPT_0_ENTER_DEFAULTMODE_FROM_RESET/INITDEVICE

PCA_0_ENTER_DEFAULTMODE_FROM_RESET/INITD+     ----- -----  ----- -----  ----- -----
... EVICE

PCACH_0_ENTER_DEFAULTMODE_FROM_RESET/INI+     ----- -----  ----- -----  ----- -----
... TDEVICE

PCACH_4_ENTER_DEFAULTMODE_FROM_RESET/INI+     ----- -----  ----- -----  ----- -----
... TDEVICE

PORTS_0_ENTER_DEFAULTMODE_FROM_RESET/INI+     ----- -----  ----- -----  ----- -----
... TDEVICE

PORTS_1_ENTER_DEFAULTMODE_FROM_RESET/INI+     ----- -----  ----- -----  ----- -----
... TDEVICE

PORTS_2_ENTER_DEFAULTMODE_FROM_RESET/INI+     ----- -----  ----- -----  ----- -----
... TDEVICE

PBCFG_0_ENTER_DEFAULTMODE_FROM_RESET/INI+     ----- -----  ----- -----  ----- -----
... TDEVICE

ADC_0_ENTER_DEFAULTMODE_FROM_RESET/INITD+     ----- -----  ----- -----  ----- -----
... EVICE

HFOSC_0_ENTER_DEFAULTMODE_FROM_RESET/INI+     ----- -----  ----- -----  ----- -----
... TDEVICE

CLOCK_0_ENTER_DEFAULTMODE_FROM_RESET/INI+     ----- -----  ----- -----  ----- -----
... TDEVICE

TIMER01_0_ENTER_DEFAULTMODE_FROM_RESET/I+     ----- -----  ----- -----  ----- -----
... NITDEVICE

TIMER16_2_ENTER_DEFAULTMODE_FROM_RESET/I+     ----- -----  ----- -----  ----- -----
... NITDEVICE

TIMER16_3_ENTER_DEFAULTMODE_FROM_RESET/I+     ----- -----  ----- -----  ----- -----
... NITDEVICE

TIMER_SETUP_0_ENTER_DEFAULTMODE_FROM_RES+     ----- -----  ----- -----  ----- -----
... ET/INITDEVICE

UARTE_1_ENTER_DEFAULTMODE_FROM_RESET/INI+     ----- -----  ----- -----  ----- -----
... TDEVICE
LX51 LINKER/LOCATER V4.66.66.0                                                        03/09/2017  11:29:19  PAGE 10



EXTINT_0_ENTER_DEFAULTMODE_FROM_RESET/IN+     ----- -----  ----- -----  ----- -----
... ITDEVICE

INTERRUPT_0_ENTER_DEFAULTMODE_FROM_RESET+     ----- -----  ----- -----  ----- -----
... /INITDEVICE

SYSDATINIT/GLOBAL                             ----- -----  ----- -----  ----- -----

BTNDATINIT/INPUTBTN                           ----- -----  ----- -----  ----- -----

ESCDATINIT/ESC                                ----- -----  ----- -----  ----- -----

LIPOCELLSDATINIT/LIPOCELLS                    ----- -----  ----- -----  ----- -----

STABLIZERDATINIT/STABLIZER                    ----- -----  ----- -----  ----- -----

STERRINGDATINIT/STERRING                      ----- -----  ----- -----  ----- -----

PAGEMENUSTATDATINIT/PAGE                      ----- -----  ----- -----  ----- -----

LCD_INIT/LCDBSAE                              ----- -----  ----- -----  ----- -----
  +--> SPI_INTI/LCDBSAE
  +--> _LCD_RST/LCDBSAE
  +--> _LCD_CMD/LCDBSAE
  +--> _DELAY/LCDBSAE

SPI_INTI/LCDBSAE                              ----- -----  ----- -----  ----- -----

_LCD_RST/LCDBSAE                              ----- -----  ----- -----  ----- -----
  +--> _DELAY/LCDBSAE

_DELAY/LCDBSAE                                ----- -----  ----- -----  ----- -----

_LCD_CMD/LCDBSAE                              ----- -----  ----- -----  ----- -----
  +--> _SPI_SWRITEBYTE/LCDBSAE

_SPI_SWRITEBYTE/LCDBSAE                       ----- -----  ----- -----  ----- -----

_LCDDRAWCLR/LCDDRAW                           ----- -----  ----- -----  ----- -----

_LCDWRITECLR/LCDBSAE                          ----- -----  ----- -----  ----- -----
  +--> _LCD_SETPAGE/LCDBSAE
  +--> _LCD_SETCOLUMN/LCDBSAE
  +--> _LCD_DAT/LCDBSAE

_LCD_SETPAGE/LCDBSAE                          ----- -----  ----- -----  ----- -----
  +--> _LCD_CMD/LCDBSAE

_LCD_SETCOLUMN/LCDBSAE                        ----- -----  ----- -----  ----- -----
  +--> _LCD_CMD/LCDBSAE

_LCD_DAT/LCDBSAE                              ----- -----  ----- -----  ----- -----
  +--> _SPI_SWRITEBYTE/LCDBSAE

?CO?PAGERES                                   ----- -----  ----- -----  ----- -----

_LCDDRAWBMPTOARRAY/LCDDRAW                    ----- -----  ----- -----  ----- -----
  +--> _LCDDRAWSTART/LCDDRAW
  +--> _LCDDRAWPIXEL/LCDDRAW

_LCDDRAWSTART/LCDDRAW                         ----- -----  ----- -----  ----- -----

_LCDDRAWPIXEL/LCDDRAW                         ----- -----  ----- -----  ----- -----

LX51 LINKER/LOCATER V4.66.66.0                                                        03/09/2017  11:29:19  PAGE 11


?CO?MAIN                                      ----- -----  ----- -----  ----- -----

_LCDDRAWTEXTSTRING/LCDDRAW                    ----- -----  ----- -----  ----- -----
  +--> _LCDDRAWCHSCHAR/LCDDRAW
  +--> _LCDDRAWASCCHAR/LCDDRAW

_LCDDRAWCHSCHAR/LCDDRAW                       ----- -----  ----- -----  ----- -----
  +--> ?CO?PAGERES
  +--> _LCDDRAWHZLINE/LCDDRAW

_LCDDRAWHZLINE/LCDDRAW                        ----- -----  ----- -----  ----- -----
  +--> _LCDDRAWPIXELXY/LCDDRAW

_LCDDRAWPIXELXY/LCDDRAW                       ----- -----  ----- -----  ----- -----
  +--> _LCDDRAWPIXEL/LCDDRAW

_LCDDRAWASCCHAR/LCDDRAW                       ----- -----  ----- -----  ----- -----
  +--> ?CO?PAGERES
  +--> _LCDDRAWHZLINE/LCDDRAW

LCDDRAWBUFFERREFRESH/LCDBSAE                  ----- -----  ----- -----  ----- -----
  +--> _LCD_SETPAGECOLUMN/LCDBSAE
  +--> _LCD_SETCOLUMN/LCDBSAE
  +--> _LCD_DAT/LCDBSAE

_LCD_SETPAGECOLUMN/LCDBSAE                    ----- -----  ----- -----  ----- -----
  +--> _LCD_CMD/LCDBSAE

ESCDETECT/ESC                                 ----- -----  ----- -----  ----- -----
  +--> _DELAYMS/GLOBAL

_DELAYMS/GLOBAL                               ----- -----  ----- -----  ----- -----

LIPOCELLSDETECT/LIPOCELLS                     ----- -----  ----- -----  ----- -----

STABLIZERDETECT/STABLIZER                     ----- -----  ----- -----  ----- -----
  +--> UART1_READ_ENCODE/STABLIZER
  +--> _UART1_WRITE_BUFFER/STABLIZER

UART1_READ_ENCODE/STABLIZER                   ----- -----  ----- -----  ----- -----

_UART1_WRITE_BUFFER/STABLIZER                 ----- -----  ----- -----  ----- -----

STERRINGDETECT/STERRING                       ----- -----  ----- -----  ----- -----

_PAGEESC1TH/PAGEESC1TH                        ----- -----  ----- -----  ----- -----
  +--> _LCDDRAWCLR/LCDDRAW
  +--> ?CO?PAGEESC1TH
  +--> ESC1THDATPROCCESS/PAGEESC1TH
  +--> _PAGEMENUPROC/PAGE
  +--> _BTNTSTDOWN/INPUTBTN
  +--> _PAGEENTER/PAGE
  +--> _PAGERETURN/PAGE

?CO?PAGEESC1TH                                ----- -----  ----- -----  ----- -----
  +--> _PAGEESCPARAM/PAGEESC
  +--> _PAGEESC1THRST/PAGEESC

_PAGEESCPARAM/PAGEESC                         ----- -----  ----- -----  ----- -----
  +--> _LCDDRAWCLR/LCDDRAW
  +--> ?CO?PAGEESC
  +--> PARAMESCDATPROCCESS/PAGEESC
  +--> _PAGEMENUPROC/PAGE
  +--> _BTNTSTDOWN/INPUTBTN
  +--> _PAGERETURN/PAGE
LX51 LINKER/LOCATER V4.66.66.0                                                        03/09/2017  11:29:19  PAGE 12



?CO?PAGEESC                                   ----- -----  ----- -----  ----- -----

PARAMESCDATPROCCESS/PAGEESC                   ----- -----  ----- -----  ----- -----
  +--> ?CO?PAGEESC
  +--> PRINTF/PRINTF

PRINTF/PRINTF                                 20H.0 21H.0  003AH 003EH  0830H 085FH
  +--> PUTCHAR/PUTCHAR

PUTCHAR/PUTCHAR                               ----- -----  ----- -----  ----- -----

_PAGEMENUPROC/PAGE                            ----- -----  ----- -----  ----- -----
  +--> _LCDDRAWRECT/LCDDRAW
  +--> _LCDDRAWTEXTSTRING/LCDDRAW
  +--> _LCDDRAWHLINE/LCDDRAW
  +--> _LCDDRAWMINIINT/LCDDRAW
  +--> _LCDDRAWMINIBMP/LCDDRAW
  +--> ?CO?PAGE
  +--> _STRLEN/STRLEN
  +--> _LCDDRAWINT/LCDDRAW
  +--> LCDDRAWBUFFERREFRESH/LCDBSAE
  +--> _BTNTSTDOWN/INPUTBTN

_LCDDRAWRECT/LCDDRAW                          ----- -----  ----- -----  ----- -----
  +--> _LCDDRAWPIXELXY/LCDDRAW

_LCDDRAWHLINE/LCDDRAW                         ----- -----  ----- -----  ----- -----
  +--> _LCDDRAWPIXELXY/LCDDRAW

_LCDDRAWMINIINT/LCDDRAW                       ----- -----  ----- -----  ----- -----
  +--> _LCDDRAWMINIBMP/LCDDRAW

_LCDDRAWMINIBMP/LCDDRAW                       ----- -----  ----- -----  ----- -----
  +--> ?CO?PAGERES
  +--> _LCDDRAWMASKY/LCDDRAW

_LCDDRAWMASKY/LCDDRAW                         ----- -----  ----- -----  ----- -----
  +--> _LCDDRAWPIXELXY/LCDDRAW

?CO?PAGE                                      ----- -----  ----- -----  ----- -----

_STRLEN/STRLEN                                ----- -----  ----- -----  ----- -----

_LCDDRAWINT/LCDDRAW                           ----- -----  ----- -----  ----- -----
  +--> _LCDDRAWASCCHAR/LCDDRAW

_BTNTSTDOWN/INPUTBTN                          ----- -----  ----- -----  ----- -----

_PAGERETURN/PAGE                              ----- -----  ----- -----  ----- -----

_PAGEESC1THRST/PAGEESC                        ----- -----  ----- -----  ----- -----
  +--> _LCDDRAWCLR/LCDDRAW
  +--> ?CO?PAGEESC
  +--> _LCDDRAWTEXTSTRING/LCDDRAW
  +--> LCDDRAWBUFFERREFRESH/LCDBSAE
  +--> _BTNTSTDOWN/INPUTBTN
  +--> _PAGERETURN/PAGE

ESC1THDATPROCCESS/PAGEESC1TH                  ----- -----  ----- -----  ----- -----
  +--> _ESCDATCHARGE/ESC
  +--> ?CO?PAGEESC1TH
  +--> PRINTF/PRINTF

_ESCDATCHARGE/ESC                             ----- -----  ----- -----  ----- -----
LX51 LINKER/LOCATER V4.66.66.0                                                        03/09/2017  11:29:19  PAGE 13



_PAGEENTER/PAGE                               ----- -----  ----- -----  ----- -----

_PAGEINIT/PAGE                                ----- -----  ----- -----  ----- -----

_PAGEESC2TH/PAGEESC2TH                        ----- -----  ----- -----  ----- -----
  +--> _LCDDRAWCLR/LCDDRAW
  +--> ?CO?PAGEESC2TH
  +--> ESC2THDATPREPROCCESS/PAGEESC2TH
  +--> _PAGEMENUPROC/PAGE
  +--> _BTNTSTDOWN/INPUTBTN
  +--> _PAGEENTER/PAGE
  +--> _PAGERETURN/PAGE

?CO?PAGEESC2TH                                ----- -----  ----- -----  ----- -----
  +--> _PAGEESCPARAM/PAGEESC
  +--> _PAGEESC2THRST/PAGEESC

_PAGEESC2THRST/PAGEESC                        ----- -----  ----- -----  ----- -----
  +--> _LCDDRAWCLR/LCDDRAW
  +--> ?CO?PAGEESC
  +--> _LCDDRAWTEXTSTRING/LCDDRAW
  +--> LCDDRAWBUFFERREFRESH/LCDBSAE
  +--> _BTNTSTDOWN/INPUTBTN
  +--> _PAGERETURN/PAGE

ESC2THDATPREPROCCESS/PAGEESC2TH               ----- -----  ----- -----  ----- -----
  +--> _ESCDATCHARGE/ESC
  +--> ?CO?PAGEESC2TH
  +--> PRINTF/PRINTF

_PAGEESC3TH/PAGEESC3TH                        ----- -----  ----- -----  ----- -----
  +--> _LCDDRAWCLR/LCDDRAW
  +--> ?CO?PAGEESC3TH
  +--> ESC3THDATPROCCESS/PAGEESC3TH
  +--> _PAGEMENUPROC/PAGE
  +--> _BTNTSTDOWN/INPUTBTN
  +--> _PAGEENTER/PAGE
  +--> _PAGERETURN/PAGE

?CO?PAGEESC3TH                                ----- -----  ----- -----  ----- -----
  +--> _PAGEESC3THRST/PAGEESC
  +--> _PAGEESC3THABOUT/PAGEESC

_PAGEESC3THRST/PAGEESC                        ----- -----  ----- -----  ----- -----
  +--> _LCDDRAWCLR/LCDDRAW
  +--> ?CO?PAGEESC
  +--> _LCDDRAWTEXTSTRING/LCDDRAW
  +--> LCDDRAWBUFFERREFRESH/LCDBSAE
  +--> _BTNTSTDOWN/INPUTBTN
  +--> _PAGERETURN/PAGE

_PAGEESC3THABOUT/PAGEESC                      ----- -----  ----- -----  ----- -----
  +--> ?CO?PAGEESC
  +--> PRINTF/PRINTF
  +--> _LCDDRAWCLR/LCDDRAW
  +--> _LCDDRAWTEXTSTRING/LCDDRAW
  +--> LCDDRAWBUFFERREFRESH/LCDBSAE
  +--> _BTNTSTDOWN/INPUTBTN
  +--> _PAGERETURN/PAGE

ESC3THDATPROCCESS/PAGEESC3TH                  ----- -----  ----- -----  ----- -----
  +--> _ESCDATCHARGE/ESC
  +--> ?CO?PAGEESC3TH
  +--> PRINTF/PRINTF
LX51 LINKER/LOCATER V4.66.66.0                                                        03/09/2017  11:29:19  PAGE 14



_PAGEBATVOLT/PAGELIPOCELLS                    ----- -----  ----- -----  ----- -----
  +--> _LCDDRAWCLR/LCDDRAW
  +--> _LCDDRAWRECT/LCDDRAW
  +--> ?CO?PAGELIPOCELLS
  +--> _LCDDRAWTEXTSTRING/LCDDRAW
  +--> _LCDDRAWHLINE/LCDDRAW
  +--> _LCDDRAWINT/LCDDRAW
  +--> LCDDRAWBUFFERREFRESH/LCDBSAE
  +--> _BTNTSTDOWN/INPUTBTN
  +--> _PAGERETURN/PAGE

?CO?PAGELIPOCELLS                             ----- -----  ----- -----  ----- -----

_PAGEAUTOFLY/PAGESTABILIZER                   ----- -----  ----- -----  ----- -----
  +--> _LCDDRAWCLR/LCDDRAW
  +--> ?CO?PAGESTABILIZER
  +--> _DETECTCHARGEPARAMETER/STABLIZER
  +--> _PAGEMENUPROC/PAGE
  +--> _BTNTSTDOWN/INPUTBTN
  +--> _PAGEENTER/PAGE
  +--> _PAGERETURN/PAGE

?CO?PAGESTABILIZER                            ----- -----  ----- -----  ----- -----
  +--> _PAGEAUTOFLYMODE/PAGESTABILIZERMODE
  +--> _PAGEAUTOFLYYAWGAIN/PAGESTABILIZERYAWGAIN
  +--> _PAGEAUTOFLYROLLGAIN/PAGESTABILIZERROLLGAIN
  +--> _PAGEAUTOFLYPITCHGAIN/PAGESTABILIZERPITCHGAIN
  +--> _PAGESTABLIZERBUILD/PAGESTABILIZERBUILD

_PAGEAUTOFLYMODE/PAGESTABILIZERMODE           ----- -----  ----- -----  ----- -----
  +--> _LCDDRAWCLR/LCDDRAW
  +--> ?CO?PAGESTABILIZERMODE
  +--> _DETECTCHARGEPARAMETER/STABLIZER
  +--> _PAGEMENUPROC/PAGE
  +--> _BTNTSTDOWN/INPUTBTN
  +--> _PAGEENTER/PAGE
  +--> _PAGERETURN/PAGE

?CO?PAGESTABILIZERMODE                        ----- -----  ----- -----  ----- -----

_DETECTCHARGEPARAMETER/STABLIZER              ----- -----  ----- -----  ----- -----

_PAGEAUTOFLYYAWGAIN/PAGESTABILIZERYAWGAI+     ----- -----  ----- -----  ----- -----
... N
  +--> _LCDDRAWCLR/LCDDRAW
  +--> ?CO?PAGESTABILIZERYAWGAIN
  +--> _DETECTCHARGEPARAMETER/STABLIZER
  +--> _PAGEMENUPROC/PAGE
  +--> _BTNTSTDOWN/INPUTBTN
  +--> _PAGEENTER/PAGE
  +--> _PAGERETURN/PAGE

?CO?PAGESTABILIZERYAWGAIN                     ----- -----  ----- -----  ----- -----

_PAGEAUTOFLYROLLGAIN/PAGESTABILIZERROLLG+     ----- -----  ----- -----  ----- -----
... AIN
  +--> _LCDDRAWCLR/LCDDRAW
  +--> ?CO?PAGESTABILIZERROLLGAIN
  +--> _DETECTCHARGEPARAMETER/STABLIZER
  +--> _PAGEMENUPROC/PAGE
  +--> _BTNTSTDOWN/INPUTBTN
  +--> _PAGEENTER/PAGE
  +--> _PAGERETURN/PAGE

LX51 LINKER/LOCATER V4.66.66.0                                                        03/09/2017  11:29:19  PAGE 15


?CO?PAGESTABILIZERROLLGAIN                    ----- -----  ----- -----  ----- -----

_PAGEAUTOFLYPITCHGAIN/PAGESTABILIZERPITC+     ----- -----  ----- -----  ----- -----
... HGAIN
  +--> _LCDDRAWCLR/LCDDRAW
  +--> ?CO?PAGESTABILIZERPITCHGAIN
  +--> _DETECTCHARGEPARAMETER/STABLIZER
  +--> _PAGEMENUPROC/PAGE
  +--> _BTNTSTDOWN/INPUTBTN
  +--> _PAGEENTER/PAGE
  +--> _PAGERETURN/PAGE

?CO?PAGESTABILIZERPITCHGAIN                   ----- -----  ----- -----  ----- -----

_PAGESTABLIZERBUILD/PAGESTABILIZERBUILD       ----- -----  ----- -----  ----- -----
  +--> _LCDDRAWCLR/LCDDRAW
  +--> ?CO?PAGESTABILIZERBUILD
  +--> _LCDDRAWTEXTSTRING/LCDDRAW
  +--> _LCDDRAWHLINE/LCDDRAW
  +--> _BTNTSTDOWN/INPUTBTN
  +--> _PAGERETURN/PAGE
  +--> _LCDDRAWRECT/LCDDRAW
  +--> LCDDRAWBUFFERREFRESH/LCDBSAE
  +--> _DETECTCHARGEPARAMETER/STABLIZER

?CO?PAGESTABILIZERBUILD                       ----- -----  ----- -----  ----- -----

_PAGESTERRING/PAGESTEERING                    ----- -----  ----- -----  ----- -----
  +--> _LCDDRAWCLR/LCDDRAW
  +--> ?CO?PAGESTEERING
  +--> _PAGEMENUPROC/PAGE
  +--> _BTNTSTDOWN/INPUTBTN
  +--> _PAGEENTER/PAGE
  +--> _PAGERETURN/PAGE

?CO?PAGESTEERING                              ----- -----  ----- -----  ----- -----

_SYSHANDLEPROCESS/MAIN                        ----- -----  ----- -----  ----- -----
  +--> LIPOCELLSPROCESSHANDLE/LIPOCELLS
  +--> STABLIZERPROCESSHANDLE/STABLIZER
  +--> STERRINGPROCESSHANDLE/STERRING

LIPOCELLSPROCESSHANDLE/LIPOCELLS              ----- -----  ----- -----  ----- -----

STABLIZERPROCESSHANDLE/STABLIZER              ----- -----  ----- -----  ----- -----
  +--> RXSOCKETHANDLER/STABLIZER
  +--> UART1_READ_ENCODE/STABLIZER
  +--> _UART1_WRITE_BUFFER/STABLIZER
  +--> UART1_WRITE_ENCODE/STABLIZER

RXSOCKETHANDLER/STABLIZER                     ----- -----  ----- -----  ----- -----
  +--> RXSOCKETDECODE/STABLIZER

RXSOCKETDECODE/STABLIZER                      ----- -----  ----- -----  ----- -----

UART1_WRITE_ENCODE/STABLIZER                  ----- -----  ----- -----  ----- -----

STERRINGPROCESSHANDLE/STERRING                ----- -----  ----- -----  ----- -----

?C_INITSEG                                    ----- -----  ----- -----  ----- -----



PUBLIC SYMBOLS OF MODULE:  .\Objects\Keil_Silicon (INITDEVICE)

LX51 LINKER/LOCATER V4.66.66.0                                                        03/09/2017  11:29:19  PAGE 16



      VALUE       CLASS    TYPE      PUBLIC SYMBOL NAME
      =================================================
      020008EAH   XDATA    BYTE      ?_LcdDrawGeChar?BYTE
      0200094AH   XDATA    BYTE      ?_LcdDrawHLine?BYTE
      020008A5H   XDATA    BYTE      ?_LcdDrawInt?BYTE
      0200087CH   XDATA    BYTE      ?_LcdDrawLine?BYTE
      020008B7H   XDATA    BYTE      ?_LcdDrawMiniInt?BYTE
      02000905H   XDATA    BYTE      ?_LcdDrawRect?BYTE
      02000952H   XDATA    BYTE      ?_LcdDrawVLine?BYTE
      0200097EH   XDATA    BYTE      ?_LcdWriteAscString?BYTE
      02000939H   XDATA    BYTE      ?_PageMenuProc?BYTE
      02000830H   XDATA    ---       ?_PRINTF?BYTE
      02000830H   XDATA    ---       ?_SPRINTF?BYTE
      01002031H   CODE     ---       ?C?CCASE
      01001C32H   CODE     ---       ?C?CILDOPTR
      01001C05H   CODE     ---       ?C?CLDOPTR
      01001BECH   CODE     ---       ?C?CLDPTR
      00000000H   NUMBER   ---       ?C?CODESEG
      01001C77H   CODE     ---       ?C?CSTOPTR
      01001C65H   CODE     ---       ?C?CSTPTR
      010019BCH   CODE     ---       ?C?FCASTC
      010019B7H   CODE     ---       ?C?FCASTI
      010019B2H   CODE     ---       ?C?FCASTL
      0100171BH   CODE     ---       ?C?FPADD
      01001A77H   CODE     ---       ?C?FPCONVERT
      01001915H   CODE     ---       ?C?FPDIV
      010019F0H   CODE     ---       ?C?FPGETOPN2
      0100180CH   CODE     ---       ?C?FPMUL
      01001A25H   CODE     ---       ?C?FPNANRESULT
      01001A2FH   CODE     ---       ?C?FPOVERFLOW
      01001A07H   CODE     ---       ?C?FPRESULT
      01001A1BH   CODE     ---       ?C?FPRESULT2
      01001A3AH   CODE     ---       ?C?FPROUND
      01001717H   CODE     ---       ?C?FPSUB
      01001A2CH   CODE     ---       ?C?FPUNDERFLOW
      01001BACH   CODE     ---       ?C?FTNPWR
      01002057H   CODE     ---       ?C?ICALL
      0100205BH   CODE     ---       ?C?ICALL2
      01001DC5H   CODE     ---       ?C?IILDPTR
      01001D36H   CODE     ---       ?C?IILDX
      01001D4CH   CODE     ---       ?C?ILDIX
      01001D8DH   CODE     ---       ?C?ILDOPTR
      01001D62H   CODE     ---       ?C?ILDPTR
      01001C99H   CODE     ---       ?C?IMUL
      01001DFDH   CODE     ---       ?C?ISTPTR
      01001E1CH   CODE     ---       ?C?LMUL
      01001F46H   CODE     ---       ?C?LNEG
      01001F39H   CODE     ---       ?C?LNOT
      01001F54H   CODE     ---       ?C?LSHL
      01001F73H   CODE     ---       ?C?LSTKXDATA
      01001F67H   CODE     ---       ?C?LSTXDATA
      01001FA4H   CODE     ---       ?C?OFFX256
      01001FB5H   CODE     ---       ?C?OFFXADD
      01002078H   CODE     ---       ?C?PLDCODE
      0100205DH   CODE     ---       ?C?PLDIDATA
      01001FC1H   CODE     ---       ?C?PLDIXDATA
      01002001H   CODE     ---       ?C?PLDOPTR
      0100206FH   CODE     ---       ?C?PLDPDATA
      01001FE1H   CODE     ---       ?C?PLDPTR
      01002066H   CODE     ---       ?C?PLDXDATA
      01001FD8H   CODE     ---       ?C?PSTXDATA
      01001D00H   CODE     ---       ?C?SIDIV
      01001CABH   CODE     ---       ?C?UIDIV
      01001EA7H   CODE     ---       ?C?ULDIV
LX51 LINKER/LOCATER V4.66.66.0                                                        03/09/2017  11:29:19  PAGE 17


      00000000H   NUMBER   ---       ?C?XDATASEG
      01006C3FH   CODE     ---       ?C_START
      01000000H   CODE     ---       ?C_STARTUP
      01000076H   CODE     ---       _ABS
      0100794BH   CODE     ---       _BtnClearDown
      0100753CH   CODE     ---       _BtnGetState
      01007787H   CODE     ---       _BtnTstDown
      010077B4H   CODE     ---       _BtnTstHold
      010078FEH   CODE     ---       _BtnTstStat
      01006D98H   CODE     ---       _DelayMs
      010063E4H   CODE     ---       _DetectChargeParameter
      01006B6AH   CODE     ---       _EscDatCharge
      0100002EH   CODE     ---       _Lcd_SetColumn
      0100798BH   CODE     ---       _Lcd_SetPage
      010076F9H   CODE     ---       _Lcd_SetPageColumn
      01006308H   CODE     ---       _LcdDrawAscChar
      010031ADH   CODE     ---       _LcdDrawBmpToArray
      01004195H   CODE     ---       _LcdDrawChsChar
      01006995H   CODE     ---       _LcdDrawClr
      01004BD3H   CODE     ---       _LcdDrawGeChar
      0100732BH   CODE     ---       _LcdDrawHLine
      010037BBH   CODE     ---       _LcdDrawInt
      01003A95H   CODE     ---       _LcdDrawLine
      010052AFH   CODE     ---       _LcdDrawMiniAsc
      01006FA2H   CODE     ---       _LcdDrawMiniBmp
      010034D0H   CODE     ---       _LcdDrawMiniInt
      01007581H   CODE     ---       _LcdDrawPixelXY
      01006AD0H   CODE     ---       _LcdDrawRect
      010064B0H   CODE     ---       _LcdDrawTextString
      0100737DH   CODE     ---       _LcdDrawVLine
      01006C84H   CODE     ---       _LcdWriteAscChar
      010072D9H   CODE     ---       _LcdWriteAscString
      010070F9H   CODE     ---       _LcdWriteClr
      010078C2H   CODE     ---       _LcdWriteClrline
      010079CCH   CODE     ---       _LcdWriteDatLine
      010054FEH   CODE     ---       _PageAutoFly
      0100560AH   CODE     ---       _PageAutoFlyMode
      01005716H   CODE     ---       _PageAutoFlyPitchGain
      01005822H   CODE     ---       _PageAutoFlyRollGain
      0100592EH   CODE     ---       _PageAutoFlyYawGain
      01002E12H   CODE     ---       _PageBatVolt
      010073CFH   CODE     ---       _PageEnter
      01005A3AH   CODE     ---       _PageEsc1th
      01006045H   CODE     ---       _PageEsc1thRst
      01005B40H   CODE     ---       _PageEsc2th
      01006136H   CODE     ---       _PageEsc2thRst
      01005C44H   CODE     ---       _PageEsc3th
      01006221H   CODE     ---       _PageEsc3thAbout
      01006A33H   CODE     ---       _PageEsc3thRst
      01006EA0H   CODE     ---       _PageEscParam
      010074F7H   CODE     ---       _PageGoto
      01007020H   CODE     ---       _PageInit
      01000086H   CODE     ---       _PageMenuProc
      0100775AH   CODE     ---       _PageReturn
      01004540H   CODE     ---       _PageStablizerBuild
      01005E4BH   CODE     ---       _PageSterring
      01002642H   CODE     ---       _PRINTF
      01007837H   CODE     ---       _PUTCHAR
      0100263CH   CODE     ---       _SPRINTF
      01007963H   CODE     ---       _STRLEN
      01007468H   CODE     ---       _SysHandleProcess
      01007284H   CODE     ---       _UART1_Write_Buffer
*SFR* 000000E0H   DATA     BYTE      ACC
*SFR* 000000E0H   DATA     BIT       ACC_ACC0
*SFR* 000000E0H.1 DATA     BIT       ACC_ACC1
LX51 LINKER/LOCATER V4.66.66.0                                                        03/09/2017  11:29:19  PAGE 18


*SFR* 000000E0H.2 DATA     BIT       ACC_ACC2
*SFR* 000000E0H.3 DATA     BIT       ACC_ACC3
*SFR* 000000E0H.4 DATA     BIT       ACC_ACC4
*SFR* 000000E0H.5 DATA     BIT       ACC_ACC5
*SFR* 000000E0H.6 DATA     BIT       ACC_ACC6
*SFR* 000000E0H.7 DATA     BIT       ACC_ACC7
*SFR* 000000BDH   DATA     WORD      ADC0
*SFR* 000000BCH   DATA     BYTE      ADC0CF
*SFR* 000000E8H   DATA     BYTE      ADC0CN0
*SFR* 000000E8H.4 DATA     BIT       ADC0CN0_ADBUSY
*SFR* 000000E8H   DATA     BIT       ADC0CN0_ADCM0
*SFR* 000000E8H.1 DATA     BIT       ADC0CN0_ADCM1
*SFR* 000000E8H.2 DATA     BIT       ADC0CN0_ADCM2
*SFR* 000000E8H.7 DATA     BIT       ADC0CN0_ADEN
*SFR* 000000E8H.5 DATA     BIT       ADC0CN0_ADINT
*SFR* 000000E8H.6 DATA     BIT       ADC0CN0_ADTM
*SFR* 000000E8H.3 DATA     BIT       ADC0CN0_ADWINT
      01003FA2H   CODE     ---       ADC0EOC_ISR
*SFR* 000000C3H   DATA     WORD      ADC0GT
*SFR* 000000C4H   DATA     BYTE      ADC0GTH
*SFR* 000000C3H   DATA     BYTE      ADC0GTL
*SFR* 000000BEH   DATA     BYTE      ADC0H
*SFR* 000000BDH   DATA     BYTE      ADC0L
*SFR* 000000C5H   DATA     WORD      ADC0LT
*SFR* 000000C6H   DATA     BYTE      ADC0LTH
*SFR* 000000C5H   DATA     BYTE      ADC0LTL
      0100000EH   CODE     ---       ADC_0_enter_DefaultMode_from_RESET
      02000864H   XDATA    BYTE      AdcCovEnTrigger
      02000869H   XDATA    BYTE      AdcCovOkFlag
      02000860H   XDATA    DWORD     AdcValue
      02000866H   XDATA    WORD      AdcVoltage
*SFR* 000000BAH   DATA     BYTE      AMX0N
*SFR* 000000BBH   DATA     BYTE      AMX0P
      01007A67H   CONST    ---       AscFontTableMask
      0200099CH   XDATA    ---       AutoFlyModeMs
      02000996H   XDATA    ---       AutoFlyMs
      020009A2H   XDATA    ---       AutoFlyPitchGainMs
      020009A8H   XDATA    ---       AutoFlyRollGainMs
      020009AEH   XDATA    ---       AutoFlyYawGainMs
*SFR* 000000F0H   DATA     BYTE      B
*SFR* 000000F0H   DATA     BIT       B_B0
*SFR* 000000F0H.1 DATA     BIT       B_B1
*SFR* 000000F0H.2 DATA     BIT       B_B2
*SFR* 000000F0H.3 DATA     BIT       B_B3
*SFR* 000000F0H.4 DATA     BIT       B_B4
*SFR* 000000F0H.5 DATA     BIT       B_B5
*SFR* 000000F0H.6 DATA     BIT       B_B6
*SFR* 000000F0H.7 DATA     BIT       B_B7
      0200086AH   XDATA    ---       BatVoltage
      02000969H   XDATA    BYTE      BtnCnt
      010076C1H   CODE     ---       BtnDatInit
      02000967H   XDATA    BYTE      BtnDown
      02000964H   XDATA    BYTE      BtnDownBuffer
*SFR* 00000090H.5 DATA     BIT       BtnDwGpio
*SFR* 00000080H   DATA     BIT       BtnEntGpio
*SFR* 00000080H.1 DATA     BIT       BtnExtGpio
      01007933H   CODE     ---       BtnFlush
      02000965H   XDATA    BYTE      BtnHold
      02000963H   XDATA    BYTE      BtnHoldBuffer
      0100500DH   CODE     ---       BtnScanHandle
      02000968H   XDATA    BYTE      BtnStat
      01007A1AH   CODE     ---       BtnStopCnt
      0000001DH   DATA     WORD      BtnTickCnt
      0000001FH   DATA     BYTE      BtnTickOverFlow
      02000966H   XDATA    BYTE      BtnTmpCache
LX51 LINKER/LOCATER V4.66.66.0                                                        03/09/2017  11:29:19  PAGE 19


      02000962H   XDATA    BYTE      BtnUpdate
*SFR* 00000090H.4 DATA     BIT       BtnUpGpio
      01007A33H   CONST    ---       ChsFontTableMask
*SFR* 0000008EH   DATA     BYTE      CKCON0
*SFR* 000000E4H   DATA     BYTE      CKCON1
*SFR* 000000A9H   DATA     BYTE      CLKSEL
      01007A2BH   CODE     ---       CLOCK_0_enter_DefaultMode_from_RESET
*SFR* 0000009BH   DATA     BYTE      CMP0CN0
*SFR* 0000009DH   DATA     BYTE      CMP0MD
*SFR* 0000009FH   DATA     BYTE      CMP0MX
*SFR* 0000009AH   DATA     BYTE      CMP1CN0
*SFR* 0000009CH   DATA     BYTE      CMP1MD
*SFR* 0000009EH   DATA     BYTE      CMP1MX
      00000027H   DATA     WORD      DataPulseCnt
      00000035H   DATA     WORD      DetectStablizerTickCnt
      00000037H   DATA     BYTE      DetectStablizerTickOverFlow
*SFR* 00000082H   DATA     WORD      DP
*SFR* 00000083H   DATA     BYTE      DPH
*SFR* 00000082H   DATA     BYTE      DPL
*SFR* 000000E6H   DATA     BYTE      EIE1
*SFR* 000000E7H   DATA     BYTE      EIE2
*SFR* 000000F6H   DATA     BYTE      EIP1
*SFR* 000000F7H   DATA     BYTE      EIP2
*SFR* 00000085H   DATA     BYTE      EMI0CF
*SFR* 000000AAH   DATA     BYTE      EMI0CN
*SFR* 00000084H   DATA     BYTE      EMI0TC
      01007607H   CODE     ---       enter_DefaultMode_from_RESET
      01000D58H   CODE     ---       Esc1thDatProccess
      0200058EH   XDATA    ---       Esc1thMs
      01002084H   CODE     ---       Esc2thDatPreproccess
      02000670H   XDATA    ---       Esc2thMs
      01002A5AH   CODE     ---       Esc3thDatProccess
      02000764H   XDATA    ---       Esc3thMs
      0100708EH   CODE     ---       EscDatInit
      020007E5H   XDATA    INT       EscDatSum
      020007B0H   XDATA    INT       EscDatSumPre
      010053DFH   CODE     ---       EscDetect
      020006FAH   XDATA    ---       EscMs
      0200077FH   XDATA    ---       EscParam
      020007B3H   XDATA    ---       EscTxParam
      01007A2FH   CODE     ---       EXTINT_0_enter_DefaultMode_from_RESET
*SFR* 000000B7H   DATA     BYTE      FLKEY
*SFR* 000000B6H   DATA     BYTE      FLSCL
*SFR* 000000B3H   DATA     BYTE      HFO0CAL
*SFR* 000000B2H   DATA     BYTE      HFO0CN
      01007A27H   CODE     ---       HFOSC_0_enter_DefaultMode_from_RESET
      02000868H   XDATA    CHAR      i
      02000865H   XDATA    CHAR      IdxChs
      02000A0EH   XDATA    BYTE      IdxStatue
*SFR* 000000A8H   DATA     BYTE      IE
*SFR* 000000A8H.7 DATA     BIT       IE_EA
*SFR* 000000A8H.4 DATA     BIT       IE_ES0
*SFR* 000000A8H.6 DATA     BIT       IE_ESPI0
*SFR* 000000A8H.1 DATA     BIT       IE_ET0
*SFR* 000000A8H.3 DATA     BIT       IE_ET1
*SFR* 000000A8H.5 DATA     BIT       IE_ET2
*SFR* 000000A8H   DATA     BIT       IE_EX0
*SFR* 000000A8H.2 DATA     BIT       IE_EX1
      00000029H   DATA     WORD      InitPulseCnt
      020007E3H   XDATA    BYTE      InPulseIdx
      010075C5H   CODE     ---       INT0_ISR
      01007978H   CODE     ---       INTERRUPT_0_enter_DefaultMode_from_RESET
*SFR* 000000B8H   DATA     BYTE      IP
*SFR* 000000B8H.4 DATA     BIT       IP_PS0
*SFR* 000000B8H.6 DATA     BIT       IP_PSPI0
LX51 LINKER/LOCATER V4.66.66.0                                                        03/09/2017  11:29:19  PAGE 20


*SFR* 000000B8H.1 DATA     BIT       IP_PT0
*SFR* 000000B8H.3 DATA     BIT       IP_PT1
*SFR* 000000B8H.5 DATA     BIT       IP_PT2
*SFR* 000000B8H   DATA     BIT       IP_PX0
*SFR* 000000B8H.2 DATA     BIT       IP_PX1
*SFR* 000000E4H   DATA     BYTE      IT01CF
*SFR* 00000080H.6 DATA     BIT       LCD_CS
      010071C8H   CODE     ---       Lcd_Init
*SFR* 00000080H.2 DATA     BIT       LCD_RS
*SFR* 00000090H.3 DATA     BIT       LCD_RST
*SFR* 00000080H.3 DATA     BIT       LCD_SCK
*SFR* 00000080H.5 DATA     BIT       LCD_SDA
      02000489H   XDATA    BYTE      LcdBw
      010068F3H   CODE     ---       LcdDatInit
      02000004H   XDATA    BYTE      LcdDir
      02000009H   XDATA    ---       LcdDispBuf
      02000089H   XDATA    ---       LcdDispImg
      01004D4AH   CODE     ---       LcdDrawBufferRefresh
      01007A21H   CODE     ---       LcdDrawInit
      02000002H   XDATA    WORD      LcdLeft
      02000000H   XDATA    WORD      LcdRight
      02000005H   XDATA    WORD      LcdXpos
      02000007H   XDATA    WORD      LcdYpos
*SFR* 00000086H   DATA     BYTE      LFO0CN
      0100722BH   CODE     ---       LipoCellsDatInit
      01007686H   CODE     ---       LipoCellsDetect
      02000990H   XDATA    ---       LipoCellsEscMs
      0100791AH   CODE     ---       LipoCellsProcessHandle
      01004A48H   CODE     ---       main
      020006F2H   XDATA    FLOAT     MaxCurr
      020006EEH   XDATA    FLOAT     MaxTemp
      010087E4H   CONST    ---       MenuItemAutoFly
      01008BEDH   CONST    ---       MenuItemAutoFlyMode
      01008C7FH   CONST    ---       MenuItemAutoFlyPitchGain
      01008D10H   CONST    ---       MenuItemAutoFlyRollGain
      01008DA0H   CONST    ---       MenuItemAutoFlyYawGain
      010083EFH   CONST    ---       MenuItemEsc1th
      01008645H   CONST    ---       MenuItemEsc2th
      01008943H   CONST    ---       MenuItemEsc3th
      01008A9CH   CONST    ---       MenuItemParamEsc
      01008B46H   CONST    ---       MenuItemSterring
      01007D61H   CONST    ---       MinFontTableMask
      020006F6H   XDATA    FLOAT     MinVolt
      020007E4H   XDATA    BYTE      OutPulseIdx
*SFR* 00000080H   DATA     BYTE      P0
*SFR* 00000080H   DATA     BIT       P0_B0
*SFR* 00000080H.1 DATA     BIT       P0_B1
*SFR* 00000080H.2 DATA     BIT       P0_B2
*SFR* 00000080H.3 DATA     BIT       P0_B3
*SFR* 00000080H.4 DATA     BIT       P0_B4
*SFR* 00000080H.5 DATA     BIT       P0_B5
*SFR* 00000080H.6 DATA     BIT       P0_B6
*SFR* 00000080H.7 DATA     BIT       P0_B7
*SFR* 000000F1H   DATA     BYTE      P0MDIN
*SFR* 000000A4H   DATA     BYTE      P0MDOUT
*SFR* 000000D4H   DATA     BYTE      P0SKIP
*SFR* 00000090H   DATA     BYTE      P1
*SFR* 00000090H   DATA     BIT       P1_B0
*SFR* 00000090H.1 DATA     BIT       P1_B1
*SFR* 00000090H.2 DATA     BIT       P1_B2
*SFR* 00000090H.3 DATA     BIT       P1_B3
*SFR* 00000090H.4 DATA     BIT       P1_B4
*SFR* 00000090H.5 DATA     BIT       P1_B5
*SFR* 00000090H.6 DATA     BIT       P1_B6
*SFR* 00000090H.7 DATA     BIT       P1_B7
LX51 LINKER/LOCATER V4.66.66.0                                                        03/09/2017  11:29:19  PAGE 21


*SFR* 000000F2H   DATA     BYTE      P1MDIN
*SFR* 000000A5H   DATA     BYTE      P1MDOUT
*SFR* 000000D5H   DATA     BYTE      P1SKIP
*SFR* 000000A0H   DATA     BYTE      P2
*SFR* 000000A0H   DATA     BIT       P2_B0
*SFR* 000000A0H.1 DATA     BIT       P2_B1
*SFR* 000000A0H.2 DATA     BIT       P2_B2
*SFR* 000000A0H.3 DATA     BIT       P2_B3
*SFR* 000000A0H.4 DATA     BIT       P2_B4
*SFR* 000000A0H.5 DATA     BIT       P2_B5
*SFR* 000000A0H.6 DATA     BIT       P2_B6
*SFR* 000000A0H.7 DATA     BIT       P2_B7
*SFR* 000000F3H   DATA     BYTE      P2MDIN
*SFR* 000000A6H   DATA     BYTE      P2MDOUT
*SFR* 000000D6H   DATA     BYTE      P2SKIP
*SFR* 000000B0H   DATA     BYTE      P3
*SFR* 000000B0H   DATA     BIT       P3_B0
*SFR* 000000B0H.1 DATA     BIT       P3_B1
*SFR* 000000B0H.2 DATA     BIT       P3_B2
*SFR* 000000B0H.3 DATA     BIT       P3_B3
*SFR* 000000B0H.4 DATA     BIT       P3_B4
*SFR* 000000B0H.5 DATA     BIT       P3_B5
*SFR* 000000B0H.6 DATA     BIT       P3_B6
*SFR* 000000B0H.7 DATA     BIT       P3_B7
*SFR* 000000F4H   DATA     BYTE      P3MDIN
*SFR* 000000A7H   DATA     BYTE      P3MDOUT
*SFR* 000000DFH   DATA     BYTE      P3SKIP
*SFR* 000000C7H   DATA     BYTE      P4
*SFR* 000000F5H   DATA     BYTE      P4MDIN
*SFR* 000000AEH   DATA     BYTE      P4MDOUT
      01007E29H   CONST    ---       PageMainBmp
      01005164H   CODE     ---       PageMenuStatDatInit
      01008C79H   CONST    ---       PageOptionAutoFlyPitchGain
      01008D9AH   CONST    ---       PageOptionAutoFlyYawGain
      01008BE1H   CONST    ---       PageOptionFlyMode
      01008D0AH   CONST    ---       PageOptionGainDir
      010087CFH   CONST    ---       PageOptionMountingDir
      01008B37H   CONST    ---       PageOptionSterringMode
      01008BD5H   CONST    ---       PageOptionSwitch
      010087DBH   CONST    ---       PageOptionWingType
      00000040H   DATA     WORD      PageStablizerBindTickCnt
      0000003FH   DATA     BYTE      PageStablizerBindTickOverFlow
      00000013H   DATA     ---       PageStack
      00000012H   DATA     BYTE      PageStackIdx
      010048A9H   CODE     ---       ParamEscDatProccess
      01007A0CH   CODE     ---       PBCFG_0_enter_DefaultMode_from_RESET
*SFR* 000000F9H   DATA     WORD      PCA0
*SFR* 000000D8H   DATA     BYTE      PCA0CN0
*SFR* 000000D8H   DATA     BIT       PCA0CN0_CCF0
*SFR* 000000D8H.1 DATA     BIT       PCA0CN0_CCF1
*SFR* 000000D8H.2 DATA     BIT       PCA0CN0_CCF2
*SFR* 000000D8H.3 DATA     BIT       PCA0CN0_CCF3
*SFR* 000000D8H.4 DATA     BIT       PCA0CN0_CCF4
*SFR* 000000D8H.7 DATA     BIT       PCA0CN0_CF
*SFR* 000000D8H.6 DATA     BIT       PCA0CN0_CR
*SFR* 000000FBH   DATA     WORD      PCA0CP0
*SFR* 000000E9H   DATA     WORD      PCA0CP1
*SFR* 000000EBH   DATA     WORD      PCA0CP2
*SFR* 000000EDH   DATA     WORD      PCA0CP3
*SFR* 000000FDH   DATA     WORD      PCA0CP4
*SFR* 000000FCH   DATA     BYTE      PCA0CPH0
*SFR* 000000EAH   DATA     BYTE      PCA0CPH1
*SFR* 000000ECH   DATA     BYTE      PCA0CPH2
*SFR* 000000EEH   DATA     BYTE      PCA0CPH3
*SFR* 000000FEH   DATA     BYTE      PCA0CPH4
LX51 LINKER/LOCATER V4.66.66.0                                                        03/09/2017  11:29:19  PAGE 22


*SFR* 000000FBH   DATA     BYTE      PCA0CPL0
*SFR* 000000E9H   DATA     BYTE      PCA0CPL1
*SFR* 000000EBH   DATA     BYTE      PCA0CPL2
*SFR* 000000EDH   DATA     BYTE      PCA0CPL3
*SFR* 000000FDH   DATA     BYTE      PCA0CPL4
*SFR* 000000DAH   DATA     BYTE      PCA0CPM0
*SFR* 000000DBH   DATA     BYTE      PCA0CPM1
*SFR* 000000DCH   DATA     BYTE      PCA0CPM2
*SFR* 000000DDH   DATA     BYTE      PCA0CPM3
*SFR* 000000DEH   DATA     BYTE      PCA0CPM4
*SFR* 000000FAH   DATA     BYTE      PCA0H
*SFR* 000000F9H   DATA     BYTE      PCA0L
*SFR* 000000D9H   DATA     BYTE      PCA0MD
      010079DAH   CODE     ---       PCA_0_enter_DefaultMode_from_RESET
      0100000AH   CODE     ---       PCACH_0_enter_DefaultMode_from_RESET
      01000006H   CODE     ---       PCACH_4_enter_DefaultMode_from_RESET
*SFR* 00000087H   DATA     BYTE      PCON0
*SFR* 000000AFH   DATA     BYTE      PFE0CN
      020007B2H   XDATA    BYTE      PgmStatus
      010079E4H   CODE     ---       PORTS_0_enter_DefaultMode_from_RESET
      010079EEH   CODE     ---       PORTS_1_enter_DefaultMode_from_RESET
      010079F8H   CODE     ---       PORTS_2_enter_DefaultMode_from_RESET
*SFR* 0000008FH   DATA     BYTE      PSCTL
*SFR* 000000D0H   DATA     BYTE      PSW
*SFR* 000000D0H.6 DATA     BIT       PSW_AC
*SFR* 000000D0H.7 DATA     BIT       PSW_CY
*SFR* 000000D0H.5 DATA     BIT       PSW_F0
*SFR* 000000D0H.1 DATA     BIT       PSW_F1
*SFR* 000000D0H.2 DATA     BIT       PSW_OV
*SFR* 000000D0H   DATA     BIT       PSW_PARITY
*SFR* 000000D0H.3 DATA     BIT       PSW_RS0
*SFR* 000000D0H.4 DATA     BIT       PSW_RS1
      00000022H   DATA     BYTE      PwmOnRef
      00000023H   DATA     INT       PwmOutCnt
      00000025H   DATA     INT       PwmOutNum
*SFR* 00000080H.4 DATA     BIT       RC_OUT
*SFR* 000000D1H   DATA     BYTE      REF0CN
*SFR* 000000C9H   DATA     BYTE      REG01CN
*SFR* 000000EFH   DATA     BYTE      RSTSRC
      020007AFH   XDATA    BYTE      RxDataEnable
      02000810H   XDATA    BYTE      RxDatHandle
      0200080DH   XDATA    BYTE      RxPackageCnt
      0200082EH   XDATA    BYTE      RxPackageData
      0200082DH   XDATA    BYTE      RxPackageLength
      02000811H   XDATA    ---       RxSocketDat
      01003D6AH   CODE     ---       RxSocketDeCode
      010066F1H   CODE     ---       RxSocketHandler
      0200082FH   XDATA    BYTE      RxStatusIdx
      020007E8H   XDATA    BYTE      RxTxStatue
*SFR* 000000ACH   DATA     BYTE      SBCON1
*SFR* 000000B4H   DATA     WORD      SBRL1
*SFR* 000000B5H   DATA     BYTE      SBRLH1
*SFR* 000000B4H   DATA     BYTE      SBRLL1
*SFR* 00000099H   DATA     BYTE      SBUF0
*SFR* 000000D3H   DATA     BYTE      SBUF1
*SFR* 00000098H   DATA     BYTE      SCON0
*SFR* 00000098H.5 DATA     BIT       SCON0_MCE
*SFR* 00000098H.2 DATA     BIT       SCON0_RB8
*SFR* 00000098H.4 DATA     BIT       SCON0_REN
*SFR* 00000098H   DATA     BIT       SCON0_RI
*SFR* 00000098H.7 DATA     BIT       SCON0_SMODE
*SFR* 00000098H.3 DATA     BIT       SCON0_TB8
*SFR* 00000098H.1 DATA     BIT       SCON0_TI
*SFR* 000000D2H   DATA     BYTE      SCON1
*SFR* 000000BFH   DATA     BYTE      SFRPAGE
LX51 LINKER/LOCATER V4.66.66.0                                                        03/09/2017  11:29:19  PAGE 23


      020005A8H   XDATA    ---       ShowText1thActiveFw
      02000552H   XDATA    ---       ShowText1thAirBecVoltage
      0200048AH   XDATA    ---       ShowText1thAirCutVoltage
      0200049EH   XDATA    ---       ShowText1thAirLipoCells
      0200057AH   XDATA    ---       ShowText1thArReStartTime
      020004B2H   XDATA    ---       ShowText1thArTime
      020004DAH   XDATA    ---       ShowText1thBrakeForce
      02000566H   XDATA    ---       ShowText1thBrakeType
      020004C6H   XDATA    ---       ShowText1thCutType
      02000502H   XDATA    ---       ShowText1thFlightMode
      0200052AH   XDATA    ---       ShowText1thGovParamI
      0200053EH   XDATA    ---       ShowText1thGovParamP
      02000594H   XDATA    ---       ShowText1thRotateDirection
      020004EEH   XDATA    ---       ShowText1thStartUpTime
      02000516H   XDATA    ---       ShowText1thTiming
      020005D0H   XDATA    ---       ShowText2thBecVoltage
      02000620H   XDATA    ---       ShowText2thCutVoltage
      020005E4H   XDATA    ---       ShowText2thDragBrake
      020005F8H   XDATA    ---       ShowText2thEscThermal
      02000648H   XDATA    ---       ShowText2thLipoCells
      0200065CH   XDATA    ---       ShowText2thMaxBrake
      02000634H   XDATA    ---       ShowText2thMaxReverse
      0200060CH   XDATA    ---       ShowText2thPunch
      020005BCH   XDATA    ---       ShowText2thRunMode
      02000750H   XDATA    ---       ShowText3thBatteryType
      02000714H   XDATA    ---       ShowText3thBrake
      02000728H   XDATA    ---       ShowText3thCutOffType
      02000700H   XDATA    ---       ShowText3thCutOffVoltage
      020006DAH   XDATA    ---       ShowText3thFirmware
      0200069EH   XDATA    ---       ShowText3thHardware
      0200068AH   XDATA    ---       ShowText3thSoftWare
      0200076AH   XDATA    ---       ShowText3thStartMode
      0200073CH   XDATA    ---       ShowText3thTimingMode
      020006B2H   XDATA    ---       ShowTextMaxCurr
      02000676H   XDATA    ---       ShowTextMaxTemp
      020006C6H   XDATA    ---       ShowTextMinVolt
*SFR* 000000CEH   DATA     BYTE      SMB0ADM
*SFR* 000000CFH   DATA     BYTE      SMB0ADR
*SFR* 000000C1H   DATA     BYTE      SMB0CF
*SFR* 000000C0H   DATA     BYTE      SMB0CN0
*SFR* 000000C0H.1 DATA     BIT       SMB0CN0_ACK
*SFR* 000000C0H.3 DATA     BIT       SMB0CN0_ACKRQ
*SFR* 000000C0H.2 DATA     BIT       SMB0CN0_ARBLOST
*SFR* 000000C0H.7 DATA     BIT       SMB0CN0_MASTER
*SFR* 000000C0H   DATA     BIT       SMB0CN0_SI
*SFR* 000000C0H.5 DATA     BIT       SMB0CN0_STA
*SFR* 000000C0H.4 DATA     BIT       SMB0CN0_STO
*SFR* 000000C0H.6 DATA     BIT       SMB0CN0_TXMODE
*SFR* 000000C2H   DATA     BYTE      SMB0DAT
*SFR* 000000CEH   DATA     BYTE      SMB1ADM
*SFR* 000000CFH   DATA     BYTE      SMB1ADR
*SFR* 000000C1H   DATA     BYTE      SMB1CF
*SFR* 000000C0H   DATA     BYTE      SMB1CN0
*SFR* 000000C0H.1 DATA     BIT       SMB1CN0_ACK
*SFR* 000000C0H.3 DATA     BIT       SMB1CN0_ACKRQ
*SFR* 000000C0H.2 DATA     BIT       SMB1CN0_ARBLOST
*SFR* 000000C0H.7 DATA     BIT       SMB1CN0_MASTER
*SFR* 000000C0H   DATA     BIT       SMB1CN0_SI
*SFR* 000000C0H.5 DATA     BIT       SMB1CN0_STA
*SFR* 000000C0H.4 DATA     BIT       SMB1CN0_STO
*SFR* 000000C0H.6 DATA     BIT       SMB1CN0_TXMODE
*SFR* 000000C2H   DATA     BYTE      SMB1DAT
*SFR* 000000B9H   DATA     BYTE      SMBTC
*SFR* 000000E5H   DATA     BYTE      SMOD1
*SFR* 00000081H   DATA     BYTE      SP
LX51 LINKER/LOCATER V4.66.66.0                                                        03/09/2017  11:29:19  PAGE 24


*SFR* 000000A1H   DATA     BYTE      SPI0CFG
*SFR* 000000A2H   DATA     BYTE      SPI0CKR
*SFR* 000000F8H   DATA     BYTE      SPI0CN0
*SFR* 000000F8H.5 DATA     BIT       SPI0CN0_MODF
*SFR* 000000F8H.2 DATA     BIT       SPI0CN0_NSSMD0
*SFR* 000000F8H.3 DATA     BIT       SPI0CN0_NSSMD1
*SFR* 000000F8H.4 DATA     BIT       SPI0CN0_RXOVRN
*SFR* 000000F8H   DATA     BIT       SPI0CN0_SPIEN
*SFR* 000000F8H.7 DATA     BIT       SPI0CN0_SPIF
*SFR* 000000F8H.1 DATA     BIT       SPI0CN0_TXBMT
*SFR* 000000F8H.6 DATA     BIT       SPI0CN0_WCOL
*SFR* 000000A3H   DATA     BYTE      SPI0DAT
      020007E9H   XDATA    ---       StabilizerParam
      010067A5H   CODE     ---       StablizerDatInit
      01006D0FH   CODE     ---       StablizerDetect
      01006E1DH   CODE     ---       StablizerProcessHandle
      00000038H   DATA     WORD      StablizerTickCnt
      00000034H   DATA     BYTE      StablizerTickOverFlow
      0100780CH   CODE     ---       SterringDatInit
      010079BDH   CODE     ---       SterringDetect
      020009B4H   XDATA    ---       SterringMs
      02000978H   XDATA    ---       SterringParam
      01000051H   CODE     ---       SterringProcessHandle
      0000002DH   DATA     WORD      SterringPwmCnt
      0000002FH   DATA     WORD      SterringPwmPeriod
      0000002BH   DATA     WORD      SterringPwmPulse
      00000033H   DATA     BYTE      SterringStepState
      00000031H   DATA     WORD      SterringTickTime
      0200080EH   XDATA    INT       Sum
      0200082BH   XDATA    INT       SumPre
      010074B0H   CODE     ---       SysDatInit
      020008E8H   XDATA    WORD      SysModuleEnable
      020008E6H   XDATA    WORD      SysTaskHandle
*SFR* 00000088H   DATA     BYTE      TCON
*SFR* 00000088H.1 DATA     BIT       TCON_IE0
*SFR* 00000088H.3 DATA     BIT       TCON_IE1
*SFR* 00000088H   DATA     BIT       TCON_IT0
*SFR* 00000088H.2 DATA     BIT       TCON_IT1
*SFR* 00000088H.5 DATA     BIT       TCON_TF0
*SFR* 00000088H.7 DATA     BIT       TCON_TF1
*SFR* 00000088H.4 DATA     BIT       TCON_TR0
*SFR* 00000088H.6 DATA     BIT       TCON_TR1
*SFR* 0000008CH   DATA     BYTE      TH0
*SFR* 0000008DH   DATA     BYTE      TH1
      00000042H   DATA     WORD      TickCnt1ms
      010077E1H   CODE     ---       TIMER01_0_enter_DefaultMode_from_RESET
      01005D48H   CODE     ---       TIMER0_ISR
      0100785EH   CODE     ---       TIMER16_2_enter_DefaultMode_from_RESET
      01007880H   CODE     ---       TIMER16_3_enter_DefaultMode_from_RESET
      0100741DH   CODE     ---       TIMER1_ISR
      01007161H   CODE     ---       TIMER2_ISR
      01004707H   CODE     ---       TIMER3_ISR
      01007A02H   CODE     ---       TIMER_SETUP_0_enter_DefaultMode_from_RESET
*SFR* 0000008AH   DATA     BYTE      TL0
*SFR* 0000008BH   DATA     BYTE      TL1
*SFR* 00000089H   DATA     BYTE      TMOD
*SFR* 000000CCH   DATA     WORD      TMR2
*SFR* 000000C8H   DATA     BYTE      TMR2CN0
*SFR* 000000C8H.1 DATA     BIT       TMR2CN0_T2CSS
*SFR* 000000C8H.3 DATA     BIT       TMR2CN0_T2SPLIT
*SFR* 000000C8H   DATA     BIT       TMR2CN0_T2XCLK
*SFR* 000000C8H.4 DATA     BIT       TMR2CN0_TF2CEN
*SFR* 000000C8H.7 DATA     BIT       TMR2CN0_TF2H
*SFR* 000000C8H.6 DATA     BIT       TMR2CN0_TF2L
*SFR* 000000C8H.5 DATA     BIT       TMR2CN0_TF2LEN
LX51 LINKER/LOCATER V4.66.66.0                                                        03/09/2017  11:29:19  PAGE 25


*SFR* 000000C8H.2 DATA     BIT       TMR2CN0_TR2
*SFR* 000000CDH   DATA     BYTE      TMR2H
*SFR* 000000CCH   DATA     BYTE      TMR2L
*SFR* 000000CAH   DATA     WORD      TMR2RL
*SFR* 000000CBH   DATA     BYTE      TMR2RLH
*SFR* 000000CAH   DATA     BYTE      TMR2RLL
*SFR* 00000094H   DATA     WORD      TMR3
*SFR* 00000091H   DATA     BYTE      TMR3CN0
*SFR* 00000095H   DATA     BYTE      TMR3H
*SFR* 00000094H   DATA     BYTE      TMR3L
*SFR* 00000092H   DATA     WORD      TMR3RL
*SFR* 00000093H   DATA     BYTE      TMR3RLH
*SFR* 00000092H   DATA     BYTE      TMR3RLL
*SFR* 00000094H   DATA     WORD      TMR4
*SFR* 00000091H   DATA     BYTE      TMR4CN0
*SFR* 00000095H   DATA     BYTE      TMR4H
*SFR* 00000094H   DATA     BYTE      TMR4L
*SFR* 00000092H   DATA     WORD      TMR4RL
*SFR* 00000093H   DATA     BYTE      TMR4RLH
*SFR* 00000092H   DATA     BYTE      TMR4RLL
*SFR* 000000CCH   DATA     WORD      TMR5
*SFR* 000000C8H   DATA     BYTE      TMR5CN0
*SFR* 000000C8H.3 DATA     BIT       TMR5CN0_T5SPLIT
*SFR* 000000C8H   DATA     BIT       TMR5CN0_T5XCLK
*SFR* 000000C8H.7 DATA     BIT       TMR5CN0_TF5H
*SFR* 000000C8H.6 DATA     BIT       TMR5CN0_TF5L
*SFR* 000000C8H.5 DATA     BIT       TMR5CN0_TF5LEN
*SFR* 000000C8H.2 DATA     BIT       TMR5CN0_TR5
*SFR* 000000CDH   DATA     BYTE      TMR5H
*SFR* 000000CCH   DATA     BYTE      TMR5L
*SFR* 000000CAH   DATA     WORD      TMR5RL
*SFR* 000000CBH   DATA     BYTE      TMR5RLH
*SFR* 000000CAH   DATA     BYTE      TMR5RLL
      020007E7H   XDATA    BYTE      TxInitPulse
      0200077EH   XDATA    BYTE      TxNextDelayCnt
      0200081EH   XDATA    ---       TxSocketDat
      020008DAH   XDATA    ---       TxSys
      01005F4CH   CODE     ---       UART1_ISR
      0100772DH   CODE     ---       UART1_Read_Encode
      01004377H   CODE     ---       UART1_Write_Encode
      0100001EH   CODE     ---       UARTE_1_enter_DefaultMode_from_RESET
*SFR* 00000096H   DATA     BYTE      USB0ADR
*SFR* 00000097H   DATA     BYTE      USB0DAT
*SFR* 000000D7H   DATA     BYTE      USB0XCN
*SFR* 000000FFH   DATA     BYTE      VDM0CN
*SFR* 000000E1H   DATA     BYTE      XBR0
*SFR* 000000E2H   DATA     BYTE      XBR1
*SFR* 000000E3H   DATA     BYTE      XBR2
*SFR* 000000B1H   DATA     BYTE      XOSC0CN



SYMBOL TABLE OF MODULE:  .\Objects\Keil_Silicon (INITDEVICE)

      VALUE       REP       CLASS    TYPE      SYMBOL NAME
      ====================================================
      ---         MODULE    ---      ---       INITDEVICE
      01007978H   PUBLIC    CODE     ---       INTERRUPT_0_enter_DefaultMode_from_RESET
      01007A2FH   PUBLIC    CODE     ---       EXTINT_0_enter_DefaultMode_from_RESET
      0100001EH   PUBLIC    CODE     ---       UARTE_1_enter_DefaultMode_from_RESET
      01007A02H   PUBLIC    CODE     ---       TIMER_SETUP_0_enter_DefaultMode_from_RESET
      01007880H   PUBLIC    CODE     ---       TIMER16_3_enter_DefaultMode_from_RESET
      0100785EH   PUBLIC    CODE     ---       TIMER16_2_enter_DefaultMode_from_RESET
      010077E1H   PUBLIC    CODE     ---       TIMER01_0_enter_DefaultMode_from_RESET
      01007A2BH   PUBLIC    CODE     ---       CLOCK_0_enter_DefaultMode_from_RESET
LX51 LINKER/LOCATER V4.66.66.0                                                        03/09/2017  11:29:19  PAGE 26


      01007A27H   PUBLIC    CODE     ---       HFOSC_0_enter_DefaultMode_from_RESET
      0100000EH   PUBLIC    CODE     ---       ADC_0_enter_DefaultMode_from_RESET
      01007A0CH   PUBLIC    CODE     ---       PBCFG_0_enter_DefaultMode_from_RESET
      010079F8H   PUBLIC    CODE     ---       PORTS_2_enter_DefaultMode_from_RESET
      010079EEH   PUBLIC    CODE     ---       PORTS_1_enter_DefaultMode_from_RESET
      010079E4H   PUBLIC    CODE     ---       PORTS_0_enter_DefaultMode_from_RESET
      01000006H   PUBLIC    CODE     ---       PCACH_4_enter_DefaultMode_from_RESET
      0100000AH   PUBLIC    CODE     ---       PCACH_0_enter_DefaultMode_from_RESET
      010079DAH   PUBLIC    CODE     ---       PCA_0_enter_DefaultMode_from_RESET
      01007607H   PUBLIC    CODE     ---       enter_DefaultMode_from_RESET
      000000A2H   SFRSYM    DATA     BYTE      SPI0CKR
      00000080H   SFRSYM    DATA     BYTE      P0
      000000D0H.2 SFRSYM    DATA     BIT       PSW_OV
      000000B1H   SFRSYM    DATA     BYTE      XOSC0CN
      00000090H   SFRSYM    DATA     BYTE      P1
      000000A0H   SFRSYM    DATA     BYTE      P2
      000000B0H   SFRSYM    DATA     BYTE      P3
      000000BCH   SFRSYM    DATA     BYTE      ADC0CF
      000000C8H   SFRSYM    DATA     BIT       TMR2CN0_T2XCLK
      000000C7H   SFRSYM    DATA     BYTE      P4
      000000C0H.7 SFRSYM    DATA     BIT       SMB0CN0_MASTER
      000000F9H   SFRSYM    DATA     WORD      PCA0
      000000E6H   SFRSYM    DATA     BYTE      EIE1
      000000C0H.7 SFRSYM    DATA     BIT       SMB1CN0_MASTER
      000000C0H.1 SFRSYM    DATA     BIT       SMB0CN0_ACK
      000000D7H   SFRSYM    DATA     BYTE      USB0XCN
      000000E7H   SFRSYM    DATA     BYTE      EIE2
      000000C0H.1 SFRSYM    DATA     BIT       SMB1CN0_ACK
      0000008FH   SFRSYM    DATA     BYTE      PSCTL
      000000E4H   SFRSYM    DATA     BYTE      IT01CF
      000000C8H   SFRSYM    DATA     BIT       TMR5CN0_T5XCLK
      000000C0H.6 SFRSYM    DATA     BIT       SMB0CN0_TXMODE
      000000C0H.6 SFRSYM    DATA     BIT       SMB1CN0_TXMODE
      000000BFH   SFRSYM    DATA     BYTE      SFRPAGE
      000000A4H   SFRSYM    DATA     BYTE      P0MDOUT
      000000A5H   SFRSYM    DATA     BYTE      P1MDOUT
      000000E8H.5 SFRSYM    DATA     BIT       ADC0CN0_ADINT
      000000CBH   SFRSYM    DATA     BYTE      TMR2RLH
      000000A6H   SFRSYM    DATA     BYTE      P2MDOUT
      000000A8H   SFRSYM    DATA     BYTE      IE
      00000093H   SFRSYM    DATA     BYTE      TMR3RLH
      000000A7H   SFRSYM    DATA     BYTE      P3MDOUT
      00000093H   SFRSYM    DATA     BYTE      TMR4RLH
      000000AEH   SFRSYM    DATA     BYTE      P4MDOUT
      000000F6H   SFRSYM    DATA     BYTE      EIP1
      000000CBH   SFRSYM    DATA     BYTE      TMR5RLH
      000000F7H   SFRSYM    DATA     BYTE      EIP2
      00000098H.2 SFRSYM    DATA     BIT       SCON0_RB8
      000000CAH   SFRSYM    DATA     BYTE      TMR2RLL
      000000FCH   SFRSYM    DATA     BYTE      PCA0CPH0
      00000092H   SFRSYM    DATA     BYTE      TMR3RLL
      000000EAH   SFRSYM    DATA     BYTE      PCA0CPH1
      00000098H.3 SFRSYM    DATA     BIT       SCON0_TB8
      000000F0H   SFRSYM    DATA     BIT       B_B0
      00000082H   SFRSYM    DATA     WORD      DP
      00000092H   SFRSYM    DATA     BYTE      TMR4RLL
      000000ECH   SFRSYM    DATA     BYTE      PCA0CPH2
      000000F0H.1 SFRSYM    DATA     BIT       B_B1
      000000C3H   SFRSYM    DATA     WORD      ADC0GT
      000000CAH   SFRSYM    DATA     BYTE      TMR5RLL
      000000EEH   SFRSYM    DATA     BYTE      PCA0CPH3
      000000F0H.2 SFRSYM    DATA     BIT       B_B2
      000000FBH   SFRSYM    DATA     BYTE      PCA0CPL0
      000000FEH   SFRSYM    DATA     BYTE      PCA0CPH4
      00000085H   SFRSYM    DATA     BYTE      EMI0CF
LX51 LINKER/LOCATER V4.66.66.0                                                        03/09/2017  11:29:19  PAGE 27


      000000F0H.3 SFRSYM    DATA     BIT       B_B3
      000000D9H   SFRSYM    DATA     BYTE      PCA0MD
      000000DAH   SFRSYM    DATA     BYTE      PCA0CPM0
      000000E9H   SFRSYM    DATA     BYTE      PCA0CPL1
      000000F0H.4 SFRSYM    DATA     BIT       B_B4
      000000DBH   SFRSYM    DATA     BYTE      PCA0CPM1
      000000EBH   SFRSYM    DATA     BYTE      PCA0CPL2
      000000F0H.5 SFRSYM    DATA     BIT       B_B5
      000000DCH   SFRSYM    DATA     BYTE      PCA0CPM2
      000000EDH   SFRSYM    DATA     BYTE      PCA0CPL3
      000000B8H   SFRSYM    DATA     BYTE      IP
      000000F0H.6 SFRSYM    DATA     BIT       B_B6
      000000C5H   SFRSYM    DATA     WORD      ADC0LT
      000000DDH   SFRSYM    DATA     BYTE      PCA0CPM3
      000000FDH   SFRSYM    DATA     BYTE      PCA0CPL4
      00000098H.5 SFRSYM    DATA     BIT       SCON0_MCE
      000000F0H.7 SFRSYM    DATA     BIT       B_B7
      000000DEH   SFRSYM    DATA     BYTE      PCA0CPM4
      000000E1H   SFRSYM    DATA     BYTE      XBR0
      000000C1H   SFRSYM    DATA     BYTE      SMB0CF
      000000E2H   SFRSYM    DATA     BYTE      XBR1
      000000C1H   SFRSYM    DATA     BYTE      SMB1CF
      000000AFH   SFRSYM    DATA     BYTE      PFE0CN
      000000AAH   SFRSYM    DATA     BYTE      EMI0CN
      000000C0H.5 SFRSYM    DATA     BIT       SMB0CN0_STA
      000000E3H   SFRSYM    DATA     BYTE      XBR2
      000000C0H.5 SFRSYM    DATA     BIT       SMB1CN0_STA
      000000E0H   SFRSYM    DATA     BIT       ACC_ACC0
      000000D1H   SFRSYM    DATA     BYTE      REF0CN
      000000B2H   SFRSYM    DATA     BYTE      HFO0CN
      0000008EH   SFRSYM    DATA     BYTE      CKCON0
      000000E0H.1 SFRSYM    DATA     BIT       ACC_ACC1
      000000E4H   SFRSYM    DATA     BYTE      CKCON1
      000000C8H.2 SFRSYM    DATA     BIT       TMR2CN0_TR2
      000000E0H.2 SFRSYM    DATA     BIT       ACC_ACC2
      000000E0H.3 SFRSYM    DATA     BIT       ACC_ACC3
      00000081H   SFRSYM    DATA     BYTE      SP
      0000009DH   SFRSYM    DATA     BYTE      CMP0MD
      000000E0H.4 SFRSYM    DATA     BIT       ACC_ACC4
      00000086H   SFRSYM    DATA     BYTE      LFO0CN
      00000084H   SFRSYM    DATA     BYTE      EMI0TC
      0000009CH   SFRSYM    DATA     BYTE      CMP1MD
      000000D8H   SFRSYM    DATA     BIT       PCA0CN0_CCF0
      000000E0H.5 SFRSYM    DATA     BIT       ACC_ACC5
      000000D8H.1 SFRSYM    DATA     BIT       PCA0CN0_CCF1
      000000E0H.6 SFRSYM    DATA     BIT       ACC_ACC6
      000000CCH   SFRSYM    DATA     WORD      TMR2
      000000D8H.2 SFRSYM    DATA     BIT       PCA0CN0_CCF2
      000000E0H.7 SFRSYM    DATA     BIT       ACC_ACC7
      00000094H   SFRSYM    DATA     WORD      TMR3
      000000C8H.2 SFRSYM    DATA     BIT       TMR5CN0_TR5
      000000D8H.3 SFRSYM    DATA     BIT       PCA0CN0_CCF3
      00000094H   SFRSYM    DATA     WORD      TMR4
      000000ACH   SFRSYM    DATA     BYTE      SBCON1
      000000D8H.4 SFRSYM    DATA     BIT       PCA0CN0_CCF4
      000000CCH   SFRSYM    DATA     WORD      TMR5
      000000C0H.3 SFRSYM    DATA     BIT       SMB0CN0_ACKRQ
      000000FFH   SFRSYM    DATA     BYTE      VDM0CN
      000000F1H   SFRSYM    DATA     BYTE      P0MDIN
      000000C0H.3 SFRSYM    DATA     BIT       SMB1CN0_ACKRQ
      00000098H.4 SFRSYM    DATA     BIT       SCON0_REN
      000000F2H   SFRSYM    DATA     BYTE      P1MDIN
      000000F3H   SFRSYM    DATA     BYTE      P2MDIN
      000000C0H.4 SFRSYM    DATA     BIT       SMB0CN0_STO
      000000F4H   SFRSYM    DATA     BYTE      P3MDIN
LX51 LINKER/LOCATER V4.66.66.0                                                        03/09/2017  11:29:19  PAGE 28


      000000C0H.4 SFRSYM    DATA     BIT       SMB1CN0_STO
      000000B5H   SFRSYM    DATA     BYTE      SBRLH1
      000000F5H   SFRSYM    DATA     BYTE      P4MDIN
      000000D0H.3 SFRSYM    DATA     BIT       PSW_RS0
      000000D8H.7 SFRSYM    DATA     BIT       PCA0CN0_CF
      000000F8H.4 SFRSYM    DATA     BIT       SPI0CN0_RXOVRN
      000000D0H.4 SFRSYM    DATA     BIT       PSW_RS1
      000000B4H   SFRSYM    DATA     BYTE      SBRLL1
      000000E8H.7 SFRSYM    DATA     BIT       ADC0CN0_ADEN
      00000089H   SFRSYM    DATA     BYTE      TMOD
      00000088H   SFRSYM    DATA     BYTE      TCON
      000000D0H   SFRSYM    DATA     BIT       PSW_PARITY
      000000A8H.4 SFRSYM    DATA     BIT       IE_ES0
      0000009FH   SFRSYM    DATA     BYTE      CMP0MX
      000000A8H.1 SFRSYM    DATA     BIT       IE_ET0
      0000009EH   SFRSYM    DATA     BYTE      CMP1MX
      000000A8H.3 SFRSYM    DATA     BIT       IE_ET1
      000000D4H   SFRSYM    DATA     BYTE      P0SKIP
      000000C8H.1 SFRSYM    DATA     BIT       TMR2CN0_T2CSS
      000000A8H.5 SFRSYM    DATA     BIT       IE_ET2
      000000D5H   SFRSYM    DATA     BYTE      P1SKIP
      000000D6H   SFRSYM    DATA     BYTE      P2SKIP
      000000E8H   SFRSYM    DATA     BYTE      ADC0CN0
      000000A8H   SFRSYM    DATA     BIT       IE_EX0
      000000DFH   SFRSYM    DATA     BYTE      P3SKIP
      000000D8H.6 SFRSYM    DATA     BIT       PCA0CN0_CR
      000000A8H.2 SFRSYM    DATA     BIT       IE_EX1
      00000098H.7 SFRSYM    DATA     BIT       SCON0_SMODE
      000000A9H   SFRSYM    DATA     BYTE      CLKSEL
      000000F8H   SFRSYM    DATA     BIT       SPI0CN0_SPIEN
      000000F0H   SFRSYM    DATA     BYTE      B
      000000BEH   SFRSYM    DATA     BYTE      ADC0H
      000000E8H.6 SFRSYM    DATA     BIT       ADC0CN0_ADTM
      000000CAH   SFRSYM    DATA     WORD      TMR2RL
      000000BDH   SFRSYM    DATA     BYTE      ADC0L
      00000092H   SFRSYM    DATA     WORD      TMR3RL
      00000092H   SFRSYM    DATA     WORD      TMR4RL
      000000D8H   SFRSYM    DATA     BYTE      PCA0CN0
      000000E0H   SFRSYM    DATA     BYTE      ACC
      000000CAH   SFRSYM    DATA     WORD      TMR5RL
      000000FBH   SFRSYM    DATA     WORD      PCA0CP0
      000000E9H   SFRSYM    DATA     WORD      PCA0CP1
      000000EBH   SFRSYM    DATA     WORD      PCA0CP2
      000000EDH   SFRSYM    DATA     WORD      PCA0CP3
      0000008CH   SFRSYM    DATA     BYTE      TH0
      000000B8H.4 SFRSYM    DATA     BIT       IP_PS0
      000000FDH   SFRSYM    DATA     WORD      PCA0CP4
      0000008DH   SFRSYM    DATA     BYTE      TH1
      000000FAH   SFRSYM    DATA     BYTE      PCA0H
      000000B8H.1 SFRSYM    DATA     BIT       IP_PT0
      000000B8H.3 SFRSYM    DATA     BIT       IP_PT1
      000000C0H.2 SFRSYM    DATA     BIT       SMB0CN0_ARBLOST
      000000B8H.5 SFRSYM    DATA     BIT       IP_PT2
      0000008AH   SFRSYM    DATA     BYTE      TL0
      000000F8H.1 SFRSYM    DATA     BIT       SPI0CN0_TXBMT
      000000C0H.2 SFRSYM    DATA     BIT       SMB1CN0_ARBLOST
      000000D0H.5 SFRSYM    DATA     BIT       PSW_F0
      000000A8H.6 SFRSYM    DATA     BIT       IE_ESPI0
      0000008BH   SFRSYM    DATA     BYTE      TL1
      000000F9H   SFRSYM    DATA     BYTE      PCA0L
      000000C0H   SFRSYM    DATA     BIT       SMB0CN0_SI
      000000D0H.1 SFRSYM    DATA     BIT       PSW_F1
      00000080H   SFRSYM    DATA     BIT       P0_B0
      000000B8H   SFRSYM    DATA     BIT       IP_PX0
      000000C9H   SFRSYM    DATA     BYTE      REG01CN
LX51 LINKER/LOCATER V4.66.66.0                                                        03/09/2017  11:29:19  PAGE 29


      000000C0H   SFRSYM    DATA     BIT       SMB1CN0_SI
      00000090H   SFRSYM    DATA     BIT       P1_B0
      00000080H.1 SFRSYM    DATA     BIT       P0_B1
      000000B8H.2 SFRSYM    DATA     BIT       IP_PX1
      0000009BH   SFRSYM    DATA     BYTE      CMP0CN0
      00000088H.1 SFRSYM    DATA     BIT       TCON_IE0
      000000A0H   SFRSYM    DATA     BIT       P2_B0
      00000090H.1 SFRSYM    DATA     BIT       P1_B1
      00000080H.2 SFRSYM    DATA     BIT       P0_B2
      0000009AH   SFRSYM    DATA     BYTE      CMP1CN0
      00000088H.3 SFRSYM    DATA     BIT       TCON_IE1
      000000B0H   SFRSYM    DATA     BIT       P3_B0
      000000A0H.1 SFRSYM    DATA     BIT       P2_B1
      00000090H.2 SFRSYM    DATA     BIT       P1_B2
      00000080H.3 SFRSYM    DATA     BIT       P0_B3
      000000C0H   SFRSYM    DATA     BYTE      SMB0CN0
      000000B0H.1 SFRSYM    DATA     BIT       P3_B1
      000000A0H.2 SFRSYM    DATA     BIT       P2_B2
      00000090H.3 SFRSYM    DATA     BIT       P1_B3
      00000080H.4 SFRSYM    DATA     BIT       P0_B4
      000000C0H   SFRSYM    DATA     BYTE      SMB1CN0
      000000B0H.2 SFRSYM    DATA     BIT       P3_B2
      000000A0H.3 SFRSYM    DATA     BIT       P2_B3
      00000090H.4 SFRSYM    DATA     BIT       P1_B4
      00000080H.5 SFRSYM    DATA     BIT       P0_B5
      000000B0H.3 SFRSYM    DATA     BIT       P3_B3
      000000A0H.4 SFRSYM    DATA     BIT       P2_B4
      00000090H.5 SFRSYM    DATA     BIT       P1_B5
      00000080H.6 SFRSYM    DATA     BIT       P0_B6
      000000B0H.4 SFRSYM    DATA     BIT       P3_B4
      000000A0H.5 SFRSYM    DATA     BIT       P2_B5
      00000090H.6 SFRSYM    DATA     BIT       P1_B6
      00000080H.7 SFRSYM    DATA     BIT       P0_B7
      000000B0H.5 SFRSYM    DATA     BIT       P3_B5
      000000A0H.6 SFRSYM    DATA     BIT       P2_B6
      00000090H.7 SFRSYM    DATA     BIT       P1_B7
      000000B0H.6 SFRSYM    DATA     BIT       P3_B6
      000000A0H.7 SFRSYM    DATA     BIT       P2_B7
      000000B0H.7 SFRSYM    DATA     BIT       P3_B7
      00000083H   SFRSYM    DATA     BYTE      DPH
      000000C4H   SFRSYM    DATA     BYTE      ADC0GTH
      000000C8H.7 SFRSYM    DATA     BIT       TMR2CN0_TF2H
      000000C8H.3 SFRSYM    DATA     BIT       TMR2CN0_T2SPLIT
      000000D0H.6 SFRSYM    DATA     BIT       PSW_AC
      000000F8H   SFRSYM    DATA     BYTE      SPI0CN0
      000000B3H   SFRSYM    DATA     BYTE      HFO0CAL
      00000088H.5 SFRSYM    DATA     BIT       TCON_TF0
      00000098H   SFRSYM    DATA     BIT       SCON0_RI
      00000082H   SFRSYM    DATA     BYTE      DPL
      00000088H.7 SFRSYM    DATA     BIT       TCON_TF1
      00000099H   SFRSYM    DATA     BYTE      SBUF0
      00000087H   SFRSYM    DATA     BYTE      PCON0
      000000C3H   SFRSYM    DATA     BYTE      ADC0GTL
      000000C8H.6 SFRSYM    DATA     BIT       TMR2CN0_TF2L
      00000098H.1 SFRSYM    DATA     BIT       SCON0_TI
      000000E8H   SFRSYM    DATA     BIT       ADC0CN0_ADCM0
      000000D3H   SFRSYM    DATA     BYTE      SBUF1
      000000C6H   SFRSYM    DATA     BYTE      ADC0LTH
      00000088H   SFRSYM    DATA     BIT       TCON_IT0
      000000E8H.1 SFRSYM    DATA     BIT       ADC0CN0_ADCM1
      000000EFH   SFRSYM    DATA     BYTE      RSTSRC
      000000C8H.7 SFRSYM    DATA     BIT       TMR5CN0_TF5H
      000000C8H.3 SFRSYM    DATA     BIT       TMR5CN0_T5SPLIT
      00000088H.2 SFRSYM    DATA     BIT       TCON_IT1
      000000E8H.2 SFRSYM    DATA     BIT       ADC0CN0_ADCM2
LX51 LINKER/LOCATER V4.66.66.0                                                        03/09/2017  11:29:19  PAGE 30


      00000098H   SFRSYM    DATA     BYTE      SCON0
      000000E8H.3 SFRSYM    DATA     BIT       ADC0CN0_ADWINT
      000000B4H   SFRSYM    DATA     WORD      SBRL1
      000000E5H   SFRSYM    DATA     BYTE      SMOD1
      000000D2H   SFRSYM    DATA     BYTE      SCON1
      000000BAH   SFRSYM    DATA     BYTE      AMX0N
      000000E8H.4 SFRSYM    DATA     BIT       ADC0CN0_ADBUSY
      000000CEH   SFRSYM    DATA     BYTE      SMB0ADM
      000000C5H   SFRSYM    DATA     BYTE      ADC0LTL
      000000F8H.5 SFRSYM    DATA     BIT       SPI0CN0_MODF
      000000B8H.6 SFRSYM    DATA     BIT       IP_PSPI0
      000000CEH   SFRSYM    DATA     BYTE      SMB1ADM
      000000BBH   SFRSYM    DATA     BYTE      AMX0P
      000000C8H.6 SFRSYM    DATA     BIT       TMR5CN0_TF5L
      000000C8H   SFRSYM    DATA     BYTE      TMR2CN0
      00000091H   SFRSYM    DATA     BYTE      TMR3CN0
      00000091H   SFRSYM    DATA     BYTE      TMR4CN0
      000000C8H   SFRSYM    DATA     BYTE      TMR5CN0
      000000CFH   SFRSYM    DATA     BYTE      SMB0ADR
      00000088H.4 SFRSYM    DATA     BIT       TCON_TR0
      000000CFH   SFRSYM    DATA     BYTE      SMB1ADR
      000000C8H.4 SFRSYM    DATA     BIT       TMR2CN0_TF2CEN
      00000088H.6 SFRSYM    DATA     BIT       TCON_TR1
      000000C2H   SFRSYM    DATA     BYTE      SMB0DAT
      000000CDH   SFRSYM    DATA     BYTE      TMR2H
      000000A1H   SFRSYM    DATA     BYTE      SPI0CFG
      000000C2H   SFRSYM    DATA     BYTE      SMB1DAT
      00000095H   SFRSYM    DATA     BYTE      TMR3H
      00000095H   SFRSYM    DATA     BYTE      TMR4H
      000000CDH   SFRSYM    DATA     BYTE      TMR5H
      000000CCH   SFRSYM    DATA     BYTE      TMR2L
      000000F8H.7 SFRSYM    DATA     BIT       SPI0CN0_SPIF
      00000096H   SFRSYM    DATA     BYTE      USB0ADR
      00000094H   SFRSYM    DATA     BYTE      TMR3L
      000000A8H.7 SFRSYM    DATA     BIT       IE_EA
      00000094H   SFRSYM    DATA     BYTE      TMR4L
      00000097H   SFRSYM    DATA     BYTE      USB0DAT
      000000CCH   SFRSYM    DATA     BYTE      TMR5L
      000000B6H   SFRSYM    DATA     BYTE      FLSCL
      000000C8H.5 SFRSYM    DATA     BIT       TMR2CN0_TF2LEN
      000000F8H.6 SFRSYM    DATA     BIT       SPI0CN0_WCOL
      000000F8H.2 SFRSYM    DATA     BIT       SPI0CN0_NSSMD0
      000000D0H.7 SFRSYM    DATA     BIT       PSW_CY
      000000A3H   SFRSYM    DATA     BYTE      SPI0DAT
      000000F8H.3 SFRSYM    DATA     BIT       SPI0CN0_NSSMD1
      000000BDH   SFRSYM    DATA     WORD      ADC0
      000000B9H   SFRSYM    DATA     BYTE      SMBTC
      000000D0H   SFRSYM    DATA     BYTE      PSW
      000000C8H.5 SFRSYM    DATA     BIT       TMR5CN0_TF5LEN
      000000B7H   SFRSYM    DATA     BYTE      FLKEY

      01007607H   BLOCK     CODE     ---       LVL=0
      01007607H   BLOCK     CODE     NEAR LAB  LVL=1
      020009F0H   SYMBOL    XDATA    BYTE      SFRPAGE_save
      ---         BLOCKEND  ---      ---       LVL=1
      01007607H   LINE      CODE     ---       #23
      01007607H   LINE      CODE     ---       #26
      0100760DH   LINE      CODE     ---       #27
      01007610H   LINE      CODE     ---       #28
      01007613H   LINE      CODE     ---       #29
      01007616H   LINE      CODE     ---       #30
      01007619H   LINE      CODE     ---       #31
      0100761CH   LINE      CODE     ---       #32
      0100761FH   LINE      CODE     ---       #33
      01007622H   LINE      CODE     ---       #34
LX51 LINKER/LOCATER V4.66.66.0                                                        03/09/2017  11:29:19  PAGE 31


      01007625H   LINE      CODE     ---       #35
      01007628H   LINE      CODE     ---       #36
      0100762BH   LINE      CODE     ---       #37
      0100762EH   LINE      CODE     ---       #38
      01007631H   LINE      CODE     ---       #39
      01007634H   LINE      CODE     ---       #40
      01007637H   LINE      CODE     ---       #41
      0100763AH   LINE      CODE     ---       #42
      0100763DH   LINE      CODE     ---       #43
      01007640H   LINE      CODE     ---       #45
      01007647H   LINE      CODE     ---       #49
      ---         BLOCKEND  ---      ---       LVL=0

      010079DAH   BLOCK     CODE     ---       LVL=0
      010079DAH   LINE      CODE     ---       #55
      010079DAH   LINE      CODE     ---       #66
      010079DDH   LINE      CODE     ---       #67
      010079E0H   LINE      CODE     ---       #68
      010079E3H   LINE      CODE     ---       #82
      ---         BLOCKEND  ---      ---       LVL=0

      0100000AH   BLOCK     CODE     ---       LVL=0
      0100000AH   LINE      CODE     ---       #87
      0100000AH   LINE      CODE     ---       #101
      ---         BLOCKEND  ---      ---       LVL=0

      01000006H   BLOCK     CODE     ---       LVL=0
      01000006H   LINE      CODE     ---       #106
      01000006H   LINE      CODE     ---       #118
      01000009H   LINE      CODE     ---       #133
      ---         BLOCKEND  ---      ---       LVL=0

      010079E4H   BLOCK     CODE     ---       LVL=0
      010079E4H   LINE      CODE     ---       #138
      010079E4H   LINE      CODE     ---       #153
      010079E7H   LINE      CODE     ---       #169
      010079EAH   LINE      CODE     ---       #185
      010079EDH   LINE      CODE     ---       #191
      ---         BLOCKEND  ---      ---       LVL=0

      010079EEH   BLOCK     CODE     ---       LVL=0
      010079EEH   LINE      CODE     ---       #196
      010079EEH   LINE      CODE     ---       #211
      010079F1H   LINE      CODE     ---       #227
      010079F4H   LINE      CODE     ---       #243
      010079F7H   LINE      CODE     ---       #249
      ---         BLOCKEND  ---      ---       LVL=0

      010079F8H   BLOCK     CODE     ---       LVL=0
      010079F8H   LINE      CODE     ---       #254
      010079F8H   LINE      CODE     ---       #269
      010079FBH   LINE      CODE     ---       #285
      010079FEH   LINE      CODE     ---       #301
      01007A01H   LINE      CODE     ---       #307
      ---         BLOCKEND  ---      ---       LVL=0

      01007A0CH   BLOCK     CODE     ---       LVL=0
      01007A0CH   LINE      CODE     ---       #312
      01007A0CH   LINE      CODE     ---       #322
      01007A0FH   LINE      CODE     ---       #334
      01007A12H   LINE      CODE     ---       #338
      ---         BLOCKEND  ---      ---       LVL=0

      0100000EH   BLOCK     CODE     ---       LVL=0
      0100000EH   LINE      CODE     ---       #343
LX51 LINKER/LOCATER V4.66.66.0                                                        03/09/2017  11:29:19  PAGE 32


      0100000EH   LINE      CODE     ---       #349
      01000011H   LINE      CODE     ---       #368
      01000014H   LINE      CODE     ---       #375
      01000017H   LINE      CODE     ---       #382
      0100001AH   LINE      CODE     ---       #386
      ---         BLOCKEND  ---      ---       LVL=0

      01007A27H   BLOCK     CODE     ---       LVL=0
      01007A27H   LINE      CODE     ---       #391
      01007A27H   LINE      CODE     ---       #396
      01007A2AH   LINE      CODE     ---       #400
      ---         BLOCKEND  ---      ---       LVL=0

      01007A2BH   BLOCK     CODE     ---       LVL=0
      01007A2BH   LINE      CODE     ---       #405
      01007A2BH   LINE      CODE     ---       #412
      01007A2EH   LINE      CODE     ---       #416
      ---         BLOCKEND  ---      ---       LVL=0

      010077E1H   BLOCK     CODE     ---       LVL=0
      010077E1H   BLOCK     CODE     NEAR LAB  LVL=1
      020009F1H   SYMBOL    XDATA    BYTE      TCON_save
      ---         BLOCKEND  ---      ---       LVL=1
      010077E1H   LINE      CODE     ---       #421
      010077E1H   LINE      CODE     ---       #425
      010077E7H   LINE      CODE     ---       #427
      010077EAH   LINE      CODE     ---       #435
      010077EDH   LINE      CODE     ---       #445
      010077F0H   LINE      CODE     ---       #452
      010077F3H   LINE      CODE     ---       #457
      0100780BH   LINE      CODE     ---       #462
      ---         BLOCKEND  ---      ---       LVL=0

      0100785EH   BLOCK     CODE     ---       LVL=0
      0100785EH   BLOCK     CODE     NEAR LAB  LVL=1
      020009F2H   SYMBOL    XDATA    BYTE      TMR2CN0_TR2_save
      ---         BLOCKEND  ---      ---       LVL=1
      0100785EH   LINE      CODE     ---       #467
      0100785EH   LINE      CODE     ---       #471
      01007868H   LINE      CODE     ---       #473
      0100786BH   LINE      CODE     ---       #483
      0100786EH   LINE      CODE     ---       #490
      01007871H   LINE      CODE     ---       #497
      01007874H   LINE      CODE     ---       #504
      01007877H   LINE      CODE     ---       #512
      0100787FH   LINE      CODE     ---       #516
      ---         BLOCKEND  ---      ---       LVL=0

      01007880H   BLOCK     CODE     ---       LVL=0
      01007880H   BLOCK     CODE     NEAR LAB  LVL=1
      020009F3H   SYMBOL    XDATA    BYTE      TMR3CN0_TR3_save
      ---         BLOCKEND  ---      ---       LVL=1
      01007880H   LINE      CODE     ---       #521
      01007880H   LINE      CODE     ---       #525
      0100788AH   LINE      CODE     ---       #527
      0100788DH   LINE      CODE     ---       #537
      01007890H   LINE      CODE     ---       #544
      01007893H   LINE      CODE     ---       #551
      01007896H   LINE      CODE     ---       #558
      01007899H   LINE      CODE     ---       #566
      010078A1H   LINE      CODE     ---       #570
      ---         BLOCKEND  ---      ---       LVL=0

      01007A02H   BLOCK     CODE     ---       LVL=0
      01007A02H   LINE      CODE     ---       #575
LX51 LINKER/LOCATER V4.66.66.0                                                        03/09/2017  11:29:19  PAGE 33


      01007A02H   LINE      CODE     ---       #586
      01007A05H   LINE      CODE     ---       #603
      01007A08H   LINE      CODE     ---       #613
      01007A0BH   LINE      CODE     ---       #617
      ---         BLOCKEND  ---      ---       LVL=0

      0100001EH   BLOCK     CODE     ---       LVL=0
      0100001EH   LINE      CODE     ---       #622
      0100001EH   LINE      CODE     ---       #628
      01000021H   LINE      CODE     ---       #638
      01000024H   LINE      CODE     ---       #645
      01000027H   LINE      CODE     ---       #652
      0100002AH   LINE      CODE     ---       #656
      ---         BLOCKEND  ---      ---       LVL=0

      01007A2FH   BLOCK     CODE     ---       LVL=0
      01007A2FH   LINE      CODE     ---       #661
      01007A2FH   LINE      CODE     ---       #669
      01007A32H   LINE      CODE     ---       #674
      ---         BLOCKEND  ---      ---       LVL=0

      01007978H   BLOCK     CODE     ---       LVL=0
      01007978H   LINE      CODE     ---       #679
      01007978H   LINE      CODE     ---       #691
      0100797BH   LINE      CODE     ---       #707
      0100797EH   LINE      CODE     ---       #722
      01007981H   LINE      CODE     ---       #736
      01007984H   LINE      CODE     ---       #748
      01007987H   LINE      CODE     ---       #760
      0100798AH   LINE      CODE     ---       #765
      ---         BLOCKEND  ---      ---       LVL=0

      ---         MODULE    ---      ---       MAIN
      01004A48H   PUBLIC    CODE     ---       main
      01007468H   PUBLIC    CODE     ---       _SysHandleProcess
      000000A2H   SFRSYM    DATA     BYTE      SPI0CKR
      00000080H   SFRSYM    DATA     BYTE      P0
      000000D0H.2 SFRSYM    DATA     BIT       PSW_OV
      000000B1H   SFRSYM    DATA     BYTE      XOSC0CN
      00000090H   SFRSYM    DATA     BYTE      P1
      000000A0H   SFRSYM    DATA     BYTE      P2
      000000B0H   SFRSYM    DATA     BYTE      P3
      000000BCH   SFRSYM    DATA     BYTE      ADC0CF
      000000C8H   SFRSYM    DATA     BIT       TMR2CN0_T2XCLK
      000000C7H   SFRSYM    DATA     BYTE      P4
      000000C0H.7 SFRSYM    DATA     BIT       SMB0CN0_MASTER
      000000F9H   SFRSYM    DATA     WORD      PCA0
      000000E6H   SFRSYM    DATA     BYTE      EIE1
      000000C0H.7 SFRSYM    DATA     BIT       SMB1CN0_MASTER
      000000C0H.1 SFRSYM    DATA     BIT       SMB0CN0_ACK
      000000D7H   SFRSYM    DATA     BYTE      USB0XCN
      000000E7H   SFRSYM    DATA     BYTE      EIE2
      000000C0H.1 SFRSYM    DATA     BIT       SMB1CN0_ACK
      0000008FH   SFRSYM    DATA     BYTE      PSCTL
      000000E4H   SFRSYM    DATA     BYTE      IT01CF
      000000C8H   SFRSYM    DATA     BIT       TMR5CN0_T5XCLK
      000000C0H.6 SFRSYM    DATA     BIT       SMB0CN0_TXMODE
      000000C0H.6 SFRSYM    DATA     BIT       SMB1CN0_TXMODE
      000000BFH   SFRSYM    DATA     BYTE      SFRPAGE
      000000A4H   SFRSYM    DATA     BYTE      P0MDOUT
      00000080H.5 SFRSYM    DATA     BIT       LCD_SDA
      000000A5H   SFRSYM    DATA     BYTE      P1MDOUT
      000000E8H.5 SFRSYM    DATA     BIT       ADC0CN0_ADINT
      000000CBH   SFRSYM    DATA     BYTE      TMR2RLH
      000000A6H   SFRSYM    DATA     BYTE      P2MDOUT
LX51 LINKER/LOCATER V4.66.66.0                                                        03/09/2017  11:29:19  PAGE 34


      000000A8H   SFRSYM    DATA     BYTE      IE
      00000093H   SFRSYM    DATA     BYTE      TMR3RLH
      000000A7H   SFRSYM    DATA     BYTE      P3MDOUT
      00000093H   SFRSYM    DATA     BYTE      TMR4RLH
      000000AEH   SFRSYM    DATA     BYTE      P4MDOUT
      000000F6H   SFRSYM    DATA     BYTE      EIP1
      000000CBH   SFRSYM    DATA     BYTE      TMR5RLH
      000000F7H   SFRSYM    DATA     BYTE      EIP2
      00000098H.2 SFRSYM    DATA     BIT       SCON0_RB8
      000000CAH   SFRSYM    DATA     BYTE      TMR2RLL
      000000FCH   SFRSYM    DATA     BYTE      PCA0CPH0
      00000092H   SFRSYM    DATA     BYTE      TMR3RLL
      000000EAH   SFRSYM    DATA     BYTE      PCA0CPH1
      00000098H.3 SFRSYM    DATA     BIT       SCON0_TB8
      000000F0H   SFRSYM    DATA     BIT       B_B0
      00000082H   SFRSYM    DATA     WORD      DP
      00000092H   SFRSYM    DATA     BYTE      TMR4RLL
      000000ECH   SFRSYM    DATA     BYTE      PCA0CPH2
      000000F0H.1 SFRSYM    DATA     BIT       B_B1
      000000C3H   SFRSYM    DATA     WORD      ADC0GT
      000000CAH   SFRSYM    DATA     BYTE      TMR5RLL
      000000EEH   SFRSYM    DATA     BYTE      PCA0CPH3
      00000080H.3 SFRSYM    DATA     BIT       LCD_SCK
      000000F0H.2 SFRSYM    DATA     BIT       B_B2
      000000FBH   SFRSYM    DATA     BYTE      PCA0CPL0
      000000FEH   SFRSYM    DATA     BYTE      PCA0CPH4
      00000085H   SFRSYM    DATA     BYTE      EMI0CF
      000000F0H.3 SFRSYM    DATA     BIT       B_B3
      000000D9H   SFRSYM    DATA     BYTE      PCA0MD
      000000DAH   SFRSYM    DATA     BYTE      PCA0CPM0
      000000E9H   SFRSYM    DATA     BYTE      PCA0CPL1
      000000F0H.4 SFRSYM    DATA     BIT       B_B4
      000000DBH   SFRSYM    DATA     BYTE      PCA0CPM1
      000000EBH   SFRSYM    DATA     BYTE      PCA0CPL2
      000000F0H.5 SFRSYM    DATA     BIT       B_B5
      000000DCH   SFRSYM    DATA     BYTE      PCA0CPM2
      000000EDH   SFRSYM    DATA     BYTE      PCA0CPL3
      000000B8H   SFRSYM    DATA     BYTE      IP
      000000F0H.6 SFRSYM    DATA     BIT       B_B6
      000000C5H   SFRSYM    DATA     WORD      ADC0LT
      000000DDH   SFRSYM    DATA     BYTE      PCA0CPM3
      000000FDH   SFRSYM    DATA     BYTE      PCA0CPL4
      00000098H.5 SFRSYM    DATA     BIT       SCON0_MCE
      000000F0H.7 SFRSYM    DATA     BIT       B_B7
      000000DEH   SFRSYM    DATA     BYTE      PCA0CPM4
      000000E1H   SFRSYM    DATA     BYTE      XBR0
      000000C1H   SFRSYM    DATA     BYTE      SMB0CF
      000000E2H   SFRSYM    DATA     BYTE      XBR1
      000000C1H   SFRSYM    DATA     BYTE      SMB1CF
      000000AFH   SFRSYM    DATA     BYTE      PFE0CN
      000000AAH   SFRSYM    DATA     BYTE      EMI0CN
      000000C0H.5 SFRSYM    DATA     BIT       SMB0CN0_STA
      000000E3H   SFRSYM    DATA     BYTE      XBR2
      000000C0H.5 SFRSYM    DATA     BIT       SMB1CN0_STA
      000000E0H   SFRSYM    DATA     BIT       ACC_ACC0
      000000D1H   SFRSYM    DATA     BYTE      REF0CN
      000000B2H   SFRSYM    DATA     BYTE      HFO0CN
      0000008EH   SFRSYM    DATA     BYTE      CKCON0
      000000E0H.1 SFRSYM    DATA     BIT       ACC_ACC1
      000000E4H   SFRSYM    DATA     BYTE      CKCON1
      000000C8H.2 SFRSYM    DATA     BIT       TMR2CN0_TR2
      000000E0H.2 SFRSYM    DATA     BIT       ACC_ACC2
      000000E0H.3 SFRSYM    DATA     BIT       ACC_ACC3
      00000081H   SFRSYM    DATA     BYTE      SP
      0000009DH   SFRSYM    DATA     BYTE      CMP0MD
LX51 LINKER/LOCATER V4.66.66.0                                                        03/09/2017  11:29:19  PAGE 35


      000000E0H.4 SFRSYM    DATA     BIT       ACC_ACC4
      00000086H   SFRSYM    DATA     BYTE      LFO0CN
      00000084H   SFRSYM    DATA     BYTE      EMI0TC
      0000009CH   SFRSYM    DATA     BYTE      CMP1MD
      000000D8H   SFRSYM    DATA     BIT       PCA0CN0_CCF0
      000000E0H.5 SFRSYM    DATA     BIT       ACC_ACC5
      000000D8H.1 SFRSYM    DATA     BIT       PCA0CN0_CCF1
      000000E0H.6 SFRSYM    DATA     BIT       ACC_ACC6
      000000CCH   SFRSYM    DATA     WORD      TMR2
      000000D8H.2 SFRSYM    DATA     BIT       PCA0CN0_CCF2
      000000E0H.7 SFRSYM    DATA     BIT       ACC_ACC7
      00000094H   SFRSYM    DATA     WORD      TMR3
      000000C8H.2 SFRSYM    DATA     BIT       TMR5CN0_TR5
      000000D8H.3 SFRSYM    DATA     BIT       PCA0CN0_CCF3
      00000094H   SFRSYM    DATA     WORD      TMR4
      000000ACH   SFRSYM    DATA     BYTE      SBCON1
      000000D8H.4 SFRSYM    DATA     BIT       PCA0CN0_CCF4
      000000CCH   SFRSYM    DATA     WORD      TMR5
      000000C0H.3 SFRSYM    DATA     BIT       SMB0CN0_ACKRQ
      000000FFH   SFRSYM    DATA     BYTE      VDM0CN
      000000F1H   SFRSYM    DATA     BYTE      P0MDIN
      000000C0H.3 SFRSYM    DATA     BIT       SMB1CN0_ACKRQ
      00000098H.4 SFRSYM    DATA     BIT       SCON0_REN
      000000F2H   SFRSYM    DATA     BYTE      P1MDIN
      000000F3H   SFRSYM    DATA     BYTE      P2MDIN
      000000C0H.4 SFRSYM    DATA     BIT       SMB0CN0_STO
      000000F4H   SFRSYM    DATA     BYTE      P3MDIN
      00000090H.3 SFRSYM    DATA     BIT       LCD_RST
      000000C0H.4 SFRSYM    DATA     BIT       SMB1CN0_STO
      000000B5H   SFRSYM    DATA     BYTE      SBRLH1
      000000F5H   SFRSYM    DATA     BYTE      P4MDIN
      000000D0H.3 SFRSYM    DATA     BIT       PSW_RS0
      000000D8H.7 SFRSYM    DATA     BIT       PCA0CN0_CF
      000000F8H.4 SFRSYM    DATA     BIT       SPI0CN0_RXOVRN
      000000D0H.4 SFRSYM    DATA     BIT       PSW_RS1
      000000B4H   SFRSYM    DATA     BYTE      SBRLL1
      000000E8H.7 SFRSYM    DATA     BIT       ADC0CN0_ADEN
      00000089H   SFRSYM    DATA     BYTE      TMOD
      00000088H   SFRSYM    DATA     BYTE      TCON
      000000D0H   SFRSYM    DATA     BIT       PSW_PARITY
      000000A8H.4 SFRSYM    DATA     BIT       IE_ES0
      0000009FH   SFRSYM    DATA     BYTE      CMP0MX
      000000A8H.1 SFRSYM    DATA     BIT       IE_ET0
      0000009EH   SFRSYM    DATA     BYTE      CMP1MX
      000000A8H.3 SFRSYM    DATA     BIT       IE_ET1
      000000D4H   SFRSYM    DATA     BYTE      P0SKIP
      000000C8H.1 SFRSYM    DATA     BIT       TMR2CN0_T2CSS
      000000A8H.5 SFRSYM    DATA     BIT       IE_ET2
      000000D5H   SFRSYM    DATA     BYTE      P1SKIP
      000000D6H   SFRSYM    DATA     BYTE      P2SKIP
      000000E8H   SFRSYM    DATA     BYTE      ADC0CN0
      000000A8H   SFRSYM    DATA     BIT       IE_EX0
      000000DFH   SFRSYM    DATA     BYTE      P3SKIP
      000000D8H.6 SFRSYM    DATA     BIT       PCA0CN0_CR
      000000A8H.2 SFRSYM    DATA     BIT       IE_EX1
      00000098H.7 SFRSYM    DATA     BIT       SCON0_SMODE
      000000A9H   SFRSYM    DATA     BYTE      CLKSEL
      000000F8H   SFRSYM    DATA     BIT       SPI0CN0_SPIEN
      000000F0H   SFRSYM    DATA     BYTE      B
      000000BEH   SFRSYM    DATA     BYTE      ADC0H
      000000E8H.6 SFRSYM    DATA     BIT       ADC0CN0_ADTM
      000000CAH   SFRSYM    DATA     WORD      TMR2RL
      000000BDH   SFRSYM    DATA     BYTE      ADC0L
      00000092H   SFRSYM    DATA     WORD      TMR3RL
      00000092H   SFRSYM    DATA     WORD      TMR4RL
LX51 LINKER/LOCATER V4.66.66.0                                                        03/09/2017  11:29:19  PAGE 36


      000000D8H   SFRSYM    DATA     BYTE      PCA0CN0
      000000E0H   SFRSYM    DATA     BYTE      ACC
      000000CAH   SFRSYM    DATA     WORD      TMR5RL
      000000FBH   SFRSYM    DATA     WORD      PCA0CP0
      00000080H.6 SFRSYM    DATA     BIT       LCD_CS
      000000E9H   SFRSYM    DATA     WORD      PCA0CP1
      000000EBH   SFRSYM    DATA     WORD      PCA0CP2
      000000EDH   SFRSYM    DATA     WORD      PCA0CP3
      0000008CH   SFRSYM    DATA     BYTE      TH0
      000000B8H.4 SFRSYM    DATA     BIT       IP_PS0
      000000FDH   SFRSYM    DATA     WORD      PCA0CP4
      0000008DH   SFRSYM    DATA     BYTE      TH1
      000000FAH   SFRSYM    DATA     BYTE      PCA0H
      000000B8H.1 SFRSYM    DATA     BIT       IP_PT0
      000000B8H.3 SFRSYM    DATA     BIT       IP_PT1
      000000C0H.2 SFRSYM    DATA     BIT       SMB0CN0_ARBLOST
      000000B8H.5 SFRSYM    DATA     BIT       IP_PT2
      0000008AH   SFRSYM    DATA     BYTE      TL0
      000000F8H.1 SFRSYM    DATA     BIT       SPI0CN0_TXBMT
      000000C0H.2 SFRSYM    DATA     BIT       SMB1CN0_ARBLOST
      000000D0H.5 SFRSYM    DATA     BIT       PSW_F0
      000000A8H.6 SFRSYM    DATA     BIT       IE_ESPI0
      0000008BH   SFRSYM    DATA     BYTE      TL1
      000000F9H   SFRSYM    DATA     BYTE      PCA0L
      000000C0H   SFRSYM    DATA     BIT       SMB0CN0_SI
      000000D0H.1 SFRSYM    DATA     BIT       PSW_F1
      00000080H   SFRSYM    DATA     BIT       P0_B0
      000000B8H   SFRSYM    DATA     BIT       IP_PX0
      000000C9H   SFRSYM    DATA     BYTE      REG01CN
      000000C0H   SFRSYM    DATA     BIT       SMB1CN0_SI
      00000090H   SFRSYM    DATA     BIT       P1_B0
      00000080H.1 SFRSYM    DATA     BIT       P0_B1
      000000B8H.2 SFRSYM    DATA     BIT       IP_PX1
      0000009BH   SFRSYM    DATA     BYTE      CMP0CN0
      00000088H.1 SFRSYM    DATA     BIT       TCON_IE0
      000000A0H   SFRSYM    DATA     BIT       P2_B0
      00000090H.1 SFRSYM    DATA     BIT       P1_B1
      00000080H.2 SFRSYM    DATA     BIT       P0_B2
      0000009AH   SFRSYM    DATA     BYTE      CMP1CN0
      00000088H.3 SFRSYM    DATA     BIT       TCON_IE1
      000000B0H   SFRSYM    DATA     BIT       P3_B0
      000000A0H.1 SFRSYM    DATA     BIT       P2_B1
      00000090H.2 SFRSYM    DATA     BIT       P1_B2
      00000080H.3 SFRSYM    DATA     BIT       P0_B3
      000000C0H   SFRSYM    DATA     BYTE      SMB0CN0
      000000B0H.1 SFRSYM    DATA     BIT       P3_B1
      000000A0H.2 SFRSYM    DATA     BIT       P2_B2
      00000090H.3 SFRSYM    DATA     BIT       P1_B3
      00000080H.4 SFRSYM    DATA     BIT       P0_B4
      000000C0H   SFRSYM    DATA     BYTE      SMB1CN0
      000000B0H.2 SFRSYM    DATA     BIT       P3_B2
      000000A0H.3 SFRSYM    DATA     BIT       P2_B3
      00000090H.4 SFRSYM    DATA     BIT       P1_B4
      00000080H.5 SFRSYM    DATA     BIT       P0_B5
      000000B0H.3 SFRSYM    DATA     BIT       P3_B3
      000000A0H.4 SFRSYM    DATA     BIT       P2_B4
      00000090H.5 SFRSYM    DATA     BIT       P1_B5
      00000080H.6 SFRSYM    DATA     BIT       P0_B6
      00000080H.2 SFRSYM    DATA     BIT       LCD_RS
      000000B0H.4 SFRSYM    DATA     BIT       P3_B4
      000000A0H.5 SFRSYM    DATA     BIT       P2_B5
      00000090H.6 SFRSYM    DATA     BIT       P1_B6
      00000080H.7 SFRSYM    DATA     BIT       P0_B7
      000000B0H.5 SFRSYM    DATA     BIT       P3_B5
      000000A0H.6 SFRSYM    DATA     BIT       P2_B6
LX51 LINKER/LOCATER V4.66.66.0                                                        03/09/2017  11:29:19  PAGE 37


      00000090H.7 SFRSYM    DATA     BIT       P1_B7
      000000B0H.6 SFRSYM    DATA     BIT       P3_B6
      000000A0H.7 SFRSYM    DATA     BIT       P2_B7
      000000B0H.7 SFRSYM    DATA     BIT       P3_B7
      00000083H   SFRSYM    DATA     BYTE      DPH
      000000C4H   SFRSYM    DATA     BYTE      ADC0GTH
      000000C8H.7 SFRSYM    DATA     BIT       TMR2CN0_TF2H
      000000C8H.3 SFRSYM    DATA     BIT       TMR2CN0_T2SPLIT
      000000D0H.6 SFRSYM    DATA     BIT       PSW_AC
      000000F8H   SFRSYM    DATA     BYTE      SPI0CN0
      000000B3H   SFRSYM    DATA     BYTE      HFO0CAL
      00000080H   SFRSYM    DATA     BIT       BtnEntGpio
      00000088H.5 SFRSYM    DATA     BIT       TCON_TF0
      00000098H   SFRSYM    DATA     BIT       SCON0_RI
      00000082H   SFRSYM    DATA     BYTE      DPL
      00000088H.7 SFRSYM    DATA     BIT       TCON_TF1
      00000099H   SFRSYM    DATA     BYTE      SBUF0
      00000087H   SFRSYM    DATA     BYTE      PCON0
      000000C3H   SFRSYM    DATA     BYTE      ADC0GTL
      000000C8H.6 SFRSYM    DATA     BIT       TMR2CN0_TF2L
      00000098H.1 SFRSYM    DATA     BIT       SCON0_TI
      000000E8H   SFRSYM    DATA     BIT       ADC0CN0_ADCM0
      000000D3H   SFRSYM    DATA     BYTE      SBUF1
      000000C6H   SFRSYM    DATA     BYTE      ADC0LTH
      00000088H   SFRSYM    DATA     BIT       TCON_IT0
      000000E8H.1 SFRSYM    DATA     BIT       ADC0CN0_ADCM1
      000000EFH   SFRSYM    DATA     BYTE      RSTSRC
      000000C8H.7 SFRSYM    DATA     BIT       TMR5CN0_TF5H
      000000C8H.3 SFRSYM    DATA     BIT       TMR5CN0_T5SPLIT
      00000088H.2 SFRSYM    DATA     BIT       TCON_IT1
      000000E8H.2 SFRSYM    DATA     BIT       ADC0CN0_ADCM2
      00000098H   SFRSYM    DATA     BYTE      SCON0
      000000E8H.3 SFRSYM    DATA     BIT       ADC0CN0_ADWINT
      000000B4H   SFRSYM    DATA     WORD      SBRL1
      000000E5H   SFRSYM    DATA     BYTE      SMOD1
      000000D2H   SFRSYM    DATA     BYTE      SCON1
      000000BAH   SFRSYM    DATA     BYTE      AMX0N
      000000E8H.4 SFRSYM    DATA     BIT       ADC0CN0_ADBUSY
      000000CEH   SFRSYM    DATA     BYTE      SMB0ADM
      000000C5H   SFRSYM    DATA     BYTE      ADC0LTL
      000000F8H.5 SFRSYM    DATA     BIT       SPI0CN0_MODF
      000000B8H.6 SFRSYM    DATA     BIT       IP_PSPI0
      000000CEH   SFRSYM    DATA     BYTE      SMB1ADM
      000000BBH   SFRSYM    DATA     BYTE      AMX0P
      000000C8H.6 SFRSYM    DATA     BIT       TMR5CN0_TF5L
      000000C8H   SFRSYM    DATA     BYTE      TMR2CN0
      00000091H   SFRSYM    DATA     BYTE      TMR3CN0
      00000080H.1 SFRSYM    DATA     BIT       BtnExtGpio
      00000091H   SFRSYM    DATA     BYTE      TMR4CN0
      000000C8H   SFRSYM    DATA     BYTE      TMR5CN0
      000000CFH   SFRSYM    DATA     BYTE      SMB0ADR
      00000088H.4 SFRSYM    DATA     BIT       TCON_TR0
      000000CFH   SFRSYM    DATA     BYTE      SMB1ADR
      000000C8H.4 SFRSYM    DATA     BIT       TMR2CN0_TF2CEN
      00000088H.6 SFRSYM    DATA     BIT       TCON_TR1
      000000C2H   SFRSYM    DATA     BYTE      SMB0DAT
      00000080H.4 SFRSYM    DATA     BIT       RC_OUT
      000000CDH   SFRSYM    DATA     BYTE      TMR2H
      000000A1H   SFRSYM    DATA     BYTE      SPI0CFG
      000000C2H   SFRSYM    DATA     BYTE      SMB1DAT
      00000095H   SFRSYM    DATA     BYTE      TMR3H
      00000095H   SFRSYM    DATA     BYTE      TMR4H
      000000CDH   SFRSYM    DATA     BYTE      TMR5H
      000000CCH   SFRSYM    DATA     BYTE      TMR2L
      00000090H.5 SFRSYM    DATA     BIT       BtnDwGpio
LX51 LINKER/LOCATER V4.66.66.0                                                        03/09/2017  11:29:19  PAGE 38


      000000F8H.7 SFRSYM    DATA     BIT       SPI0CN0_SPIF
      00000096H   SFRSYM    DATA     BYTE      USB0ADR
      00000094H   SFRSYM    DATA     BYTE      TMR3L
      000000A8H.7 SFRSYM    DATA     BIT       IE_EA
      00000094H   SFRSYM    DATA     BYTE      TMR4L
      00000097H   SFRSYM    DATA     BYTE      USB0DAT
      000000CCH   SFRSYM    DATA     BYTE      TMR5L
      000000B6H   SFRSYM    DATA     BYTE      FLSCL
      000000C8H.5 SFRSYM    DATA     BIT       TMR2CN0_TF2LEN
      000000F8H.6 SFRSYM    DATA     BIT       SPI0CN0_WCOL
      000000F8H.2 SFRSYM    DATA     BIT       SPI0CN0_NSSMD0
      000000D0H.7 SFRSYM    DATA     BIT       PSW_CY
      000000A3H   SFRSYM    DATA     BYTE      SPI0DAT
      000000F8H.3 SFRSYM    DATA     BIT       SPI0CN0_NSSMD1
      000000BDH   SFRSYM    DATA     WORD      ADC0
      000000B9H   SFRSYM    DATA     BYTE      SMBTC
      000000D0H   SFRSYM    DATA     BYTE      PSW
      000000C8H.5 SFRSYM    DATA     BIT       TMR5CN0_TF5LEN
      000000B7H   SFRSYM    DATA     BYTE      FLKEY
      00000090H.4 SFRSYM    DATA     BIT       BtnUpGpio

      01007468H   BLOCK     CODE     ---       LVL=0
      020009F4H   SYMBOL    XDATA    BYTE      HandleCfg
      01007468H   LINE      CODE     ---       #6
      0100746DH   LINE      CODE     ---       #7
      01007477H   LINE      CODE     ---       #8
      01007481H   LINE      CODE     ---       #9
      0100748BH   LINE      CODE     ---       #10
      01007497H   LINE      CODE     ---       #11
      010074A3H   LINE      CODE     ---       #12
      010074AFH   LINE      CODE     ---       #13
      ---         BLOCKEND  ---      ---       LVL=0

      01004A48H   BLOCK     CODE     ---       LVL=0
      01004A48H   LINE      CODE     ---       #18
      01004A48H   LINE      CODE     ---       #20
      01004A4BH   LINE      CODE     ---       #22
      01004A4EH   LINE      CODE     ---       #23
      01004A51H   LINE      CODE     ---       #24
      01004A54H   LINE      CODE     ---       #25
      01004A57H   LINE      CODE     ---       #26
      01004A5AH   LINE      CODE     ---       #27
      01004A5DH   LINE      CODE     ---       #28
      01004A60H   LINE      CODE     ---       #30
      01004A63H   LINE      CODE     ---       #31
      01004A68H   LINE      CODE     ---       #32
      01004A6DH   LINE      CODE     ---       #34
      01004A7EH   LINE      CODE     ---       #35
      01004A8FH   LINE      CODE     ---       #36
      01004A92H   LINE      CODE     ---       #38
      01004A95H   LINE      CODE     ---       #39
      01004A98H   LINE      CODE     ---       #40
      01004A9BH   LINE      CODE     ---       #41
      01004A9EH   LINE      CODE     ---       #43
      01004AADH   LINE      CODE     ---       #44
      01004ABBH   LINE      CODE     ---       #45
      01004AC9H   LINE      CODE     ---       #46
      01004AD4H   LINE      CODE     ---       #47
      01004AE5H   LINE      CODE     ---       #48
      01004AF3H   LINE      CODE     ---       #49
      01004AFEH   LINE      CODE     ---       #50
      01004B12H   LINE      CODE     ---       #51
      01004B20H   LINE      CODE     ---       #52
      01004B2BH   LINE      CODE     ---       #53
      01004B2BH   LINE      CODE     ---       #54
LX51 LINKER/LOCATER V4.66.66.0                                                        03/09/2017  11:29:19  PAGE 39


      01004B39H   LINE      CODE     ---       #55
      01004B47H   LINE      CODE     ---       #56
      01004B52H   LINE      CODE     ---       #57
      01004B60H   LINE      CODE     ---       #58
      01004B6EH   LINE      CODE     ---       #59
      01004B79H   LINE      CODE     ---       #60
      01004B87H   LINE      CODE     ---       #61
      01004B95H   LINE      CODE     ---       #63
      01004B9FH   LINE      CODE     ---       #64
      01004BAAH   LINE      CODE     ---       #65
      01004BAAH   LINE      CODE     ---       #67
      01004BAAH   LINE      CODE     ---       #68
      01004BB5H   LINE      CODE     ---       #69
      01004BD0H   LINE      CODE     ---       #70
      01004BD2H   LINE      CODE     ---       #71
      ---         BLOCKEND  ---      ---       LVL=0

      ---         MODULE    ---      ---       GLOBAL
      020008E8H   PUBLIC    XDATA    WORD      SysModuleEnable
      00000042H   PUBLIC    DATA     WORD      TickCnt1ms
      020008E6H   PUBLIC    XDATA    WORD      SysTaskHandle
      020008DAH   PUBLIC    XDATA    ---       TxSys
      0100741DH   PUBLIC    CODE     ---       TIMER1_ISR
      01006D98H   PUBLIC    CODE     ---       _DelayMs
      010074B0H   PUBLIC    CODE     ---       SysDatInit
      000000A2H   SFRSYM    DATA     BYTE      SPI0CKR
      00000080H   SFRSYM    DATA     BYTE      P0
      000000D0H.2 SFRSYM    DATA     BIT       PSW_OV
      000000B1H   SFRSYM    DATA     BYTE      XOSC0CN
      00000090H   SFRSYM    DATA     BYTE      P1
      000000A0H   SFRSYM    DATA     BYTE      P2
      000000B0H   SFRSYM    DATA     BYTE      P3
      000000BCH   SFRSYM    DATA     BYTE      ADC0CF
      000000C8H   SFRSYM    DATA     BIT       TMR2CN0_T2XCLK
      000000C7H   SFRSYM    DATA     BYTE      P4
      000000C0H.7 SFRSYM    DATA     BIT       SMB0CN0_MASTER
      000000F9H   SFRSYM    DATA     WORD      PCA0
      000000E6H   SFRSYM    DATA     BYTE      EIE1
      000000C0H.7 SFRSYM    DATA     BIT       SMB1CN0_MASTER
      000000C0H.1 SFRSYM    DATA     BIT       SMB0CN0_ACK
      000000D7H   SFRSYM    DATA     BYTE      USB0XCN
      000000E7H   SFRSYM    DATA     BYTE      EIE2
      000000C0H.1 SFRSYM    DATA     BIT       SMB1CN0_ACK
      0000008FH   SFRSYM    DATA     BYTE      PSCTL
      000000E4H   SFRSYM    DATA     BYTE      IT01CF
      000000C8H   SFRSYM    DATA     BIT       TMR5CN0_T5XCLK
      000000C0H.6 SFRSYM    DATA     BIT       SMB0CN0_TXMODE
      000000C0H.6 SFRSYM    DATA     BIT       SMB1CN0_TXMODE
      000000BFH   SFRSYM    DATA     BYTE      SFRPAGE
      000000A4H   SFRSYM    DATA     BYTE      P0MDOUT
      00000080H.5 SFRSYM    DATA     BIT       LCD_SDA
      000000A5H   SFRSYM    DATA     BYTE      P1MDOUT
      000000E8H.5 SFRSYM    DATA     BIT       ADC0CN0_ADINT
      000000CBH   SFRSYM    DATA     BYTE      TMR2RLH
      000000A6H   SFRSYM    DATA     BYTE      P2MDOUT
      000000A8H   SFRSYM    DATA     BYTE      IE
      00000093H   SFRSYM    DATA     BYTE      TMR3RLH
      000000A7H   SFRSYM    DATA     BYTE      P3MDOUT
      00000093H   SFRSYM    DATA     BYTE      TMR4RLH
      000000AEH   SFRSYM    DATA     BYTE      P4MDOUT
      000000F6H   SFRSYM    DATA     BYTE      EIP1
      000000CBH   SFRSYM    DATA     BYTE      TMR5RLH
      000000F7H   SFRSYM    DATA     BYTE      EIP2
      00000098H.2 SFRSYM    DATA     BIT       SCON0_RB8
      000000CAH   SFRSYM    DATA     BYTE      TMR2RLL
LX51 LINKER/LOCATER V4.66.66.0                                                        03/09/2017  11:29:19  PAGE 40


      000000FCH   SFRSYM    DATA     BYTE      PCA0CPH0
      00000092H   SFRSYM    DATA     BYTE      TMR3RLL
      000000EAH   SFRSYM    DATA     BYTE      PCA0CPH1
      00000098H.3 SFRSYM    DATA     BIT       SCON0_TB8
      000000F0H   SFRSYM    DATA     BIT       B_B0
      00000082H   SFRSYM    DATA     WORD      DP
      00000092H   SFRSYM    DATA     BYTE      TMR4RLL
      000000ECH   SFRSYM    DATA     BYTE      PCA0CPH2
      000000F0H.1 SFRSYM    DATA     BIT       B_B1
      000000C3H   SFRSYM    DATA     WORD      ADC0GT
      000000CAH   SFRSYM    DATA     BYTE      TMR5RLL
      000000EEH   SFRSYM    DATA     BYTE      PCA0CPH3
      00000080H.3 SFRSYM    DATA     BIT       LCD_SCK
      000000F0H.2 SFRSYM    DATA     BIT       B_B2
      000000FBH   SFRSYM    DATA     BYTE      PCA0CPL0
      000000FEH   SFRSYM    DATA     BYTE      PCA0CPH4
      00000085H   SFRSYM    DATA     BYTE      EMI0CF
      000000F0H.3 SFRSYM    DATA     BIT       B_B3
      000000D9H   SFRSYM    DATA     BYTE      PCA0MD
      000000DAH   SFRSYM    DATA     BYTE      PCA0CPM0
      000000E9H   SFRSYM    DATA     BYTE      PCA0CPL1
      000000F0H.4 SFRSYM    DATA     BIT       B_B4
      000000DBH   SFRSYM    DATA     BYTE      PCA0CPM1
      000000EBH   SFRSYM    DATA     BYTE      PCA0CPL2
      000000F0H.5 SFRSYM    DATA     BIT       B_B5
      000000DCH   SFRSYM    DATA     BYTE      PCA0CPM2
      000000EDH   SFRSYM    DATA     BYTE      PCA0CPL3
      000000B8H   SFRSYM    DATA     BYTE      IP
      000000F0H.6 SFRSYM    DATA     BIT       B_B6
      000000C5H   SFRSYM    DATA     WORD      ADC0LT
      000000DDH   SFRSYM    DATA     BYTE      PCA0CPM3
      000000FDH   SFRSYM    DATA     BYTE      PCA0CPL4
      00000098H.5 SFRSYM    DATA     BIT       SCON0_MCE
      000000F0H.7 SFRSYM    DATA     BIT       B_B7
      000000DEH   SFRSYM    DATA     BYTE      PCA0CPM4
      000000E1H   SFRSYM    DATA     BYTE      XBR0
      000000C1H   SFRSYM    DATA     BYTE      SMB0CF
      000000E2H   SFRSYM    DATA     BYTE      XBR1
      000000C1H   SFRSYM    DATA     BYTE      SMB1CF
      000000AFH   SFRSYM    DATA     BYTE      PFE0CN
      000000AAH   SFRSYM    DATA     BYTE      EMI0CN
      000000C0H.5 SFRSYM    DATA     BIT       SMB0CN0_STA
      000000E3H   SFRSYM    DATA     BYTE      XBR2
      000000C0H.5 SFRSYM    DATA     BIT       SMB1CN0_STA
      000000E0H   SFRSYM    DATA     BIT       ACC_ACC0
      000000D1H   SFRSYM    DATA     BYTE      REF0CN
      000000B2H   SFRSYM    DATA     BYTE      HFO0CN
      0000008EH   SFRSYM    DATA     BYTE      CKCON0
      000000E0H.1 SFRSYM    DATA     BIT       ACC_ACC1
      000000E4H   SFRSYM    DATA     BYTE      CKCON1
      000000C8H.2 SFRSYM    DATA     BIT       TMR2CN0_TR2
      000000E0H.2 SFRSYM    DATA     BIT       ACC_ACC2
      000000E0H.3 SFRSYM    DATA     BIT       ACC_ACC3
      00000081H   SFRSYM    DATA     BYTE      SP
      0000009DH   SFRSYM    DATA     BYTE      CMP0MD
      000000E0H.4 SFRSYM    DATA     BIT       ACC_ACC4
      00000086H   SFRSYM    DATA     BYTE      LFO0CN
      00000084H   SFRSYM    DATA     BYTE      EMI0TC
      0000009CH   SFRSYM    DATA     BYTE      CMP1MD
      000000D8H   SFRSYM    DATA     BIT       PCA0CN0_CCF0
      000000E0H.5 SFRSYM    DATA     BIT       ACC_ACC5
      000000D8H.1 SFRSYM    DATA     BIT       PCA0CN0_CCF1
      000000E0H.6 SFRSYM    DATA     BIT       ACC_ACC6
      000000CCH   SFRSYM    DATA     WORD      TMR2
      000000D8H.2 SFRSYM    DATA     BIT       PCA0CN0_CCF2
LX51 LINKER/LOCATER V4.66.66.0                                                        03/09/2017  11:29:19  PAGE 41


      000000E0H.7 SFRSYM    DATA     BIT       ACC_ACC7
      00000094H   SFRSYM    DATA     WORD      TMR3
      000000C8H.2 SFRSYM    DATA     BIT       TMR5CN0_TR5
      000000D8H.3 SFRSYM    DATA     BIT       PCA0CN0_CCF3
      00000094H   SFRSYM    DATA     WORD      TMR4
      000000ACH   SFRSYM    DATA     BYTE      SBCON1
      000000D8H.4 SFRSYM    DATA     BIT       PCA0CN0_CCF4
      000000CCH   SFRSYM    DATA     WORD      TMR5
      000000C0H.3 SFRSYM    DATA     BIT       SMB0CN0_ACKRQ
      000000FFH   SFRSYM    DATA     BYTE      VDM0CN
      000000F1H   SFRSYM    DATA     BYTE      P0MDIN
      000000C0H.3 SFRSYM    DATA     BIT       SMB1CN0_ACKRQ
      00000098H.4 SFRSYM    DATA     BIT       SCON0_REN
      000000F2H   SFRSYM    DATA     BYTE      P1MDIN
      000000F3H   SFRSYM    DATA     BYTE      P2MDIN
      000000C0H.4 SFRSYM    DATA     BIT       SMB0CN0_STO
      000000F4H   SFRSYM    DATA     BYTE      P3MDIN
      00000090H.3 SFRSYM    DATA     BIT       LCD_RST
      000000C0H.4 SFRSYM    DATA     BIT       SMB1CN0_STO
      000000B5H   SFRSYM    DATA     BYTE      SBRLH1
      000000F5H   SFRSYM    DATA     BYTE      P4MDIN
      000000D0H.3 SFRSYM    DATA     BIT       PSW_RS0
      000000D8H.7 SFRSYM    DATA     BIT       PCA0CN0_CF
      000000F8H.4 SFRSYM    DATA     BIT       SPI0CN0_RXOVRN
      000000D0H.4 SFRSYM    DATA     BIT       PSW_RS1
      000000B4H   SFRSYM    DATA     BYTE      SBRLL1
      000000E8H.7 SFRSYM    DATA     BIT       ADC0CN0_ADEN
      00000089H   SFRSYM    DATA     BYTE      TMOD
      00000088H   SFRSYM    DATA     BYTE      TCON
      000000D0H   SFRSYM    DATA     BIT       PSW_PARITY
      000000A8H.4 SFRSYM    DATA     BIT       IE_ES0
      0000009FH   SFRSYM    DATA     BYTE      CMP0MX
      000000A8H.1 SFRSYM    DATA     BIT       IE_ET0
      0000009EH   SFRSYM    DATA     BYTE      CMP1MX
      000000A8H.3 SFRSYM    DATA     BIT       IE_ET1
      000000D4H   SFRSYM    DATA     BYTE      P0SKIP
      000000C8H.1 SFRSYM    DATA     BIT       TMR2CN0_T2CSS
      000000A8H.5 SFRSYM    DATA     BIT       IE_ET2
      000000D5H   SFRSYM    DATA     BYTE      P1SKIP
      000000D6H   SFRSYM    DATA     BYTE      P2SKIP
      000000E8H   SFRSYM    DATA     BYTE      ADC0CN0
      000000A8H   SFRSYM    DATA     BIT       IE_EX0
      000000DFH   SFRSYM    DATA     BYTE      P3SKIP
      000000D8H.6 SFRSYM    DATA     BIT       PCA0CN0_CR
      000000A8H.2 SFRSYM    DATA     BIT       IE_EX1
      00000098H.7 SFRSYM    DATA     BIT       SCON0_SMODE
      000000A9H   SFRSYM    DATA     BYTE      CLKSEL
      000000F8H   SFRSYM    DATA     BIT       SPI0CN0_SPIEN
      000000F0H   SFRSYM    DATA     BYTE      B
      000000BEH   SFRSYM    DATA     BYTE      ADC0H
      000000E8H.6 SFRSYM    DATA     BIT       ADC0CN0_ADTM
      000000CAH   SFRSYM    DATA     WORD      TMR2RL
      000000BDH   SFRSYM    DATA     BYTE      ADC0L
      00000092H   SFRSYM    DATA     WORD      TMR3RL
      00000092H   SFRSYM    DATA     WORD      TMR4RL
      000000D8H   SFRSYM    DATA     BYTE      PCA0CN0
      000000E0H   SFRSYM    DATA     BYTE      ACC
      000000CAH   SFRSYM    DATA     WORD      TMR5RL
      000000FBH   SFRSYM    DATA     WORD      PCA0CP0
      00000080H.6 SFRSYM    DATA     BIT       LCD_CS
      000000E9H   SFRSYM    DATA     WORD      PCA0CP1
      000000EBH   SFRSYM    DATA     WORD      PCA0CP2
      000000EDH   SFRSYM    DATA     WORD      PCA0CP3
      0000008CH   SFRSYM    DATA     BYTE      TH0
      000000B8H.4 SFRSYM    DATA     BIT       IP_PS0
LX51 LINKER/LOCATER V4.66.66.0                                                        03/09/2017  11:29:19  PAGE 42


      000000FDH   SFRSYM    DATA     WORD      PCA0CP4
      0000008DH   SFRSYM    DATA     BYTE      TH1
      000000FAH   SFRSYM    DATA     BYTE      PCA0H
      000000B8H.1 SFRSYM    DATA     BIT       IP_PT0
      000000B8H.3 SFRSYM    DATA     BIT       IP_PT1
      000000C0H.2 SFRSYM    DATA     BIT       SMB0CN0_ARBLOST
      000000B8H.5 SFRSYM    DATA     BIT       IP_PT2
      0000008AH   SFRSYM    DATA     BYTE      TL0
      000000F8H.1 SFRSYM    DATA     BIT       SPI0CN0_TXBMT
      000000C0H.2 SFRSYM    DATA     BIT       SMB1CN0_ARBLOST
      000000D0H.5 SFRSYM    DATA     BIT       PSW_F0
      000000A8H.6 SFRSYM    DATA     BIT       IE_ESPI0
      0000008BH   SFRSYM    DATA     BYTE      TL1
      000000F9H   SFRSYM    DATA     BYTE      PCA0L
      000000C0H   SFRSYM    DATA     BIT       SMB0CN0_SI
      000000D0H.1 SFRSYM    DATA     BIT       PSW_F1
      00000080H   SFRSYM    DATA     BIT       P0_B0
      000000B8H   SFRSYM    DATA     BIT       IP_PX0
      000000C9H   SFRSYM    DATA     BYTE      REG01CN
      000000C0H   SFRSYM    DATA     BIT       SMB1CN0_SI
      00000090H   SFRSYM    DATA     BIT       P1_B0
      00000080H.1 SFRSYM    DATA     BIT       P0_B1
      000000B8H.2 SFRSYM    DATA     BIT       IP_PX1
      0000009BH   SFRSYM    DATA     BYTE      CMP0CN0
      00000088H.1 SFRSYM    DATA     BIT       TCON_IE0
      000000A0H   SFRSYM    DATA     BIT       P2_B0
      00000090H.1 SFRSYM    DATA     BIT       P1_B1
      00000080H.2 SFRSYM    DATA     BIT       P0_B2
      0000009AH   SFRSYM    DATA     BYTE      CMP1CN0
      00000088H.3 SFRSYM    DATA     BIT       TCON_IE1
      000000B0H   SFRSYM    DATA     BIT       P3_B0
      000000A0H.1 SFRSYM    DATA     BIT       P2_B1
      00000090H.2 SFRSYM    DATA     BIT       P1_B2
      00000080H.3 SFRSYM    DATA     BIT       P0_B3
      000000C0H   SFRSYM    DATA     BYTE      SMB0CN0
      000000B0H.1 SFRSYM    DATA     BIT       P3_B1
      000000A0H.2 SFRSYM    DATA     BIT       P2_B2
      00000090H.3 SFRSYM    DATA     BIT       P1_B3
      00000080H.4 SFRSYM    DATA     BIT       P0_B4
      000000C0H   SFRSYM    DATA     BYTE      SMB1CN0
      000000B0H.2 SFRSYM    DATA     BIT       P3_B2
      000000A0H.3 SFRSYM    DATA     BIT       P2_B3
      00000090H.4 SFRSYM    DATA     BIT       P1_B4
      00000080H.5 SFRSYM    DATA     BIT       P0_B5
      000000B0H.3 SFRSYM    DATA     BIT       P3_B3
      000000A0H.4 SFRSYM    DATA     BIT       P2_B4
      00000090H.5 SFRSYM    DATA     BIT       P1_B5
      00000080H.6 SFRSYM    DATA     BIT       P0_B6
      00000080H.2 SFRSYM    DATA     BIT       LCD_RS
      000000B0H.4 SFRSYM    DATA     BIT       P3_B4
      000000A0H.5 SFRSYM    DATA     BIT       P2_B5
      00000090H.6 SFRSYM    DATA     BIT       P1_B6
      00000080H.7 SFRSYM    DATA     BIT       P0_B7
      000000B0H.5 SFRSYM    DATA     BIT       P3_B5
      000000A0H.6 SFRSYM    DATA     BIT       P2_B6
      00000090H.7 SFRSYM    DATA     BIT       P1_B7
      000000B0H.6 SFRSYM    DATA     BIT       P3_B6
      000000A0H.7 SFRSYM    DATA     BIT       P2_B7
      000000B0H.7 SFRSYM    DATA     BIT       P3_B7
      00000083H   SFRSYM    DATA     BYTE      DPH
      000000C4H   SFRSYM    DATA     BYTE      ADC0GTH
      000000C8H.7 SFRSYM    DATA     BIT       TMR2CN0_TF2H
      000000C8H.3 SFRSYM    DATA     BIT       TMR2CN0_T2SPLIT
      000000D0H.6 SFRSYM    DATA     BIT       PSW_AC
      000000F8H   SFRSYM    DATA     BYTE      SPI0CN0
LX51 LINKER/LOCATER V4.66.66.0                                                        03/09/2017  11:29:19  PAGE 43


      000000B3H   SFRSYM    DATA     BYTE      HFO0CAL
      00000080H   SFRSYM    DATA     BIT       BtnEntGpio
      00000088H.5 SFRSYM    DATA     BIT       TCON_TF0
      00000098H   SFRSYM    DATA     BIT       SCON0_RI
      00000082H   SFRSYM    DATA     BYTE      DPL
      00000088H.7 SFRSYM    DATA     BIT       TCON_TF1
      00000099H   SFRSYM    DATA     BYTE      SBUF0
      00000087H   SFRSYM    DATA     BYTE      PCON0
      000000C3H   SFRSYM    DATA     BYTE      ADC0GTL
      000000C8H.6 SFRSYM    DATA     BIT       TMR2CN0_TF2L
      00000098H.1 SFRSYM    DATA     BIT       SCON0_TI
      000000E8H   SFRSYM    DATA     BIT       ADC0CN0_ADCM0
      000000D3H   SFRSYM    DATA     BYTE      SBUF1
      000000C6H   SFRSYM    DATA     BYTE      ADC0LTH
      00000088H   SFRSYM    DATA     BIT       TCON_IT0
      000000E8H.1 SFRSYM    DATA     BIT       ADC0CN0_ADCM1
      000000EFH   SFRSYM    DATA     BYTE      RSTSRC
      000000C8H.7 SFRSYM    DATA     BIT       TMR5CN0_TF5H
      000000C8H.3 SFRSYM    DATA     BIT       TMR5CN0_T5SPLIT
      00000088H.2 SFRSYM    DATA     BIT       TCON_IT1
      000000E8H.2 SFRSYM    DATA     BIT       ADC0CN0_ADCM2
      00000098H   SFRSYM    DATA     BYTE      SCON0
      000000E8H.3 SFRSYM    DATA     BIT       ADC0CN0_ADWINT
      000000B4H   SFRSYM    DATA     WORD      SBRL1
      000000E5H   SFRSYM    DATA     BYTE      SMOD1
      000000D2H   SFRSYM    DATA     BYTE      SCON1
      000000BAH   SFRSYM    DATA     BYTE      AMX0N
      000000E8H.4 SFRSYM    DATA     BIT       ADC0CN0_ADBUSY
      000000CEH   SFRSYM    DATA     BYTE      SMB0ADM
      000000C5H   SFRSYM    DATA     BYTE      ADC0LTL
      000000F8H.5 SFRSYM    DATA     BIT       SPI0CN0_MODF
      000000B8H.6 SFRSYM    DATA     BIT       IP_PSPI0
      000000CEH   SFRSYM    DATA     BYTE      SMB1ADM
      000000BBH   SFRSYM    DATA     BYTE      AMX0P
      000000C8H.6 SFRSYM    DATA     BIT       TMR5CN0_TF5L
      000000C8H   SFRSYM    DATA     BYTE      TMR2CN0
      00000091H   SFRSYM    DATA     BYTE      TMR3CN0
      00000080H.1 SFRSYM    DATA     BIT       BtnExtGpio
      00000091H   SFRSYM    DATA     BYTE      TMR4CN0
      000000C8H   SFRSYM    DATA     BYTE      TMR5CN0
      000000CFH   SFRSYM    DATA     BYTE      SMB0ADR
      00000088H.4 SFRSYM    DATA     BIT       TCON_TR0
      000000CFH   SFRSYM    DATA     BYTE      SMB1ADR
      000000C8H.4 SFRSYM    DATA     BIT       TMR2CN0_TF2CEN
      00000088H.6 SFRSYM    DATA     BIT       TCON_TR1
      000000C2H   SFRSYM    DATA     BYTE      SMB0DAT
      00000080H.4 SFRSYM    DATA     BIT       RC_OUT
      000000CDH   SFRSYM    DATA     BYTE      TMR2H
      000000A1H   SFRSYM    DATA     BYTE      SPI0CFG
      000000C2H   SFRSYM    DATA     BYTE      SMB1DAT
      00000095H   SFRSYM    DATA     BYTE      TMR3H
      00000095H   SFRSYM    DATA     BYTE      TMR4H
      000000CDH   SFRSYM    DATA     BYTE      TMR5H
      000000CCH   SFRSYM    DATA     BYTE      TMR2L
      00000090H.5 SFRSYM    DATA     BIT       BtnDwGpio
      000000F8H.7 SFRSYM    DATA     BIT       SPI0CN0_SPIF
      00000096H   SFRSYM    DATA     BYTE      USB0ADR
      00000094H   SFRSYM    DATA     BYTE      TMR3L
      000000A8H.7 SFRSYM    DATA     BIT       IE_EA
      00000094H   SFRSYM    DATA     BYTE      TMR4L
      00000097H   SFRSYM    DATA     BYTE      USB0DAT
      000000CCH   SFRSYM    DATA     BYTE      TMR5L
      000000B6H   SFRSYM    DATA     BYTE      FLSCL
      000000C8H.5 SFRSYM    DATA     BIT       TMR2CN0_TF2LEN
      000000F8H.6 SFRSYM    DATA     BIT       SPI0CN0_WCOL
LX51 LINKER/LOCATER V4.66.66.0                                                        03/09/2017  11:29:19  PAGE 44


      000000F8H.2 SFRSYM    DATA     BIT       SPI0CN0_NSSMD0
      000000D0H.7 SFRSYM    DATA     BIT       PSW_CY
      000000A3H   SFRSYM    DATA     BYTE      SPI0DAT
      000000F8H.3 SFRSYM    DATA     BIT       SPI0CN0_NSSMD1
      000000BDH   SFRSYM    DATA     WORD      ADC0
      000000B9H   SFRSYM    DATA     BYTE      SMBTC
      000000D0H   SFRSYM    DATA     BYTE      PSW
      000000C8H.5 SFRSYM    DATA     BIT       TMR5CN0_TF5LEN
      000000B7H   SFRSYM    DATA     BYTE      FLKEY
      00000090H.4 SFRSYM    DATA     BIT       BtnUpGpio

      010074B0H   BLOCK     CODE     ---       LVL=0
      010074B0H   LINE      CODE     ---       #9
      010074B0H   LINE      CODE     ---       #10
      010074B6H   LINE      CODE     ---       #12
      010074BEH   LINE      CODE     ---       #13
      010074C6H   LINE      CODE     ---       #15
      010074CEH   LINE      CODE     ---       #16
      010074D6H   LINE      CODE     ---       #17
      010074DEH   LINE      CODE     ---       #18
      010074E6H   LINE      CODE     ---       #19
      010074EEH   LINE      CODE     ---       #20
      010074F6H   LINE      CODE     ---       #21
      ---         BLOCKEND  ---      ---       LVL=0

      01006D98H   BLOCK     CODE     ---       LVL=0
      020009BAH   SYMBOL    XDATA    WORD      mTim
      01006DA0H   BLOCK     CODE     NEAR LAB  LVL=1
      020009BCH   SYMBOL    XDATA    BYTE      TickOverFlow
      020009BDH   SYMBOL    XDATA    WORD      DelayTickCnt
      ---         BLOCKEND  ---      ---       LVL=1
      01006D98H   LINE      CODE     ---       #23
      01006DA0H   LINE      CODE     ---       #27
      01006DA5H   LINE      CODE     ---       #28
      01006DBDH   LINE      CODE     ---       #29
      01006DDAH   LINE      CODE     ---       #31
      01006DDAH   LINE      CODE     ---       #32
      01006DE3H   LINE      CODE     ---       #33
      01006DFDH   LINE      CODE     ---       #34
      01006DFFH   LINE      CODE     ---       #35
      01006E01H   LINE      CODE     ---       #36
      01006E06H   LINE      CODE     ---       #37
      01006E06H   LINE      CODE     ---       #38
      01006E08H   LINE      CODE     ---       #39
      01006E1AH   LINE      CODE     ---       #40
      01006E1AH   LINE      CODE     ---       #41
      01006E1CH   LINE      CODE     ---       #42
      ---         BLOCKEND  ---      ---       LVL=0

      0100741DH   BLOCK     CODE     ---       LVL=0
      0100741DH   LINE      CODE     ---       #44
      0100743AH   LINE      CODE     ---       #45
      0100743CH   LINE      CODE     ---       #46
      0100743FH   LINE      CODE     ---       #47
      01007442H   LINE      CODE     ---       #49
      0100744AH   LINE      CODE     ---       #50
      0100744DH   LINE      CODE     ---       #51
      ---         BLOCKEND  ---      ---       LVL=0

      ---         MODULE    ---      ---       ESC
      020007E7H   PUBLIC    XDATA    BYTE      TxInitPulse
      020007E5H   PUBLIC    XDATA    INT       EscDatSum
      020007E4H   PUBLIC    XDATA    BYTE      OutPulseIdx
      020007E3H   PUBLIC    XDATA    BYTE      InPulseIdx
      020007B3H   PUBLIC    XDATA    ---       EscTxParam
LX51 LINKER/LOCATER V4.66.66.0                                                        03/09/2017  11:29:19  PAGE 45


      00000029H   PUBLIC    DATA     WORD      InitPulseCnt
      00000027H   PUBLIC    DATA     WORD      DataPulseCnt
      020007B2H   PUBLIC    XDATA    BYTE      PgmStatus
      00000025H   PUBLIC    DATA     INT       PwmOutNum
      020007B0H   PUBLIC    XDATA    INT       EscDatSumPre
      00000023H   PUBLIC    DATA     INT       PwmOutCnt
      020007AFH   PUBLIC    XDATA    BYTE      RxDataEnable
      00000022H   PUBLIC    DATA     BYTE      PwmOnRef
      0200077FH   PUBLIC    XDATA    ---       EscParam
      0200077EH   PUBLIC    XDATA    BYTE      TxNextDelayCnt
      01006B6AH   PUBLIC    CODE     ---       _EscDatCharge
      010075C5H   PUBLIC    CODE     ---       INT0_ISR
      01007161H   PUBLIC    CODE     ---       TIMER2_ISR
      01005D48H   PUBLIC    CODE     ---       TIMER0_ISR
      010053DFH   PUBLIC    CODE     ---       EscDetect
      0100708EH   PUBLIC    CODE     ---       EscDatInit
      000000A2H   SFRSYM    DATA     BYTE      SPI0CKR
      00000080H   SFRSYM    DATA     BYTE      P0
      000000D0H.2 SFRSYM    DATA     BIT       PSW_OV
      000000B1H   SFRSYM    DATA     BYTE      XOSC0CN
      00000090H   SFRSYM    DATA     BYTE      P1
      000000A0H   SFRSYM    DATA     BYTE      P2
      000000B0H   SFRSYM    DATA     BYTE      P3
      000000BCH   SFRSYM    DATA     BYTE      ADC0CF
      000000C8H   SFRSYM    DATA     BIT       TMR2CN0_T2XCLK
      000000C7H   SFRSYM    DATA     BYTE      P4
      000000C0H.7 SFRSYM    DATA     BIT       SMB0CN0_MASTER
      000000F9H   SFRSYM    DATA     WORD      PCA0
      000000E6H   SFRSYM    DATA     BYTE      EIE1
      000000C0H.7 SFRSYM    DATA     BIT       SMB1CN0_MASTER
      000000C0H.1 SFRSYM    DATA     BIT       SMB0CN0_ACK
      000000D7H   SFRSYM    DATA     BYTE      USB0XCN
      000000E7H   SFRSYM    DATA     BYTE      EIE2
      000000C0H.1 SFRSYM    DATA     BIT       SMB1CN0_ACK
      0000008FH   SFRSYM    DATA     BYTE      PSCTL
      000000E4H   SFRSYM    DATA     BYTE      IT01CF
      000000C8H   SFRSYM    DATA     BIT       TMR5CN0_T5XCLK
      000000C0H.6 SFRSYM    DATA     BIT       SMB0CN0_TXMODE
      000000C0H.6 SFRSYM    DATA     BIT       SMB1CN0_TXMODE
      000000BFH   SFRSYM    DATA     BYTE      SFRPAGE
      000000A4H   SFRSYM    DATA     BYTE      P0MDOUT
      00000080H.5 SFRSYM    DATA     BIT       LCD_SDA
      000000A5H   SFRSYM    DATA     BYTE      P1MDOUT
      000000E8H.5 SFRSYM    DATA     BIT       ADC0CN0_ADINT
      000000CBH   SFRSYM    DATA     BYTE      TMR2RLH
      000000A6H   SFRSYM    DATA     BYTE      P2MDOUT
      000000A8H   SFRSYM    DATA     BYTE      IE
      00000093H   SFRSYM    DATA     BYTE      TMR3RLH
      000000A7H   SFRSYM    DATA     BYTE      P3MDOUT
      00000093H   SFRSYM    DATA     BYTE      TMR4RLH
      000000AEH   SFRSYM    DATA     BYTE      P4MDOUT
      000000F6H   SFRSYM    DATA     BYTE      EIP1
      000000CBH   SFRSYM    DATA     BYTE      TMR5RLH
      000000F7H   SFRSYM    DATA     BYTE      EIP2
      00000098H.2 SFRSYM    DATA     BIT       SCON0_RB8
      000000CAH   SFRSYM    DATA     BYTE      TMR2RLL
      000000FCH   SFRSYM    DATA     BYTE      PCA0CPH0
      00000092H   SFRSYM    DATA     BYTE      TMR3RLL
      000000EAH   SFRSYM    DATA     BYTE      PCA0CPH1
      00000098H.3 SFRSYM    DATA     BIT       SCON0_TB8
      000000F0H   SFRSYM    DATA     BIT       B_B0
      00000082H   SFRSYM    DATA     WORD      DP
      00000092H   SFRSYM    DATA     BYTE      TMR4RLL
      000000ECH   SFRSYM    DATA     BYTE      PCA0CPH2
      000000F0H.1 SFRSYM    DATA     BIT       B_B1
LX51 LINKER/LOCATER V4.66.66.0                                                        03/09/2017  11:29:19  PAGE 46


      000000C3H   SFRSYM    DATA     WORD      ADC0GT
      000000CAH   SFRSYM    DATA     BYTE      TMR5RLL
      000000EEH   SFRSYM    DATA     BYTE      PCA0CPH3
      00000080H.3 SFRSYM    DATA     BIT       LCD_SCK
      000000F0H.2 SFRSYM    DATA     BIT       B_B2
      000000FBH   SFRSYM    DATA     BYTE      PCA0CPL0
      000000FEH   SFRSYM    DATA     BYTE      PCA0CPH4
      00000085H   SFRSYM    DATA     BYTE      EMI0CF
      000000F0H.3 SFRSYM    DATA     BIT       B_B3
      000000D9H   SFRSYM    DATA     BYTE      PCA0MD
      000000DAH   SFRSYM    DATA     BYTE      PCA0CPM0
      000000E9H   SFRSYM    DATA     BYTE      PCA0CPL1
      000000F0H.4 SFRSYM    DATA     BIT       B_B4
      000000DBH   SFRSYM    DATA     BYTE      PCA0CPM1
      000000EBH   SFRSYM    DATA     BYTE      PCA0CPL2
      000000F0H.5 SFRSYM    DATA     BIT       B_B5
      000000DCH   SFRSYM    DATA     BYTE      PCA0CPM2
      000000EDH   SFRSYM    DATA     BYTE      PCA0CPL3
      000000B8H   SFRSYM    DATA     BYTE      IP
      000000F0H.6 SFRSYM    DATA     BIT       B_B6
      000000C5H   SFRSYM    DATA     WORD      ADC0LT
      000000DDH   SFRSYM    DATA     BYTE      PCA0CPM3
      000000FDH   SFRSYM    DATA     BYTE      PCA0CPL4
      00000098H.5 SFRSYM    DATA     BIT       SCON0_MCE
      000000F0H.7 SFRSYM    DATA     BIT       B_B7
      000000DEH   SFRSYM    DATA     BYTE      PCA0CPM4
      000000E1H   SFRSYM    DATA     BYTE      XBR0
      000000C1H   SFRSYM    DATA     BYTE      SMB0CF
      000000E2H   SFRSYM    DATA     BYTE      XBR1
      000000C1H   SFRSYM    DATA     BYTE      SMB1CF
      000000AFH   SFRSYM    DATA     BYTE      PFE0CN
      000000AAH   SFRSYM    DATA     BYTE      EMI0CN
      000000C0H.5 SFRSYM    DATA     BIT       SMB0CN0_STA
      000000E3H   SFRSYM    DATA     BYTE      XBR2
      000000C0H.5 SFRSYM    DATA     BIT       SMB1CN0_STA
      000000E0H   SFRSYM    DATA     BIT       ACC_ACC0
      000000D1H   SFRSYM    DATA     BYTE      REF0CN
      000000B2H   SFRSYM    DATA     BYTE      HFO0CN
      0000008EH   SFRSYM    DATA     BYTE      CKCON0
      000000E0H.1 SFRSYM    DATA     BIT       ACC_ACC1
      000000E4H   SFRSYM    DATA     BYTE      CKCON1
      000000C8H.2 SFRSYM    DATA     BIT       TMR2CN0_TR2
      000000E0H.2 SFRSYM    DATA     BIT       ACC_ACC2
      000000E0H.3 SFRSYM    DATA     BIT       ACC_ACC3
      00000081H   SFRSYM    DATA     BYTE      SP
      0000009DH   SFRSYM    DATA     BYTE      CMP0MD
      000000E0H.4 SFRSYM    DATA     BIT       ACC_ACC4
      00000086H   SFRSYM    DATA     BYTE      LFO0CN
      00000084H   SFRSYM    DATA     BYTE      EMI0TC
      0000009CH   SFRSYM    DATA     BYTE      CMP1MD
      000000D8H   SFRSYM    DATA     BIT       PCA0CN0_CCF0
      000000E0H.5 SFRSYM    DATA     BIT       ACC_ACC5
      000000D8H.1 SFRSYM    DATA     BIT       PCA0CN0_CCF1
      000000E0H.6 SFRSYM    DATA     BIT       ACC_ACC6
      000000CCH   SFRSYM    DATA     WORD      TMR2
      000000D8H.2 SFRSYM    DATA     BIT       PCA0CN0_CCF2
      000000E0H.7 SFRSYM    DATA     BIT       ACC_ACC7
      00000094H   SFRSYM    DATA     WORD      TMR3
      000000C8H.2 SFRSYM    DATA     BIT       TMR5CN0_TR5
      000000D8H.3 SFRSYM    DATA     BIT       PCA0CN0_CCF3
      00000094H   SFRSYM    DATA     WORD      TMR4
      000000ACH   SFRSYM    DATA     BYTE      SBCON1
      000000D8H.4 SFRSYM    DATA     BIT       PCA0CN0_CCF4
      000000CCH   SFRSYM    DATA     WORD      TMR5
      000000C0H.3 SFRSYM    DATA     BIT       SMB0CN0_ACKRQ
LX51 LINKER/LOCATER V4.66.66.0                                                        03/09/2017  11:29:19  PAGE 47


      000000FFH   SFRSYM    DATA     BYTE      VDM0CN
      000000F1H   SFRSYM    DATA     BYTE      P0MDIN
      000000C0H.3 SFRSYM    DATA     BIT       SMB1CN0_ACKRQ
      00000098H.4 SFRSYM    DATA     BIT       SCON0_REN
      000000F2H   SFRSYM    DATA     BYTE      P1MDIN
      000000F3H   SFRSYM    DATA     BYTE      P2MDIN
      000000C0H.4 SFRSYM    DATA     BIT       SMB0CN0_STO
      000000F4H   SFRSYM    DATA     BYTE      P3MDIN
      00000090H.3 SFRSYM    DATA     BIT       LCD_RST
      000000C0H.4 SFRSYM    DATA     BIT       SMB1CN0_STO
      000000B5H   SFRSYM    DATA     BYTE      SBRLH1
      000000F5H   SFRSYM    DATA     BYTE      P4MDIN
      000000D0H.3 SFRSYM    DATA     BIT       PSW_RS0
      000000D8H.7 SFRSYM    DATA     BIT       PCA0CN0_CF
      000000F8H.4 SFRSYM    DATA     BIT       SPI0CN0_RXOVRN
      000000D0H.4 SFRSYM    DATA     BIT       PSW_RS1
      000000B4H   SFRSYM    DATA     BYTE      SBRLL1
      000000E8H.7 SFRSYM    DATA     BIT       ADC0CN0_ADEN
      00000089H   SFRSYM    DATA     BYTE      TMOD
      00000088H   SFRSYM    DATA     BYTE      TCON
      000000D0H   SFRSYM    DATA     BIT       PSW_PARITY
      000000A8H.4 SFRSYM    DATA     BIT       IE_ES0
      0000009FH   SFRSYM    DATA     BYTE      CMP0MX
      000000A8H.1 SFRSYM    DATA     BIT       IE_ET0
      0000009EH   SFRSYM    DATA     BYTE      CMP1MX
      000000A8H.3 SFRSYM    DATA     BIT       IE_ET1
      000000D4H   SFRSYM    DATA     BYTE      P0SKIP
      000000C8H.1 SFRSYM    DATA     BIT       TMR2CN0_T2CSS
      000000A8H.5 SFRSYM    DATA     BIT       IE_ET2
      000000D5H   SFRSYM    DATA     BYTE      P1SKIP
      000000D6H   SFRSYM    DATA     BYTE      P2SKIP
      000000E8H   SFRSYM    DATA     BYTE      ADC0CN0
      000000A8H   SFRSYM    DATA     BIT       IE_EX0
      000000DFH   SFRSYM    DATA     BYTE      P3SKIP
      000000D8H.6 SFRSYM    DATA     BIT       PCA0CN0_CR
      000000A8H.2 SFRSYM    DATA     BIT       IE_EX1
      00000098H.7 SFRSYM    DATA     BIT       SCON0_SMODE
      000000A9H   SFRSYM    DATA     BYTE      CLKSEL
      000000F8H   SFRSYM    DATA     BIT       SPI0CN0_SPIEN
      000000F0H   SFRSYM    DATA     BYTE      B
      000000BEH   SFRSYM    DATA     BYTE      ADC0H
      000000E8H.6 SFRSYM    DATA     BIT       ADC0CN0_ADTM
      000000CAH   SFRSYM    DATA     WORD      TMR2RL
      000000BDH   SFRSYM    DATA     BYTE      ADC0L
      00000092H   SFRSYM    DATA     WORD      TMR3RL
      00000092H   SFRSYM    DATA     WORD      TMR4RL
      000000D8H   SFRSYM    DATA     BYTE      PCA0CN0
      000000E0H   SFRSYM    DATA     BYTE      ACC
      000000CAH   SFRSYM    DATA     WORD      TMR5RL
      000000FBH   SFRSYM    DATA     WORD      PCA0CP0
      00000080H.6 SFRSYM    DATA     BIT       LCD_CS
      000000E9H   SFRSYM    DATA     WORD      PCA0CP1
      000000EBH   SFRSYM    DATA     WORD      PCA0CP2
      000000EDH   SFRSYM    DATA     WORD      PCA0CP3
      0000008CH   SFRSYM    DATA     BYTE      TH0
      000000B8H.4 SFRSYM    DATA     BIT       IP_PS0
      000000FDH   SFRSYM    DATA     WORD      PCA0CP4
      0000008DH   SFRSYM    DATA     BYTE      TH1
      000000FAH   SFRSYM    DATA     BYTE      PCA0H
      000000B8H.1 SFRSYM    DATA     BIT       IP_PT0
      000000B8H.3 SFRSYM    DATA     BIT       IP_PT1
      000000C0H.2 SFRSYM    DATA     BIT       SMB0CN0_ARBLOST
      000000B8H.5 SFRSYM    DATA     BIT       IP_PT2
      0000008AH   SFRSYM    DATA     BYTE      TL0
      000000F8H.1 SFRSYM    DATA     BIT       SPI0CN0_TXBMT
LX51 LINKER/LOCATER V4.66.66.0                                                        03/09/2017  11:29:19  PAGE 48


      000000C0H.2 SFRSYM    DATA     BIT       SMB1CN0_ARBLOST
      000000D0H.5 SFRSYM    DATA     BIT       PSW_F0
      000000A8H.6 SFRSYM    DATA     BIT       IE_ESPI0
      0000008BH   SFRSYM    DATA     BYTE      TL1
      000000F9H   SFRSYM    DATA     BYTE      PCA0L
      000000C0H   SFRSYM    DATA     BIT       SMB0CN0_SI
      000000D0H.1 SFRSYM    DATA     BIT       PSW_F1
      00000080H   SFRSYM    DATA     BIT       P0_B0
      000000B8H   SFRSYM    DATA     BIT       IP_PX0
      000000C9H   SFRSYM    DATA     BYTE      REG01CN
      000000C0H   SFRSYM    DATA     BIT       SMB1CN0_SI
      00000090H   SFRSYM    DATA     BIT       P1_B0
      00000080H.1 SFRSYM    DATA     BIT       P0_B1
      000000B8H.2 SFRSYM    DATA     BIT       IP_PX1
      0000009BH   SFRSYM    DATA     BYTE      CMP0CN0
      00000088H.1 SFRSYM    DATA     BIT       TCON_IE0
      000000A0H   SFRSYM    DATA     BIT       P2_B0
      00000090H.1 SFRSYM    DATA     BIT       P1_B1
      00000080H.2 SFRSYM    DATA     BIT       P0_B2
      0000009AH   SFRSYM    DATA     BYTE      CMP1CN0
      00000088H.3 SFRSYM    DATA     BIT       TCON_IE1
      000000B0H   SFRSYM    DATA     BIT       P3_B0
      000000A0H.1 SFRSYM    DATA     BIT       P2_B1
      00000090H.2 SFRSYM    DATA     BIT       P1_B2
      00000080H.3 SFRSYM    DATA     BIT       P0_B3
      000000C0H   SFRSYM    DATA     BYTE      SMB0CN0
      000000B0H.1 SFRSYM    DATA     BIT       P3_B1
      000000A0H.2 SFRSYM    DATA     BIT       P2_B2
      00000090H.3 SFRSYM    DATA     BIT       P1_B3
      00000080H.4 SFRSYM    DATA     BIT       P0_B4
      000000C0H   SFRSYM    DATA     BYTE      SMB1CN0
      000000B0H.2 SFRSYM    DATA     BIT       P3_B2
      000000A0H.3 SFRSYM    DATA     BIT       P2_B3
      00000090H.4 SFRSYM    DATA     BIT       P1_B4
      00000080H.5 SFRSYM    DATA     BIT       P0_B5
      000000B0H.3 SFRSYM    DATA     BIT       P3_B3
      000000A0H.4 SFRSYM    DATA     BIT       P2_B4
      00000090H.5 SFRSYM    DATA     BIT       P1_B5
      00000080H.6 SFRSYM    DATA     BIT       P0_B6
      00000080H.2 SFRSYM    DATA     BIT       LCD_RS
      000000B0H.4 SFRSYM    DATA     BIT       P3_B4
      000000A0H.5 SFRSYM    DATA     BIT       P2_B5
      00000090H.6 SFRSYM    DATA     BIT       P1_B6
      00000080H.7 SFRSYM    DATA     BIT       P0_B7
      000000B0H.5 SFRSYM    DATA     BIT       P3_B5
      000000A0H.6 SFRSYM    DATA     BIT       P2_B6
      00000090H.7 SFRSYM    DATA     BIT       P1_B7
      000000B0H.6 SFRSYM    DATA     BIT       P3_B6
      000000A0H.7 SFRSYM    DATA     BIT       P2_B7
      000000B0H.7 SFRSYM    DATA     BIT       P3_B7
      00000083H   SFRSYM    DATA     BYTE      DPH
      000000C4H   SFRSYM    DATA     BYTE      ADC0GTH
      000000C8H.7 SFRSYM    DATA     BIT       TMR2CN0_TF2H
      000000C8H.3 SFRSYM    DATA     BIT       TMR2CN0_T2SPLIT
      000000D0H.6 SFRSYM    DATA     BIT       PSW_AC
      000000F8H   SFRSYM    DATA     BYTE      SPI0CN0
      000000B3H   SFRSYM    DATA     BYTE      HFO0CAL
      00000080H   SFRSYM    DATA     BIT       BtnEntGpio
      00000088H.5 SFRSYM    DATA     BIT       TCON_TF0
      00000098H   SFRSYM    DATA     BIT       SCON0_RI
      00000082H   SFRSYM    DATA     BYTE      DPL
      00000088H.7 SFRSYM    DATA     BIT       TCON_TF1
      00000099H   SFRSYM    DATA     BYTE      SBUF0
      00000087H   SFRSYM    DATA     BYTE      PCON0
      000000C3H   SFRSYM    DATA     BYTE      ADC0GTL
LX51 LINKER/LOCATER V4.66.66.0                                                        03/09/2017  11:29:19  PAGE 49


      000000C8H.6 SFRSYM    DATA     BIT       TMR2CN0_TF2L
      00000098H.1 SFRSYM    DATA     BIT       SCON0_TI
      000000E8H   SFRSYM    DATA     BIT       ADC0CN0_ADCM0
      000000D3H   SFRSYM    DATA     BYTE      SBUF1
      000000C6H   SFRSYM    DATA     BYTE      ADC0LTH
      00000088H   SFRSYM    DATA     BIT       TCON_IT0
      000000E8H.1 SFRSYM    DATA     BIT       ADC0CN0_ADCM1
      000000EFH   SFRSYM    DATA     BYTE      RSTSRC
      000000C8H.7 SFRSYM    DATA     BIT       TMR5CN0_TF5H
      000000C8H.3 SFRSYM    DATA     BIT       TMR5CN0_T5SPLIT
      00000088H.2 SFRSYM    DATA     BIT       TCON_IT1
      000000E8H.2 SFRSYM    DATA     BIT       ADC0CN0_ADCM2
      00000098H   SFRSYM    DATA     BYTE      SCON0
      000000E8H.3 SFRSYM    DATA     BIT       ADC0CN0_ADWINT
      000000B4H   SFRSYM    DATA     WORD      SBRL1
      000000E5H   SFRSYM    DATA     BYTE      SMOD1
      000000D2H   SFRSYM    DATA     BYTE      SCON1
      000000BAH   SFRSYM    DATA     BYTE      AMX0N
      000000E8H.4 SFRSYM    DATA     BIT       ADC0CN0_ADBUSY
      000000CEH   SFRSYM    DATA     BYTE      SMB0ADM
      000000C5H   SFRSYM    DATA     BYTE      ADC0LTL
      000000F8H.5 SFRSYM    DATA     BIT       SPI0CN0_MODF
      000000B8H.6 SFRSYM    DATA     BIT       IP_PSPI0
      000000CEH   SFRSYM    DATA     BYTE      SMB1ADM
      000000BBH   SFRSYM    DATA     BYTE      AMX0P
      000000C8H.6 SFRSYM    DATA     BIT       TMR5CN0_TF5L
      000000C8H   SFRSYM    DATA     BYTE      TMR2CN0
      00000091H   SFRSYM    DATA     BYTE      TMR3CN0
      00000080H.1 SFRSYM    DATA     BIT       BtnExtGpio
      00000091H   SFRSYM    DATA     BYTE      TMR4CN0
      000000C8H   SFRSYM    DATA     BYTE      TMR5CN0
      000000CFH   SFRSYM    DATA     BYTE      SMB0ADR
      00000088H.4 SFRSYM    DATA     BIT       TCON_TR0
      000000CFH   SFRSYM    DATA     BYTE      SMB1ADR
      000000C8H.4 SFRSYM    DATA     BIT       TMR2CN0_TF2CEN
      00000088H.6 SFRSYM    DATA     BIT       TCON_TR1
      000000C2H   SFRSYM    DATA     BYTE      SMB0DAT
      00000080H.4 SFRSYM    DATA     BIT       RC_OUT
      000000CDH   SFRSYM    DATA     BYTE      TMR2H
      000000A1H   SFRSYM    DATA     BYTE      SPI0CFG
      000000C2H   SFRSYM    DATA     BYTE      SMB1DAT
      00000095H   SFRSYM    DATA     BYTE      TMR3H
      00000095H   SFRSYM    DATA     BYTE      TMR4H
      000000CDH   SFRSYM    DATA     BYTE      TMR5H
      000000CCH   SFRSYM    DATA     BYTE      TMR2L
      00000090H.5 SFRSYM    DATA     BIT       BtnDwGpio
      000000F8H.7 SFRSYM    DATA     BIT       SPI0CN0_SPIF
      00000096H   SFRSYM    DATA     BYTE      USB0ADR
      00000094H   SFRSYM    DATA     BYTE      TMR3L
      000000A8H.7 SFRSYM    DATA     BIT       IE_EA
      00000094H   SFRSYM    DATA     BYTE      TMR4L
      00000097H   SFRSYM    DATA     BYTE      USB0DAT
      000000CCH   SFRSYM    DATA     BYTE      TMR5L
      000000B6H   SFRSYM    DATA     BYTE      FLSCL
      000000C8H.5 SFRSYM    DATA     BIT       TMR2CN0_TF2LEN
      000000F8H.6 SFRSYM    DATA     BIT       SPI0CN0_WCOL
      000000F8H.2 SFRSYM    DATA     BIT       SPI0CN0_NSSMD0
      000000D0H.7 SFRSYM    DATA     BIT       PSW_CY
      000000A3H   SFRSYM    DATA     BYTE      SPI0DAT
      000000F8H.3 SFRSYM    DATA     BIT       SPI0CN0_NSSMD1
      000000BDH   SFRSYM    DATA     WORD      ADC0
      000000B9H   SFRSYM    DATA     BYTE      SMBTC
      000000D0H   SFRSYM    DATA     BYTE      PSW
      000000C8H.5 SFRSYM    DATA     BIT       TMR5CN0_TF5LEN
      000000B7H   SFRSYM    DATA     BYTE      FLKEY
LX51 LINKER/LOCATER V4.66.66.0                                                        03/09/2017  11:29:19  PAGE 50


      00000090H.4 SFRSYM    DATA     BIT       BtnUpGpio

      0100708EH   BLOCK     CODE     ---       LVL=0
      0100708EH   BLOCK     CODE     NEAR LAB  LVL=1
      020009F5H   SYMBOL    XDATA    BYTE      i
      ---         BLOCKEND  ---      ---       LVL=1
      0100708EH   LINE      CODE     ---       #35
      0100708EH   LINE      CODE     ---       #38
      01007093H   LINE      CODE     ---       #39
      010070A3H   LINE      CODE     ---       #40
      010070B9H   LINE      CODE     ---       #41
      010070C1H   LINE      CODE     ---       #43
      010070CCH   LINE      CODE     ---       #44
      010070D1H   LINE      CODE     ---       #46
      010070DDH   LINE      CODE     ---       #47
      010070E9H   LINE      CODE     ---       #49
      010070ECH   LINE      CODE     ---       #50
      010070F8H   LINE      CODE     ---       #51
      ---         BLOCKEND  ---      ---       LVL=0

      010053DFH   BLOCK     CODE     ---       LVL=0
      010053DFH   BLOCK     CODE     NEAR LAB  LVL=1
      020009F6H   SYMBOL    XDATA    BYTE      i
      ---         BLOCKEND  ---      ---       LVL=1
      010053DFH   LINE      CODE     ---       #53
      010053DFH   LINE      CODE     ---       #57
      01005419H   LINE      CODE     ---       #58
      0100541FH   LINE      CODE     ---       #59
      01005424H   LINE      CODE     ---       #62
      01005426H   LINE      CODE     ---       #63
      01005433H   LINE      CODE     ---       #66
      01005466H   LINE      CODE     ---       #67
      0100546BH   LINE      CODE     ---       #68
      01005471H   LINE      CODE     ---       #69
      01005478H   LINE      CODE     ---       #72
      010054B2H   LINE      CODE     ---       #73
      010054B7H   LINE      CODE     ---       #74
      010054BCH   LINE      CODE     ---       #82
      010054CDH   LINE      CODE     ---       #83
      010054F5H   LINE      CODE     ---       #84
      010054FDH   LINE      CODE     ---       #85
      ---         BLOCKEND  ---      ---       LVL=0

      01005D48H   BLOCK     CODE     ---       LVL=0
      01005D48H   LINE      CODE     ---       #88
      01005D59H   LINE      CODE     ---       #89
      01005D5BH   LINE      CODE     ---       #90
      01005D5DH   LINE      CODE     ---       #92
      01005D65H   LINE      CODE     ---       #93
      01005D85H   LINE      CODE     ---       #94
      01005D8EH   LINE      CODE     ---       #95
      01005D98H   LINE      CODE     ---       #96
      01005D98H   LINE      CODE     ---       #98
      01005D9EH   LINE      CODE     ---       #99
      01005DA4H   LINE      CODE     ---       #100
      01005DA7H   LINE      CODE     ---       #101
      01005DAFH   LINE      CODE     ---       #102
      01005DBAH   LINE      CODE     ---       #103
      01005DC0H   LINE      CODE     ---       #104
      01005DCBH   LINE      CODE     ---       #105
      01005DCEH   LINE      CODE     ---       #106
      01005DD1H   LINE      CODE     ---       #107
      01005DD3H   LINE      CODE     ---       #108
      01005DD5H   LINE      CODE     ---       #109
      01005DE1H   LINE      CODE     ---       #110
LX51 LINKER/LOCATER V4.66.66.0                                                        03/09/2017  11:29:19  PAGE 51


      01005DE6H   LINE      CODE     ---       #111
      01005DF4H   LINE      CODE     ---       #112
      01005DF4H   LINE      CODE     ---       #113
      01005DF6H   LINE      CODE     ---       #114
      01005E16H   LINE      CODE     ---       #115
      01005E1CH   LINE      CODE     ---       #117
      01005E1FH   LINE      CODE     ---       #118
      01005E22H   LINE      CODE     ---       #119
      01005E24H   LINE      CODE     ---       #121
      01005E28H   LINE      CODE     ---       #122
      01005E28H   LINE      CODE     ---       #123
      01005E2AH   LINE      CODE     ---       #124
      01005E30H   LINE      CODE     ---       #126
      01005E33H   LINE      CODE     ---       #127
      01005E36H   LINE      CODE     ---       #128
      01005E38H   LINE      CODE     ---       #130
      01005E3CH   LINE      CODE     ---       #131
      01005E3CH   LINE      CODE     ---       #132
      01005E3CH   LINE      CODE     ---       #133
      ---         BLOCKEND  ---      ---       LVL=0

      01007161H   BLOCK     CODE     ---       LVL=0
      01007161H   LINE      CODE     ---       #136
      01007170H   LINE      CODE     ---       #137
      01007172H   LINE      CODE     ---       #139
      01007183H   LINE      CODE     ---       #140
      01007187H   LINE      CODE     ---       #141
      01007189H   LINE      CODE     ---       #142
      0100718CH   LINE      CODE     ---       #143
      0100718EH   LINE      CODE     ---       #144
      01007190H   LINE      CODE     ---       #145
      01007193H   LINE      CODE     ---       #147
      0100719BH   LINE      CODE     ---       #148
      0100719BH   LINE      CODE     ---       #149
      0100719DH   LINE      CODE     ---       #150
      010071A5H   LINE      CODE     ---       #151
      010071ADH   LINE      CODE     ---       #152
      010071ADH   LINE      CODE     ---       #153
      010071AFH   LINE      CODE     ---       #154
      010071BBH   LINE      CODE     ---       #155
      010071BBH   LINE      CODE     ---       #156
      ---         BLOCKEND  ---      ---       LVL=0

      010075C5H   BLOCK     CODE     ---       LVL=0
      010075C5H   LINE      CODE     ---       #158
      010075D2H   LINE      CODE     ---       #159
      010075D5H   LINE      CODE     ---       #160
      010075D9H   LINE      CODE     ---       #161
      010075DEH   LINE      CODE     ---       #162
      010075E1H   LINE      CODE     ---       #163
      010075ECH   LINE      CODE     ---       #164
      010075EFH   LINE      CODE     ---       #165
      010075F2H   LINE      CODE     ---       #166
      010075F4H   LINE      CODE     ---       #167
      010075F4H   LINE      CODE     ---       #168
      010075FCH   LINE      CODE     ---       #169
      010075FCH   LINE      CODE     ---       #170
      010075FCH   LINE      CODE     ---       #171
      ---         BLOCKEND  ---      ---       LVL=0

      01006B6AH   BLOCK     CODE     ---       LVL=0
      020009BFH   SYMBOL    XDATA    ---       pDat
      020009C2H   SYMBOL    XDATA    BYTE      DatSize
      01006B7AH   BLOCK     CODE     NEAR LAB  LVL=1
      020009C3H   SYMBOL    XDATA    BYTE      i
LX51 LINKER/LOCATER V4.66.66.0                                                        03/09/2017  11:29:19  PAGE 52


      ---         BLOCKEND  ---      ---       LVL=1
      01006B6AH   LINE      CODE     ---       #174
      01006B7AH   LINE      CODE     ---       #177
      01006B82H   LINE      CODE     ---       #178
      01006B96H   LINE      CODE     ---       #179
      01006BC2H   LINE      CODE     ---       #180
      01006BCAH   LINE      CODE     ---       #182
      01006BE2H   LINE      CODE     ---       #183
      01006BF2H   LINE      CODE     ---       #184
      01006BF5H   LINE      CODE     ---       #185
      01006BF5H   LINE      CODE     ---       #186
      01006BF7H   LINE      CODE     ---       #187
      ---         BLOCKEND  ---      ---       LVL=0

      ---         MODULE    ---      ---       STABLIZER
      0200082FH   PUBLIC    XDATA    BYTE      RxStatusIdx
      0200082EH   PUBLIC    XDATA    BYTE      RxPackageData
      00000038H   PUBLIC    DATA     WORD      StablizerTickCnt
      0200082DH   PUBLIC    XDATA    BYTE      RxPackageLength
      0200082BH   PUBLIC    XDATA    INT       SumPre
      00000037H   PUBLIC    DATA     BYTE      DetectStablizerTickOverFlow
      0200081EH   PUBLIC    XDATA    ---       TxSocketDat
      02000811H   PUBLIC    XDATA    ---       RxSocketDat
      00000035H   PUBLIC    DATA     WORD      DetectStablizerTickCnt
      02000810H   PUBLIC    XDATA    BYTE      RxDatHandle
      0200080EH   PUBLIC    XDATA    INT       Sum
      0200080DH   PUBLIC    XDATA    BYTE      RxPackageCnt
      020007E9H   PUBLIC    XDATA    ---       StabilizerParam
      020007E8H   PUBLIC    XDATA    BYTE      RxTxStatue
      00000034H   PUBLIC    DATA     BYTE      StablizerTickOverFlow
      01005F4CH   PUBLIC    CODE     ---       UART1_ISR
      01006E1DH   PUBLIC    CODE     ---       StablizerProcessHandle
      01006D0FH   PUBLIC    CODE     ---       StablizerDetect
      010067A5H   PUBLIC    CODE     ---       StablizerDatInit
      010063E4H   PUBLIC    CODE     ---       _DetectChargeParameter
      010066F1H   PUBLIC    CODE     ---       RxSocketHandler
      01003D6AH   PUBLIC    CODE     ---       RxSocketDeCode
      01004377H   PUBLIC    CODE     ---       UART1_Write_Encode
      0100772DH   PUBLIC    CODE     ---       UART1_Read_Encode
      01007284H   PUBLIC    CODE     ---       _UART1_Write_Buffer
      000000A2H   SFRSYM    DATA     BYTE      SPI0CKR
      00000080H   SFRSYM    DATA     BYTE      P0
      000000D0H.2 SFRSYM    DATA     BIT       PSW_OV
      000000B1H   SFRSYM    DATA     BYTE      XOSC0CN
      00000090H   SFRSYM    DATA     BYTE      P1
      000000A0H   SFRSYM    DATA     BYTE      P2
      000000B0H   SFRSYM    DATA     BYTE      P3
      000000BCH   SFRSYM    DATA     BYTE      ADC0CF
      000000C8H   SFRSYM    DATA     BIT       TMR2CN0_T2XCLK
      000000C7H   SFRSYM    DATA     BYTE      P4
      000000C0H.7 SFRSYM    DATA     BIT       SMB0CN0_MASTER
      000000F9H   SFRSYM    DATA     WORD      PCA0
      000000E6H   SFRSYM    DATA     BYTE      EIE1
      000000C0H.7 SFRSYM    DATA     BIT       SMB1CN0_MASTER
      000000C0H.1 SFRSYM    DATA     BIT       SMB0CN0_ACK
      000000D7H   SFRSYM    DATA     BYTE      USB0XCN
      000000E7H   SFRSYM    DATA     BYTE      EIE2
      000000C0H.1 SFRSYM    DATA     BIT       SMB1CN0_ACK
      0000008FH   SFRSYM    DATA     BYTE      PSCTL
      000000E4H   SFRSYM    DATA     BYTE      IT01CF
      000000C8H   SFRSYM    DATA     BIT       TMR5CN0_T5XCLK
      000000C0H.6 SFRSYM    DATA     BIT       SMB0CN0_TXMODE
      000000C0H.6 SFRSYM    DATA     BIT       SMB1CN0_TXMODE
      000000BFH   SFRSYM    DATA     BYTE      SFRPAGE
      000000A4H   SFRSYM    DATA     BYTE      P0MDOUT
LX51 LINKER/LOCATER V4.66.66.0                                                        03/09/2017  11:29:19  PAGE 53


      00000080H.5 SFRSYM    DATA     BIT       LCD_SDA
      000000A5H   SFRSYM    DATA     BYTE      P1MDOUT
      000000E8H.5 SFRSYM    DATA     BIT       ADC0CN0_ADINT
      000000CBH   SFRSYM    DATA     BYTE      TMR2RLH
      000000A6H   SFRSYM    DATA     BYTE      P2MDOUT
      000000A8H   SFRSYM    DATA     BYTE      IE
      00000093H   SFRSYM    DATA     BYTE      TMR3RLH
      000000A7H   SFRSYM    DATA     BYTE      P3MDOUT
      00000093H   SFRSYM    DATA     BYTE      TMR4RLH
      000000AEH   SFRSYM    DATA     BYTE      P4MDOUT
      000000F6H   SFRSYM    DATA     BYTE      EIP1
      000000CBH   SFRSYM    DATA     BYTE      TMR5RLH
      000000F7H   SFRSYM    DATA     BYTE      EIP2
      00000098H.2 SFRSYM    DATA     BIT       SCON0_RB8
      000000CAH   SFRSYM    DATA     BYTE      TMR2RLL
      000000FCH   SFRSYM    DATA     BYTE      PCA0CPH0
      00000092H   SFRSYM    DATA     BYTE      TMR3RLL
      000000EAH   SFRSYM    DATA     BYTE      PCA0CPH1
      00000098H.3 SFRSYM    DATA     BIT       SCON0_TB8
      000000F0H   SFRSYM    DATA     BIT       B_B0
      00000082H   SFRSYM    DATA     WORD      DP
      00000092H   SFRSYM    DATA     BYTE      TMR4RLL
      000000ECH   SFRSYM    DATA     BYTE      PCA0CPH2
      000000F0H.1 SFRSYM    DATA     BIT       B_B1
      000000C3H   SFRSYM    DATA     WORD      ADC0GT
      000000CAH   SFRSYM    DATA     BYTE      TMR5RLL
      000000EEH   SFRSYM    DATA     BYTE      PCA0CPH3
      00000080H.3 SFRSYM    DATA     BIT       LCD_SCK
      000000F0H.2 SFRSYM    DATA     BIT       B_B2
      000000FBH   SFRSYM    DATA     BYTE      PCA0CPL0
      000000FEH   SFRSYM    DATA     BYTE      PCA0CPH4
      00000085H   SFRSYM    DATA     BYTE      EMI0CF
      000000F0H.3 SFRSYM    DATA     BIT       B_B3
      000000D9H   SFRSYM    DATA     BYTE      PCA0MD
      000000DAH   SFRSYM    DATA     BYTE      PCA0CPM0
      000000E9H   SFRSYM    DATA     BYTE      PCA0CPL1
      000000F0H.4 SFRSYM    DATA     BIT       B_B4
      000000DBH   SFRSYM    DATA     BYTE      PCA0CPM1
      000000EBH   SFRSYM    DATA     BYTE      PCA0CPL2
      000000F0H.5 SFRSYM    DATA     BIT       B_B5
      000000DCH   SFRSYM    DATA     BYTE      PCA0CPM2
      000000EDH   SFRSYM    DATA     BYTE      PCA0CPL3
      000000B8H   SFRSYM    DATA     BYTE      IP
      000000F0H.6 SFRSYM    DATA     BIT       B_B6
      000000C5H   SFRSYM    DATA     WORD      ADC0LT
      000000DDH   SFRSYM    DATA     BYTE      PCA0CPM3
      000000FDH   SFRSYM    DATA     BYTE      PCA0CPL4
      00000098H.5 SFRSYM    DATA     BIT       SCON0_MCE
      000000F0H.7 SFRSYM    DATA     BIT       B_B7
      000000DEH   SFRSYM    DATA     BYTE      PCA0CPM4
      000000E1H   SFRSYM    DATA     BYTE      XBR0
      000000C1H   SFRSYM    DATA     BYTE      SMB0CF
      000000E2H   SFRSYM    DATA     BYTE      XBR1
      000000C1H   SFRSYM    DATA     BYTE      SMB1CF
      000000AFH   SFRSYM    DATA     BYTE      PFE0CN
      000000AAH   SFRSYM    DATA     BYTE      EMI0CN
      000000C0H.5 SFRSYM    DATA     BIT       SMB0CN0_STA
      000000E3H   SFRSYM    DATA     BYTE      XBR2
      000000C0H.5 SFRSYM    DATA     BIT       SMB1CN0_STA
      000000E0H   SFRSYM    DATA     BIT       ACC_ACC0
      000000D1H   SFRSYM    DATA     BYTE      REF0CN
      000000B2H   SFRSYM    DATA     BYTE      HFO0CN
      0000008EH   SFRSYM    DATA     BYTE      CKCON0
      000000E0H.1 SFRSYM    DATA     BIT       ACC_ACC1
      000000E4H   SFRSYM    DATA     BYTE      CKCON1
LX51 LINKER/LOCATER V4.66.66.0                                                        03/09/2017  11:29:19  PAGE 54


      000000C8H.2 SFRSYM    DATA     BIT       TMR2CN0_TR2
      000000E0H.2 SFRSYM    DATA     BIT       ACC_ACC2
      000000E0H.3 SFRSYM    DATA     BIT       ACC_ACC3
      00000081H   SFRSYM    DATA     BYTE      SP
      0000009DH   SFRSYM    DATA     BYTE      CMP0MD
      000000E0H.4 SFRSYM    DATA     BIT       ACC_ACC4
      00000086H   SFRSYM    DATA     BYTE      LFO0CN
      00000084H   SFRSYM    DATA     BYTE      EMI0TC
      0000009CH   SFRSYM    DATA     BYTE      CMP1MD
      000000D8H   SFRSYM    DATA     BIT       PCA0CN0_CCF0
      000000E0H.5 SFRSYM    DATA     BIT       ACC_ACC5
      000000D8H.1 SFRSYM    DATA     BIT       PCA0CN0_CCF1
      000000E0H.6 SFRSYM    DATA     BIT       ACC_ACC6
      000000CCH   SFRSYM    DATA     WORD      TMR2
      000000D8H.2 SFRSYM    DATA     BIT       PCA0CN0_CCF2
      000000E0H.7 SFRSYM    DATA     BIT       ACC_ACC7
      00000094H   SFRSYM    DATA     WORD      TMR3
      000000C8H.2 SFRSYM    DATA     BIT       TMR5CN0_TR5
      000000D8H.3 SFRSYM    DATA     BIT       PCA0CN0_CCF3
      00000094H   SFRSYM    DATA     WORD      TMR4
      000000ACH   SFRSYM    DATA     BYTE      SBCON1
      000000D8H.4 SFRSYM    DATA     BIT       PCA0CN0_CCF4
      000000CCH   SFRSYM    DATA     WORD      TMR5
      000000C0H.3 SFRSYM    DATA     BIT       SMB0CN0_ACKRQ
      000000FFH   SFRSYM    DATA     BYTE      VDM0CN
      000000F1H   SFRSYM    DATA     BYTE      P0MDIN
      000000C0H.3 SFRSYM    DATA     BIT       SMB1CN0_ACKRQ
      00000098H.4 SFRSYM    DATA     BIT       SCON0_REN
      000000F2H   SFRSYM    DATA     BYTE      P1MDIN
      000000F3H   SFRSYM    DATA     BYTE      P2MDIN
      000000C0H.4 SFRSYM    DATA     BIT       SMB0CN0_STO
      000000F4H   SFRSYM    DATA     BYTE      P3MDIN
      00000090H.3 SFRSYM    DATA     BIT       LCD_RST
      000000C0H.4 SFRSYM    DATA     BIT       SMB1CN0_STO
      000000B5H   SFRSYM    DATA     BYTE      SBRLH1
      000000F5H   SFRSYM    DATA     BYTE      P4MDIN
      000000D0H.3 SFRSYM    DATA     BIT       PSW_RS0
      000000D8H.7 SFRSYM    DATA     BIT       PCA0CN0_CF
      000000F8H.4 SFRSYM    DATA     BIT       SPI0CN0_RXOVRN
      000000D0H.4 SFRSYM    DATA     BIT       PSW_RS1
      000000B4H   SFRSYM    DATA     BYTE      SBRLL1
      000000E8H.7 SFRSYM    DATA     BIT       ADC0CN0_ADEN
      00000089H   SFRSYM    DATA     BYTE      TMOD
      00000088H   SFRSYM    DATA     BYTE      TCON
      000000D0H   SFRSYM    DATA     BIT       PSW_PARITY
      000000A8H.4 SFRSYM    DATA     BIT       IE_ES0
      0000009FH   SFRSYM    DATA     BYTE      CMP0MX
      000000A8H.1 SFRSYM    DATA     BIT       IE_ET0
      0000009EH   SFRSYM    DATA     BYTE      CMP1MX
      000000A8H.3 SFRSYM    DATA     BIT       IE_ET1
      000000D4H   SFRSYM    DATA     BYTE      P0SKIP
      000000C8H.1 SFRSYM    DATA     BIT       TMR2CN0_T2CSS
      000000A8H.5 SFRSYM    DATA     BIT       IE_ET2
      000000D5H   SFRSYM    DATA     BYTE      P1SKIP
      000000D6H   SFRSYM    DATA     BYTE      P2SKIP
      000000E8H   SFRSYM    DATA     BYTE      ADC0CN0
      000000A8H   SFRSYM    DATA     BIT       IE_EX0
      000000DFH   SFRSYM    DATA     BYTE      P3SKIP
      000000D8H.6 SFRSYM    DATA     BIT       PCA0CN0_CR
      000000A8H.2 SFRSYM    DATA     BIT       IE_EX1
      00000098H.7 SFRSYM    DATA     BIT       SCON0_SMODE
      000000A9H   SFRSYM    DATA     BYTE      CLKSEL
      000000F8H   SFRSYM    DATA     BIT       SPI0CN0_SPIEN
      000000F0H   SFRSYM    DATA     BYTE      B
      000000BEH   SFRSYM    DATA     BYTE      ADC0H
LX51 LINKER/LOCATER V4.66.66.0                                                        03/09/2017  11:29:19  PAGE 55


      000000E8H.6 SFRSYM    DATA     BIT       ADC0CN0_ADTM
      000000CAH   SFRSYM    DATA     WORD      TMR2RL
      000000BDH   SFRSYM    DATA     BYTE      ADC0L
      00000092H   SFRSYM    DATA     WORD      TMR3RL
      00000092H   SFRSYM    DATA     WORD      TMR4RL
      000000D8H   SFRSYM    DATA     BYTE      PCA0CN0
      000000E0H   SFRSYM    DATA     BYTE      ACC
      000000CAH   SFRSYM    DATA     WORD      TMR5RL
      000000FBH   SFRSYM    DATA     WORD      PCA0CP0
      00000080H.6 SFRSYM    DATA     BIT       LCD_CS
      000000E9H   SFRSYM    DATA     WORD      PCA0CP1
      000000EBH   SFRSYM    DATA     WORD      PCA0CP2
      000000EDH   SFRSYM    DATA     WORD      PCA0CP3
      0000008CH   SFRSYM    DATA     BYTE      TH0
      000000B8H.4 SFRSYM    DATA     BIT       IP_PS0
      000000FDH   SFRSYM    DATA     WORD      PCA0CP4
      0000008DH   SFRSYM    DATA     BYTE      TH1
      000000FAH   SFRSYM    DATA     BYTE      PCA0H
      000000B8H.1 SFRSYM    DATA     BIT       IP_PT0
      000000B8H.3 SFRSYM    DATA     BIT       IP_PT1
      000000C0H.2 SFRSYM    DATA     BIT       SMB0CN0_ARBLOST
      000000B8H.5 SFRSYM    DATA     BIT       IP_PT2
      0000008AH   SFRSYM    DATA     BYTE      TL0
      000000F8H.1 SFRSYM    DATA     BIT       SPI0CN0_TXBMT
      000000C0H.2 SFRSYM    DATA     BIT       SMB1CN0_ARBLOST
      000000D0H.5 SFRSYM    DATA     BIT       PSW_F0
      000000A8H.6 SFRSYM    DATA     BIT       IE_ESPI0
      0000008BH   SFRSYM    DATA     BYTE      TL1
      000000F9H   SFRSYM    DATA     BYTE      PCA0L
      000000C0H   SFRSYM    DATA     BIT       SMB0CN0_SI
      000000D0H.1 SFRSYM    DATA     BIT       PSW_F1
      00000080H   SFRSYM    DATA     BIT       P0_B0
      000000B8H   SFRSYM    DATA     BIT       IP_PX0
      000000C9H   SFRSYM    DATA     BYTE      REG01CN
      000000C0H   SFRSYM    DATA     BIT       SMB1CN0_SI
      00000090H   SFRSYM    DATA     BIT       P1_B0
      00000080H.1 SFRSYM    DATA     BIT       P0_B1
      000000B8H.2 SFRSYM    DATA     BIT       IP_PX1
      0000009BH   SFRSYM    DATA     BYTE      CMP0CN0
      00000088H.1 SFRSYM    DATA     BIT       TCON_IE0
      000000A0H   SFRSYM    DATA     BIT       P2_B0
      00000090H.1 SFRSYM    DATA     BIT       P1_B1
      00000080H.2 SFRSYM    DATA     BIT       P0_B2
      0000009AH   SFRSYM    DATA     BYTE      CMP1CN0
      00000088H.3 SFRSYM    DATA     BIT       TCON_IE1
      000000B0H   SFRSYM    DATA     BIT       P3_B0
      000000A0H.1 SFRSYM    DATA     BIT       P2_B1
      00000090H.2 SFRSYM    DATA     BIT       P1_B2
      00000080H.3 SFRSYM    DATA     BIT       P0_B3
      000000C0H   SFRSYM    DATA     BYTE      SMB0CN0
      000000B0H.1 SFRSYM    DATA     BIT       P3_B1
      000000A0H.2 SFRSYM    DATA     BIT       P2_B2
      00000090H.3 SFRSYM    DATA     BIT       P1_B3
      00000080H.4 SFRSYM    DATA     BIT       P0_B4
      000000C0H   SFRSYM    DATA     BYTE      SMB1CN0
      000000B0H.2 SFRSYM    DATA     BIT       P3_B2
      000000A0H.3 SFRSYM    DATA     BIT       P2_B3
      00000090H.4 SFRSYM    DATA     BIT       P1_B4
      00000080H.5 SFRSYM    DATA     BIT       P0_B5
      000000B0H.3 SFRSYM    DATA     BIT       P3_B3
      000000A0H.4 SFRSYM    DATA     BIT       P2_B4
      00000090H.5 SFRSYM    DATA     BIT       P1_B5
      00000080H.6 SFRSYM    DATA     BIT       P0_B6
      00000080H.2 SFRSYM    DATA     BIT       LCD_RS
      000000B0H.4 SFRSYM    DATA     BIT       P3_B4
LX51 LINKER/LOCATER V4.66.66.0                                                        03/09/2017  11:29:19  PAGE 56


      000000A0H.5 SFRSYM    DATA     BIT       P2_B5
      00000090H.6 SFRSYM    DATA     BIT       P1_B6
      00000080H.7 SFRSYM    DATA     BIT       P0_B7
      000000B0H.5 SFRSYM    DATA     BIT       P3_B5
      000000A0H.6 SFRSYM    DATA     BIT       P2_B6
      00000090H.7 SFRSYM    DATA     BIT       P1_B7
      000000B0H.6 SFRSYM    DATA     BIT       P3_B6
      000000A0H.7 SFRSYM    DATA     BIT       P2_B7
      000000B0H.7 SFRSYM    DATA     BIT       P3_B7
      00000083H   SFRSYM    DATA     BYTE      DPH
      000000C4H   SFRSYM    DATA     BYTE      ADC0GTH
      000000C8H.7 SFRSYM    DATA     BIT       TMR2CN0_TF2H
      000000C8H.3 SFRSYM    DATA     BIT       TMR2CN0_T2SPLIT
      000000D0H.6 SFRSYM    DATA     BIT       PSW_AC
      000000F8H   SFRSYM    DATA     BYTE      SPI0CN0
      000000B3H   SFRSYM    DATA     BYTE      HFO0CAL
      00000080H   SFRSYM    DATA     BIT       BtnEntGpio
      00000088H.5 SFRSYM    DATA     BIT       TCON_TF0
      00000098H   SFRSYM    DATA     BIT       SCON0_RI
      00000082H   SFRSYM    DATA     BYTE      DPL
      00000088H.7 SFRSYM    DATA     BIT       TCON_TF1
      00000099H   SFRSYM    DATA     BYTE      SBUF0
      00000087H   SFRSYM    DATA     BYTE      PCON0
      000000C3H   SFRSYM    DATA     BYTE      ADC0GTL
      000000C8H.6 SFRSYM    DATA     BIT       TMR2CN0_TF2L
      00000098H.1 SFRSYM    DATA     BIT       SCON0_TI
      000000E8H   SFRSYM    DATA     BIT       ADC0CN0_ADCM0
      000000D3H   SFRSYM    DATA     BYTE      SBUF1
      000000C6H   SFRSYM    DATA     BYTE      ADC0LTH
      00000088H   SFRSYM    DATA     BIT       TCON_IT0
      000000E8H.1 SFRSYM    DATA     BIT       ADC0CN0_ADCM1
      000000EFH   SFRSYM    DATA     BYTE      RSTSRC
      000000C8H.7 SFRSYM    DATA     BIT       TMR5CN0_TF5H
      000000C8H.3 SFRSYM    DATA     BIT       TMR5CN0_T5SPLIT
      00000088H.2 SFRSYM    DATA     BIT       TCON_IT1
      000000E8H.2 SFRSYM    DATA     BIT       ADC0CN0_ADCM2
      00000098H   SFRSYM    DATA     BYTE      SCON0
      000000E8H.3 SFRSYM    DATA     BIT       ADC0CN0_ADWINT
      000000B4H   SFRSYM    DATA     WORD      SBRL1
      000000E5H   SFRSYM    DATA     BYTE      SMOD1
      000000D2H   SFRSYM    DATA     BYTE      SCON1
      000000BAH   SFRSYM    DATA     BYTE      AMX0N
      000000E8H.4 SFRSYM    DATA     BIT       ADC0CN0_ADBUSY
      000000CEH   SFRSYM    DATA     BYTE      SMB0ADM
      000000C5H   SFRSYM    DATA     BYTE      ADC0LTL
      000000F8H.5 SFRSYM    DATA     BIT       SPI0CN0_MODF
      000000B8H.6 SFRSYM    DATA     BIT       IP_PSPI0
      000000CEH   SFRSYM    DATA     BYTE      SMB1ADM
      000000BBH   SFRSYM    DATA     BYTE      AMX0P
      000000C8H.6 SFRSYM    DATA     BIT       TMR5CN0_TF5L
      000000C8H   SFRSYM    DATA     BYTE      TMR2CN0
      00000091H   SFRSYM    DATA     BYTE      TMR3CN0
      00000080H.1 SFRSYM    DATA     BIT       BtnExtGpio
      00000091H   SFRSYM    DATA     BYTE      TMR4CN0
      000000C8H   SFRSYM    DATA     BYTE      TMR5CN0
      000000CFH   SFRSYM    DATA     BYTE      SMB0ADR
      00000088H.4 SFRSYM    DATA     BIT       TCON_TR0
      000000CFH   SFRSYM    DATA     BYTE      SMB1ADR
      000000C8H.4 SFRSYM    DATA     BIT       TMR2CN0_TF2CEN
      00000088H.6 SFRSYM    DATA     BIT       TCON_TR1
      000000C2H   SFRSYM    DATA     BYTE      SMB0DAT
      00000080H.4 SFRSYM    DATA     BIT       RC_OUT
      000000CDH   SFRSYM    DATA     BYTE      TMR2H
      000000A1H   SFRSYM    DATA     BYTE      SPI0CFG
      000000C2H   SFRSYM    DATA     BYTE      SMB1DAT
LX51 LINKER/LOCATER V4.66.66.0                                                        03/09/2017  11:29:19  PAGE 57


      00000095H   SFRSYM    DATA     BYTE      TMR3H
      00000095H   SFRSYM    DATA     BYTE      TMR4H
      000000CDH   SFRSYM    DATA     BYTE      TMR5H
      000000CCH   SFRSYM    DATA     BYTE      TMR2L
      00000090H.5 SFRSYM    DATA     BIT       BtnDwGpio
      000000F8H.7 SFRSYM    DATA     BIT       SPI0CN0_SPIF
      00000096H   SFRSYM    DATA     BYTE      USB0ADR
      00000094H   SFRSYM    DATA     BYTE      TMR3L
      000000A8H.7 SFRSYM    DATA     BIT       IE_EA
      00000094H   SFRSYM    DATA     BYTE      TMR4L
      00000097H   SFRSYM    DATA     BYTE      USB0DAT
      000000CCH   SFRSYM    DATA     BYTE      TMR5L
      000000B6H   SFRSYM    DATA     BYTE      FLSCL
      000000C8H.5 SFRSYM    DATA     BIT       TMR2CN0_TF2LEN
      000000F8H.6 SFRSYM    DATA     BIT       SPI0CN0_WCOL
      000000F8H.2 SFRSYM    DATA     BIT       SPI0CN0_NSSMD0
      000000D0H.7 SFRSYM    DATA     BIT       PSW_CY
      000000A3H   SFRSYM    DATA     BYTE      SPI0DAT
      000000F8H.3 SFRSYM    DATA     BIT       SPI0CN0_NSSMD1
      000000BDH   SFRSYM    DATA     WORD      ADC0
      000000B9H   SFRSYM    DATA     BYTE      SMBTC
      000000D0H   SFRSYM    DATA     BYTE      PSW
      000000C8H.5 SFRSYM    DATA     BIT       TMR5CN0_TF5LEN
      000000B7H   SFRSYM    DATA     BYTE      FLKEY
      00000090H.4 SFRSYM    DATA     BIT       BtnUpGpio

      01007284H   BLOCK     CODE     ---       LVL=0
      020009C4H   SYMBOL    XDATA    ---       pTxBuffer
      020009C7H   SYMBOL    XDATA    BYTE      SizeBuffer
      01007294H   BLOCK     CODE     NEAR LAB  LVL=1
      020009C8H   SYMBOL    XDATA    BYTE      i
      ---         BLOCKEND  ---      ---       LVL=1
      01007284H   LINE      CODE     ---       #25
      01007294H   LINE      CODE     ---       #26
      01007299H   LINE      CODE     ---       #27
      010072ADH   LINE      CODE     ---       #28
      010072C8H   LINE      CODE     ---       #29
      010072CDH   LINE      CODE     ---       #30
      010072D0H   LINE      CODE     ---       #31
      010072D8H   LINE      CODE     ---       #32
      ---         BLOCKEND  ---      ---       LVL=0

      0100772DH   BLOCK     CODE     ---       LVL=0
      0100772DH   LINE      CODE     ---       #33
      0100772DH   LINE      CODE     ---       #34
      01007733H   LINE      CODE     ---       #35
      01007739H   LINE      CODE     ---       #36
      0100773FH   LINE      CODE     ---       #37
      01007759H   LINE      CODE     ---       #38
      ---         BLOCKEND  ---      ---       LVL=0

      01004377H   BLOCK     CODE     ---       LVL=0
      01004377H   LINE      CODE     ---       #39
      01004377H   LINE      CODE     ---       #40
      0100437DH   LINE      CODE     ---       #41
      01004383H   LINE      CODE     ---       #42
      010043A3H   LINE      CODE     ---       #43
      010043C3H   LINE      CODE     ---       #44
      010043E3H   LINE      CODE     ---       #45
      01004403H   LINE      CODE     ---       #46
      01004423H   LINE      CODE     ---       #47
      01004443H   LINE      CODE     ---       #48
      01004454H   LINE      CODE     ---       #49
      01004465H   LINE      CODE     ---       #51
      010044ABH   LINE      CODE     ---       #55
LX51 LINKER/LOCATER V4.66.66.0                                                        03/09/2017  11:29:19  PAGE 58


      010044DDH   LINE      CODE     ---       #58
      0100453FH   LINE      CODE     ---       #62
      ---         BLOCKEND  ---      ---       LVL=0

      01003D6AH   BLOCK     CODE     ---       LVL=0
      01003D6AH   LINE      CODE     ---       #63
      01003D6AH   LINE      CODE     ---       #64
      01003D80H   LINE      CODE     ---       #65
      01003D93H   LINE      CODE     ---       #67
      01003DA9H   LINE      CODE     ---       #68
      01003DBCH   LINE      CODE     ---       #70
      01003DD2H   LINE      CODE     ---       #71
      01003DE5H   LINE      CODE     ---       #73
      01003E0AH   LINE      CODE     ---       #74
      01003E2FH   LINE      CODE     ---       #76
      01003E54H   LINE      CODE     ---       #77
      01003E79H   LINE      CODE     ---       #79
      01003E9EH   LINE      CODE     ---       #80
      01003EC3H   LINE      CODE     ---       #82
      01003EDAH   LINE      CODE     ---       #83
      01003EF1H   LINE      CODE     ---       #85
      01003F06H   LINE      CODE     ---       #86
      01003F21H   LINE      CODE     ---       #87
      01003F3BH   LINE      CODE     ---       #88
      01003F57H   LINE      CODE     ---       #90
      01003F6CH   LINE      CODE     ---       #91
      01003F87H   LINE      CODE     ---       #92
      01003FA1H   LINE      CODE     ---       #93
      ---         BLOCKEND  ---      ---       LVL=0

      010066F1H   BLOCK     CODE     ---       LVL=0
      010066F1H   BLOCK     CODE     NEAR LAB  LVL=1
      020009E4H   SYMBOL    XDATA    BYTE      i
      020009E5H   SYMBOL    XDATA    BYTE      Crc_Data
      ---         BLOCKEND  ---      ---       LVL=1
      010066F1H   LINE      CODE     ---       #94
      010066F1H   LINE      CODE     ---       #97
      0100671EH   LINE      CODE     ---       #98
      01006735H   LINE      CODE     ---       #99
      0100673DH   LINE      CODE     ---       #101
      01006757H   LINE      CODE     ---       #102
      01006772H   LINE      CODE     ---       #103
      01006780H   LINE      CODE     ---       #104
      01006793H   LINE      CODE     ---       #105
      010067A1H   LINE      CODE     ---       #106
      010067A4H   LINE      CODE     ---       #107
      010067A4H   LINE      CODE     ---       #108
      010067A4H   LINE      CODE     ---       #109
      ---         BLOCKEND  ---      ---       LVL=0

      010063E4H   BLOCK     CODE     ---       LVL=0
      020009C9H   SYMBOL    XDATA    ---       pData
      020009CCH   SYMBOL    XDATA    BYTE      DataSize
      010063F4H   BLOCK     CODE     NEAR LAB  LVL=1
      020009CDH   SYMBOL    XDATA    BYTE      i
      ---         BLOCKEND  ---      ---       LVL=1
      010063E4H   LINE      CODE     ---       #110
      010063F4H   LINE      CODE     ---       #113
      010063FCH   LINE      CODE     ---       #114
      01006410H   LINE      CODE     ---       #115
      0100643CH   LINE      CODE     ---       #116
      01006444H   LINE      CODE     ---       #117
      0100645CH   LINE      CODE     ---       #118
      0100646CH   LINE      CODE     ---       #119
      01006475H   LINE      CODE     ---       #120
LX51 LINKER/LOCATER V4.66.66.0                                                        03/09/2017  11:29:19  PAGE 59


      01006491H   LINE      CODE     ---       #122
      01006493H   LINE      CODE     ---       #123
      0100649FH   LINE      CODE     ---       #124
      010064AAH   LINE      CODE     ---       #125
      010064ADH   LINE      CODE     ---       #126
      010064ADH   LINE      CODE     ---       #127
      010064AFH   LINE      CODE     ---       #128
      010064AFH   LINE      CODE     ---       #129
      010064AFH   LINE      CODE     ---       #130
      ---         BLOCKEND  ---      ---       LVL=0

      010067A5H   BLOCK     CODE     ---       LVL=0
      010067A5H   BLOCK     CODE     NEAR LAB  LVL=1
      020009F7H   SYMBOL    XDATA    BYTE      i
      ---         BLOCKEND  ---      ---       LVL=1
      010067A5H   LINE      CODE     ---       #132
      010067A5H   LINE      CODE     ---       #135
      010067CEH   LINE      CODE     ---       #136
      010067F7H   LINE      CODE     ---       #137
      01006825H   LINE      CODE     ---       #139
      0100682AH   LINE      CODE     ---       #140
      0100682FH   LINE      CODE     ---       #141
      01006839H   LINE      CODE     ---       #143
      01006842H   LINE      CODE     ---       #144
      0100684BH   LINE      CODE     ---       #145
      ---         BLOCKEND  ---      ---       LVL=0

      01006D0FH   BLOCK     CODE     ---       LVL=0
      01006D0FH   BLOCK     CODE     NEAR LAB  LVL=1
      020009F8H   SYMBOL    XDATA    BYTE      InitDatCnt
      ---         BLOCKEND  ---      ---       LVL=1
      01006D0FH   LINE      CODE     ---       #146
      01006D0FH   LINE      CODE     ---       #149
      01006D15H   LINE      CODE     ---       #150
      01006D1BH   LINE      CODE     ---       #152
      01006D23H   LINE      CODE     ---       #154
      01006D2CH   LINE      CODE     ---       #155
      01006D3BH   LINE      CODE     ---       #157
      01006D3BH   LINE      CODE     ---       #159
      01006D3DH   LINE      CODE     ---       #160
      01006D42H   LINE      CODE     ---       #161
      01006D4DH   LINE      CODE     ---       #162
      01006D51H   LINE      CODE     ---       #163
      01006D53H   LINE      CODE     ---       #164
      01006D56H   LINE      CODE     ---       #165
      01006D56H   LINE      CODE     ---       #166
      01006D58H   LINE      CODE     ---       #167
      01006D5AH   LINE      CODE     ---       #168
      01006D65H   LINE      CODE     ---       #169
      01006D71H   LINE      CODE     ---       #170
      01006D7FH   LINE      CODE     ---       #171
      01006D81H   LINE      CODE     ---       #173
      01006D87H   LINE      CODE     ---       #174
      01006D8AH   LINE      CODE     ---       #175
      01006D95H   LINE      CODE     ---       #176
      01006D95H   LINE      CODE     ---       #177
      01006D95H   LINE      CODE     ---       #178
      01006D97H   LINE      CODE     ---       #179
      ---         BLOCKEND  ---      ---       LVL=0

      01006E1DH   BLOCK     CODE     ---       LVL=0
      01006E1DH   LINE      CODE     ---       #180
      01006E1DH   LINE      CODE     ---       #182
      01006E25H   LINE      CODE     ---       #183
      01006E2DH   LINE      CODE     ---       #184
LX51 LINKER/LOCATER V4.66.66.0                                                        03/09/2017  11:29:19  PAGE 60


      01006E2DH   LINE      CODE     ---       #186
      01006E2FH   LINE      CODE     ---       #187
      01006E34H   LINE      CODE     ---       #188
      01006E3FH   LINE      CODE     ---       #189
      01006E41H   LINE      CODE     ---       #190
      01006E43H   LINE      CODE     ---       #191
      01006E46H   LINE      CODE     ---       #192
      01006E46H   LINE      CODE     ---       #193
      01006E48H   LINE      CODE     ---       #194
      01006E49H   LINE      CODE     ---       #195
      01006E54H   LINE      CODE     ---       #196
      01006E60H   LINE      CODE     ---       #197
      01006E6EH   LINE      CODE     ---       #198
      01006E70H   LINE      CODE     ---       #200
      01006E79H   LINE      CODE     ---       #201
      01006E7CH   LINE      CODE     ---       #202
      01006E87H   LINE      CODE     ---       #203
      01006E91H   LINE      CODE     ---       #204
      01006E94H   LINE      CODE     ---       #205
      01006E9FH   LINE      CODE     ---       #206
      01006E9FH   LINE      CODE     ---       #207
      01006E9FH   LINE      CODE     ---       #208
      01006E9FH   LINE      CODE     ---       #209
      ---         BLOCKEND  ---      ---       LVL=0

      01005F4CH   BLOCK     CODE     ---       LVL=0
      01005F4CH   LINE      CODE     ---       #211
      01005F5BH   LINE      CODE     ---       #212
      01005F63H   LINE      CODE     ---       #213
      01005F66H   LINE      CODE     ---       #214
      01005F6CH   LINE      CODE     ---       #216
      01005F7DH   LINE      CODE     ---       #217
      01005F83H   LINE      CODE     ---       #218
      01005F8DH   LINE      CODE     ---       #219
      01005FA4H   LINE      CODE     ---       #220
      01005FAAH   LINE      CODE     ---       #221
      01005FB4H   LINE      CODE     ---       #222
      01005FC3H   LINE      CODE     ---       #223
      01005FD9H   LINE      CODE     ---       #224
      01005FE3H   LINE      CODE     ---       #225
      01005FE9H   LINE      CODE     ---       #226
      01005FE9H   LINE      CODE     ---       #227
      01005FFFH   LINE      CODE     ---       #228
      01006005H   LINE      CODE     ---       #229
      01006010H   LINE      CODE     ---       #230
      01006015H   LINE      CODE     ---       #231
      0100602BH   LINE      CODE     ---       #232
      01006031H   LINE      CODE     ---       #233
      01006033H   LINE      CODE     ---       #234
      01006038H   LINE      CODE     ---       #235
      01006038H   LINE      CODE     ---       #236
      01006038H   LINE      CODE     ---       #237
      ---         BLOCKEND  ---      ---       LVL=0

      ---         MODULE    ---      ---       LIPOCELLS
      0200086AH   PUBLIC    XDATA    ---       BatVoltage
      02000869H   PUBLIC    XDATA    BYTE      AdcCovOkFlag
      02000868H   PUBLIC    XDATA    CHAR      i
      02000866H   PUBLIC    XDATA    WORD      AdcVoltage
      02000865H   PUBLIC    XDATA    CHAR      IdxChs
      02000864H   PUBLIC    XDATA    BYTE      AdcCovEnTrigger
      02000860H   PUBLIC    XDATA    DWORD     AdcValue
      01003FA2H   PUBLIC    CODE     ---       ADC0EOC_ISR
      0100791AH   PUBLIC    CODE     ---       LipoCellsProcessHandle
      01007686H   PUBLIC    CODE     ---       LipoCellsDetect
LX51 LINKER/LOCATER V4.66.66.0                                                        03/09/2017  11:29:19  PAGE 61


      0100722BH   PUBLIC    CODE     ---       LipoCellsDatInit
      000000A2H   SFRSYM    DATA     BYTE      SPI0CKR
      00000080H   SFRSYM    DATA     BYTE      P0
      000000D0H.2 SFRSYM    DATA     BIT       PSW_OV
      000000B1H   SFRSYM    DATA     BYTE      XOSC0CN
      00000090H   SFRSYM    DATA     BYTE      P1
      000000A0H   SFRSYM    DATA     BYTE      P2
      000000B0H   SFRSYM    DATA     BYTE      P3
      000000BCH   SFRSYM    DATA     BYTE      ADC0CF
      000000C8H   SFRSYM    DATA     BIT       TMR2CN0_T2XCLK
      000000C7H   SFRSYM    DATA     BYTE      P4
      000000C0H.7 SFRSYM    DATA     BIT       SMB0CN0_MASTER
      000000F9H   SFRSYM    DATA     WORD      PCA0
      000000E6H   SFRSYM    DATA     BYTE      EIE1
      000000C0H.7 SFRSYM    DATA     BIT       SMB1CN0_MASTER
      000000C0H.1 SFRSYM    DATA     BIT       SMB0CN0_ACK
      000000D7H   SFRSYM    DATA     BYTE      USB0XCN
      000000E7H   SFRSYM    DATA     BYTE      EIE2
      000000C0H.1 SFRSYM    DATA     BIT       SMB1CN0_ACK
      0000008FH   SFRSYM    DATA     BYTE      PSCTL
      000000E4H   SFRSYM    DATA     BYTE      IT01CF
      000000C8H   SFRSYM    DATA     BIT       TMR5CN0_T5XCLK
      000000C0H.6 SFRSYM    DATA     BIT       SMB0CN0_TXMODE
      000000C0H.6 SFRSYM    DATA     BIT       SMB1CN0_TXMODE
      000000BFH   SFRSYM    DATA     BYTE      SFRPAGE
      000000A4H   SFRSYM    DATA     BYTE      P0MDOUT
      00000080H.5 SFRSYM    DATA     BIT       LCD_SDA
      000000A5H   SFRSYM    DATA     BYTE      P1MDOUT
      000000E8H.5 SFRSYM    DATA     BIT       ADC0CN0_ADINT
      000000CBH   SFRSYM    DATA     BYTE      TMR2RLH
      000000A6H   SFRSYM    DATA     BYTE      P2MDOUT
      000000A8H   SFRSYM    DATA     BYTE      IE
      00000093H   SFRSYM    DATA     BYTE      TMR3RLH
      000000A7H   SFRSYM    DATA     BYTE      P3MDOUT
      00000093H   SFRSYM    DATA     BYTE      TMR4RLH
      000000AEH   SFRSYM    DATA     BYTE      P4MDOUT
      000000F6H   SFRSYM    DATA     BYTE      EIP1
      000000CBH   SFRSYM    DATA     BYTE      TMR5RLH
      000000F7H   SFRSYM    DATA     BYTE      EIP2
      00000098H.2 SFRSYM    DATA     BIT       SCON0_RB8
      000000CAH   SFRSYM    DATA     BYTE      TMR2RLL
      000000FCH   SFRSYM    DATA     BYTE      PCA0CPH0
      00000092H   SFRSYM    DATA     BYTE      TMR3RLL
      000000EAH   SFRSYM    DATA     BYTE      PCA0CPH1
      00000098H.3 SFRSYM    DATA     BIT       SCON0_TB8
      000000F0H   SFRSYM    DATA     BIT       B_B0
      00000082H   SFRSYM    DATA     WORD      DP
      00000092H   SFRSYM    DATA     BYTE      TMR4RLL
      000000ECH   SFRSYM    DATA     BYTE      PCA0CPH2
      000000F0H.1 SFRSYM    DATA     BIT       B_B1
      000000C3H   SFRSYM    DATA     WORD      ADC0GT
      000000CAH   SFRSYM    DATA     BYTE      TMR5RLL
      000000EEH   SFRSYM    DATA     BYTE      PCA0CPH3
      00000080H.3 SFRSYM    DATA     BIT       LCD_SCK
      000000F0H.2 SFRSYM    DATA     BIT       B_B2
      000000FBH   SFRSYM    DATA     BYTE      PCA0CPL0
      000000FEH   SFRSYM    DATA     BYTE      PCA0CPH4
      00000085H   SFRSYM    DATA     BYTE      EMI0CF
      000000F0H.3 SFRSYM    DATA     BIT       B_B3
      000000D9H   SFRSYM    DATA     BYTE      PCA0MD
      000000DAH   SFRSYM    DATA     BYTE      PCA0CPM0
      000000E9H   SFRSYM    DATA     BYTE      PCA0CPL1
      000000F0H.4 SFRSYM    DATA     BIT       B_B4
      000000DBH   SFRSYM    DATA     BYTE      PCA0CPM1
      000000EBH   SFRSYM    DATA     BYTE      PCA0CPL2
LX51 LINKER/LOCATER V4.66.66.0                                                        03/09/2017  11:29:19  PAGE 62


      000000F0H.5 SFRSYM    DATA     BIT       B_B5
      000000DCH   SFRSYM    DATA     BYTE      PCA0CPM2
      000000EDH   SFRSYM    DATA     BYTE      PCA0CPL3
      000000B8H   SFRSYM    DATA     BYTE      IP
      000000F0H.6 SFRSYM    DATA     BIT       B_B6
      000000C5H   SFRSYM    DATA     WORD      ADC0LT
      000000DDH   SFRSYM    DATA     BYTE      PCA0CPM3
      000000FDH   SFRSYM    DATA     BYTE      PCA0CPL4
      00000098H.5 SFRSYM    DATA     BIT       SCON0_MCE
      000000F0H.7 SFRSYM    DATA     BIT       B_B7
      000000DEH   SFRSYM    DATA     BYTE      PCA0CPM4
      000000E1H   SFRSYM    DATA     BYTE      XBR0
      000000C1H   SFRSYM    DATA     BYTE      SMB0CF
      000000E2H   SFRSYM    DATA     BYTE      XBR1
      000000C1H   SFRSYM    DATA     BYTE      SMB1CF
      000000AFH   SFRSYM    DATA     BYTE      PFE0CN
      000000AAH   SFRSYM    DATA     BYTE      EMI0CN
      000000C0H.5 SFRSYM    DATA     BIT       SMB0CN0_STA
      000000E3H   SFRSYM    DATA     BYTE      XBR2
      000000C0H.5 SFRSYM    DATA     BIT       SMB1CN0_STA
      000000E0H   SFRSYM    DATA     BIT       ACC_ACC0
      000000D1H   SFRSYM    DATA     BYTE      REF0CN
      000000B2H   SFRSYM    DATA     BYTE      HFO0CN
      0000008EH   SFRSYM    DATA     BYTE      CKCON0
      000000E0H.1 SFRSYM    DATA     BIT       ACC_ACC1
      000000E4H   SFRSYM    DATA     BYTE      CKCON1
      000000C8H.2 SFRSYM    DATA     BIT       TMR2CN0_TR2
      000000E0H.2 SFRSYM    DATA     BIT       ACC_ACC2
      000000E0H.3 SFRSYM    DATA     BIT       ACC_ACC3
      00000081H   SFRSYM    DATA     BYTE      SP
      0000009DH   SFRSYM    DATA     BYTE      CMP0MD
      000000E0H.4 SFRSYM    DATA     BIT       ACC_ACC4
      00000086H   SFRSYM    DATA     BYTE      LFO0CN
      00000084H   SFRSYM    DATA     BYTE      EMI0TC
      0000009CH   SFRSYM    DATA     BYTE      CMP1MD
      000000D8H   SFRSYM    DATA     BIT       PCA0CN0_CCF0
      000000E0H.5 SFRSYM    DATA     BIT       ACC_ACC5
      000000D8H.1 SFRSYM    DATA     BIT       PCA0CN0_CCF1
      000000E0H.6 SFRSYM    DATA     BIT       ACC_ACC6
      000000CCH   SFRSYM    DATA     WORD      TMR2
      000000D8H.2 SFRSYM    DATA     BIT       PCA0CN0_CCF2
      000000E0H.7 SFRSYM    DATA     BIT       ACC_ACC7
      00000094H   SFRSYM    DATA     WORD      TMR3
      000000C8H.2 SFRSYM    DATA     BIT       TMR5CN0_TR5
      000000D8H.3 SFRSYM    DATA     BIT       PCA0CN0_CCF3
      00000094H   SFRSYM    DATA     WORD      TMR4
      000000ACH   SFRSYM    DATA     BYTE      SBCON1
      000000D8H.4 SFRSYM    DATA     BIT       PCA0CN0_CCF4
      000000CCH   SFRSYM    DATA     WORD      TMR5
      000000C0H.3 SFRSYM    DATA     BIT       SMB0CN0_ACKRQ
      000000FFH   SFRSYM    DATA     BYTE      VDM0CN
      000000F1H   SFRSYM    DATA     BYTE      P0MDIN
      000000C0H.3 SFRSYM    DATA     BIT       SMB1CN0_ACKRQ
      00000098H.4 SFRSYM    DATA     BIT       SCON0_REN
      000000F2H   SFRSYM    DATA     BYTE      P1MDIN
      000000F3H   SFRSYM    DATA     BYTE      P2MDIN
      000000C0H.4 SFRSYM    DATA     BIT       SMB0CN0_STO
      000000F4H   SFRSYM    DATA     BYTE      P3MDIN
      00000090H.3 SFRSYM    DATA     BIT       LCD_RST
      000000C0H.4 SFRSYM    DATA     BIT       SMB1CN0_STO
      000000B5H   SFRSYM    DATA     BYTE      SBRLH1
      000000F5H   SFRSYM    DATA     BYTE      P4MDIN
      000000D0H.3 SFRSYM    DATA     BIT       PSW_RS0
      000000D8H.7 SFRSYM    DATA     BIT       PCA0CN0_CF
      000000F8H.4 SFRSYM    DATA     BIT       SPI0CN0_RXOVRN
LX51 LINKER/LOCATER V4.66.66.0                                                        03/09/2017  11:29:19  PAGE 63


      000000D0H.4 SFRSYM    DATA     BIT       PSW_RS1
      000000B4H   SFRSYM    DATA     BYTE      SBRLL1
      000000E8H.7 SFRSYM    DATA     BIT       ADC0CN0_ADEN
      00000089H   SFRSYM    DATA     BYTE      TMOD
      00000088H   SFRSYM    DATA     BYTE      TCON
      000000D0H   SFRSYM    DATA     BIT       PSW_PARITY
      000000A8H.4 SFRSYM    DATA     BIT       IE_ES0
      0000009FH   SFRSYM    DATA     BYTE      CMP0MX
      000000A8H.1 SFRSYM    DATA     BIT       IE_ET0
      0000009EH   SFRSYM    DATA     BYTE      CMP1MX
      000000A8H.3 SFRSYM    DATA     BIT       IE_ET1
      000000D4H   SFRSYM    DATA     BYTE      P0SKIP
      000000C8H.1 SFRSYM    DATA     BIT       TMR2CN0_T2CSS
      000000A8H.5 SFRSYM    DATA     BIT       IE_ET2
      000000D5H   SFRSYM    DATA     BYTE      P1SKIP
      000000D6H   SFRSYM    DATA     BYTE      P2SKIP
      000000E8H   SFRSYM    DATA     BYTE      ADC0CN0
      000000A8H   SFRSYM    DATA     BIT       IE_EX0
      000000DFH   SFRSYM    DATA     BYTE      P3SKIP
      000000D8H.6 SFRSYM    DATA     BIT       PCA0CN0_CR
      000000A8H.2 SFRSYM    DATA     BIT       IE_EX1
      00000098H.7 SFRSYM    DATA     BIT       SCON0_SMODE
      000000A9H   SFRSYM    DATA     BYTE      CLKSEL
      000000F8H   SFRSYM    DATA     BIT       SPI0CN0_SPIEN
      000000F0H   SFRSYM    DATA     BYTE      B
      000000BEH   SFRSYM    DATA     BYTE      ADC0H
      000000E8H.6 SFRSYM    DATA     BIT       ADC0CN0_ADTM
      000000CAH   SFRSYM    DATA     WORD      TMR2RL
      000000BDH   SFRSYM    DATA     BYTE      ADC0L
      00000092H   SFRSYM    DATA     WORD      TMR3RL
      00000092H   SFRSYM    DATA     WORD      TMR4RL
      000000D8H   SFRSYM    DATA     BYTE      PCA0CN0
      000000E0H   SFRSYM    DATA     BYTE      ACC
      000000CAH   SFRSYM    DATA     WORD      TMR5RL
      000000FBH   SFRSYM    DATA     WORD      PCA0CP0
      00000080H.6 SFRSYM    DATA     BIT       LCD_CS
      000000E9H   SFRSYM    DATA     WORD      PCA0CP1
      000000EBH   SFRSYM    DATA     WORD      PCA0CP2
      000000EDH   SFRSYM    DATA     WORD      PCA0CP3
      0000008CH   SFRSYM    DATA     BYTE      TH0
      000000B8H.4 SFRSYM    DATA     BIT       IP_PS0
      000000FDH   SFRSYM    DATA     WORD      PCA0CP4
      0000008DH   SFRSYM    DATA     BYTE      TH1
      000000FAH   SFRSYM    DATA     BYTE      PCA0H
      000000B8H.1 SFRSYM    DATA     BIT       IP_PT0
      000000B8H.3 SFRSYM    DATA     BIT       IP_PT1
      000000C0H.2 SFRSYM    DATA     BIT       SMB0CN0_ARBLOST
      000000B8H.5 SFRSYM    DATA     BIT       IP_PT2
      0000008AH   SFRSYM    DATA     BYTE      TL0
      000000F8H.1 SFRSYM    DATA     BIT       SPI0CN0_TXBMT
      000000C0H.2 SFRSYM    DATA     BIT       SMB1CN0_ARBLOST
      000000D0H.5 SFRSYM    DATA     BIT       PSW_F0
      000000A8H.6 SFRSYM    DATA     BIT       IE_ESPI0
      0000008BH   SFRSYM    DATA     BYTE      TL1
      000000F9H   SFRSYM    DATA     BYTE      PCA0L
      000000C0H   SFRSYM    DATA     BIT       SMB0CN0_SI
      000000D0H.1 SFRSYM    DATA     BIT       PSW_F1
      00000080H   SFRSYM    DATA     BIT       P0_B0
      000000B8H   SFRSYM    DATA     BIT       IP_PX0
      000000C9H   SFRSYM    DATA     BYTE      REG01CN
      000000C0H   SFRSYM    DATA     BIT       SMB1CN0_SI
      00000090H   SFRSYM    DATA     BIT       P1_B0
      00000080H.1 SFRSYM    DATA     BIT       P0_B1
      000000B8H.2 SFRSYM    DATA     BIT       IP_PX1
      0000009BH   SFRSYM    DATA     BYTE      CMP0CN0
LX51 LINKER/LOCATER V4.66.66.0                                                        03/09/2017  11:29:19  PAGE 64


      00000088H.1 SFRSYM    DATA     BIT       TCON_IE0
      000000A0H   SFRSYM    DATA     BIT       P2_B0
      00000090H.1 SFRSYM    DATA     BIT       P1_B1
      00000080H.2 SFRSYM    DATA     BIT       P0_B2
      0000009AH   SFRSYM    DATA     BYTE      CMP1CN0
      00000088H.3 SFRSYM    DATA     BIT       TCON_IE1
      000000B0H   SFRSYM    DATA     BIT       P3_B0
      000000A0H.1 SFRSYM    DATA     BIT       P2_B1
      00000090H.2 SFRSYM    DATA     BIT       P1_B2
      00000080H.3 SFRSYM    DATA     BIT       P0_B3
      000000C0H   SFRSYM    DATA     BYTE      SMB0CN0
      000000B0H.1 SFRSYM    DATA     BIT       P3_B1
      000000A0H.2 SFRSYM    DATA     BIT       P2_B2
      00000090H.3 SFRSYM    DATA     BIT       P1_B3
      00000080H.4 SFRSYM    DATA     BIT       P0_B4
      000000C0H   SFRSYM    DATA     BYTE      SMB1CN0
      000000B0H.2 SFRSYM    DATA     BIT       P3_B2
      000000A0H.3 SFRSYM    DATA     BIT       P2_B3
      00000090H.4 SFRSYM    DATA     BIT       P1_B4
      00000080H.5 SFRSYM    DATA     BIT       P0_B5
      000000B0H.3 SFRSYM    DATA     BIT       P3_B3
      000000A0H.4 SFRSYM    DATA     BIT       P2_B4
      00000090H.5 SFRSYM    DATA     BIT       P1_B5
      00000080H.6 SFRSYM    DATA     BIT       P0_B6
      00000080H.2 SFRSYM    DATA     BIT       LCD_RS
      000000B0H.4 SFRSYM    DATA     BIT       P3_B4
      000000A0H.5 SFRSYM    DATA     BIT       P2_B5
      00000090H.6 SFRSYM    DATA     BIT       P1_B6
      00000080H.7 SFRSYM    DATA     BIT       P0_B7
      000000B0H.5 SFRSYM    DATA     BIT       P3_B5
      000000A0H.6 SFRSYM    DATA     BIT       P2_B6
      00000090H.7 SFRSYM    DATA     BIT       P1_B7
      000000B0H.6 SFRSYM    DATA     BIT       P3_B6
      000000A0H.7 SFRSYM    DATA     BIT       P2_B7
      000000B0H.7 SFRSYM    DATA     BIT       P3_B7
      00000083H   SFRSYM    DATA     BYTE      DPH
      000000C4H   SFRSYM    DATA     BYTE      ADC0GTH
      000000C8H.7 SFRSYM    DATA     BIT       TMR2CN0_TF2H
      000000C8H.3 SFRSYM    DATA     BIT       TMR2CN0_T2SPLIT
      000000D0H.6 SFRSYM    DATA     BIT       PSW_AC
      000000F8H   SFRSYM    DATA     BYTE      SPI0CN0
      000000B3H   SFRSYM    DATA     BYTE      HFO0CAL
      00000080H   SFRSYM    DATA     BIT       BtnEntGpio
      00000088H.5 SFRSYM    DATA     BIT       TCON_TF0
      00000098H   SFRSYM    DATA     BIT       SCON0_RI
      00000082H   SFRSYM    DATA     BYTE      DPL
      00000088H.7 SFRSYM    DATA     BIT       TCON_TF1
      00000099H   SFRSYM    DATA     BYTE      SBUF0
      00000087H   SFRSYM    DATA     BYTE      PCON0
      000000C3H   SFRSYM    DATA     BYTE      ADC0GTL
      000000C8H.6 SFRSYM    DATA     BIT       TMR2CN0_TF2L
      00000098H.1 SFRSYM    DATA     BIT       SCON0_TI
      000000E8H   SFRSYM    DATA     BIT       ADC0CN0_ADCM0
      000000D3H   SFRSYM    DATA     BYTE      SBUF1
      000000C6H   SFRSYM    DATA     BYTE      ADC0LTH
      00000088H   SFRSYM    DATA     BIT       TCON_IT0
      000000E8H.1 SFRSYM    DATA     BIT       ADC0CN0_ADCM1
      000000EFH   SFRSYM    DATA     BYTE      RSTSRC
      000000C8H.7 SFRSYM    DATA     BIT       TMR5CN0_TF5H
      000000C8H.3 SFRSYM    DATA     BIT       TMR5CN0_T5SPLIT
      00000088H.2 SFRSYM    DATA     BIT       TCON_IT1
      000000E8H.2 SFRSYM    DATA     BIT       ADC0CN0_ADCM2
      00000098H   SFRSYM    DATA     BYTE      SCON0
      000000E8H.3 SFRSYM    DATA     BIT       ADC0CN0_ADWINT
      000000B4H   SFRSYM    DATA     WORD      SBRL1
LX51 LINKER/LOCATER V4.66.66.0                                                        03/09/2017  11:29:19  PAGE 65


      000000E5H   SFRSYM    DATA     BYTE      SMOD1
      000000D2H   SFRSYM    DATA     BYTE      SCON1
      000000BAH   SFRSYM    DATA     BYTE      AMX0N
      000000E8H.4 SFRSYM    DATA     BIT       ADC0CN0_ADBUSY
      000000CEH   SFRSYM    DATA     BYTE      SMB0ADM
      000000C5H   SFRSYM    DATA     BYTE      ADC0LTL
      000000F8H.5 SFRSYM    DATA     BIT       SPI0CN0_MODF
      000000B8H.6 SFRSYM    DATA     BIT       IP_PSPI0
      000000CEH   SFRSYM    DATA     BYTE      SMB1ADM
      000000BBH   SFRSYM    DATA     BYTE      AMX0P
      000000C8H.6 SFRSYM    DATA     BIT       TMR5CN0_TF5L
      000000C8H   SFRSYM    DATA     BYTE      TMR2CN0
      00000091H   SFRSYM    DATA     BYTE      TMR3CN0
      00000080H.1 SFRSYM    DATA     BIT       BtnExtGpio
      00000091H   SFRSYM    DATA     BYTE      TMR4CN0
      000000C8H   SFRSYM    DATA     BYTE      TMR5CN0
      000000CFH   SFRSYM    DATA     BYTE      SMB0ADR
      00000088H.4 SFRSYM    DATA     BIT       TCON_TR0
      000000CFH   SFRSYM    DATA     BYTE      SMB1ADR
      000000C8H.4 SFRSYM    DATA     BIT       TMR2CN0_TF2CEN
      00000088H.6 SFRSYM    DATA     BIT       TCON_TR1
      000000C2H   SFRSYM    DATA     BYTE      SMB0DAT
      00000080H.4 SFRSYM    DATA     BIT       RC_OUT
      000000CDH   SFRSYM    DATA     BYTE      TMR2H
      000000A1H   SFRSYM    DATA     BYTE      SPI0CFG
      000000C2H   SFRSYM    DATA     BYTE      SMB1DAT
      00000095H   SFRSYM    DATA     BYTE      TMR3H
      00000095H   SFRSYM    DATA     BYTE      TMR4H
      000000CDH   SFRSYM    DATA     BYTE      TMR5H
      000000CCH   SFRSYM    DATA     BYTE      TMR2L
      00000090H.5 SFRSYM    DATA     BIT       BtnDwGpio
      000000F8H.7 SFRSYM    DATA     BIT       SPI0CN0_SPIF
      00000096H   SFRSYM    DATA     BYTE      USB0ADR
      00000094H   SFRSYM    DATA     BYTE      TMR3L
      000000A8H.7 SFRSYM    DATA     BIT       IE_EA
      00000094H   SFRSYM    DATA     BYTE      TMR4L
      00000097H   SFRSYM    DATA     BYTE      USB0DAT
      000000CCH   SFRSYM    DATA     BYTE      TMR5L
      000000B6H   SFRSYM    DATA     BYTE      FLSCL
      000000C8H.5 SFRSYM    DATA     BIT       TMR2CN0_TF2LEN
      000000F8H.6 SFRSYM    DATA     BIT       SPI0CN0_WCOL
      000000F8H.2 SFRSYM    DATA     BIT       SPI0CN0_NSSMD0
      000000D0H.7 SFRSYM    DATA     BIT       PSW_CY
      000000A3H   SFRSYM    DATA     BYTE      SPI0DAT
      000000F8H.3 SFRSYM    DATA     BIT       SPI0CN0_NSSMD1
      000000BDH   SFRSYM    DATA     WORD      ADC0
      000000B9H   SFRSYM    DATA     BYTE      SMBTC
      000000D0H   SFRSYM    DATA     BYTE      PSW
      000000C8H.5 SFRSYM    DATA     BIT       TMR5CN0_TF5LEN
      000000B7H   SFRSYM    DATA     BYTE      FLKEY
      00000090H.4 SFRSYM    DATA     BIT       BtnUpGpio

      0100722BH   BLOCK     CODE     ---       LVL=0
      0100722BH   LINE      CODE     ---       #13
      0100722BH   LINE      CODE     ---       #14
      0100724BH   LINE      CODE     ---       #15
      0100726BH   LINE      CODE     ---       #16
      01007273H   LINE      CODE     ---       #18
      01007278H   LINE      CODE     ---       #19
      01007283H   LINE      CODE     ---       #20
      ---         BLOCKEND  ---      ---       LVL=0

      01007686H   BLOCK     CODE     ---       LVL=0
      01007686H   LINE      CODE     ---       #22
      01007686H   LINE      CODE     ---       #23
LX51 LINKER/LOCATER V4.66.66.0                                                        03/09/2017  11:29:19  PAGE 66


      01007688H   LINE      CODE     ---       #24
      01007690H   LINE      CODE     ---       #26
      010076B2H   LINE      CODE     ---       #27
      010076C0H   LINE      CODE     ---       #28
      010076C0H   LINE      CODE     ---       #29
      ---         BLOCKEND  ---      ---       LVL=0

      0100791AH   BLOCK     CODE     ---       LVL=0
      0100791AH   LINE      CODE     ---       #31
      0100791AH   LINE      CODE     ---       #32
      01007923H   LINE      CODE     ---       #33
      0100792BH   LINE      CODE     ---       #34
      01007932H   LINE      CODE     ---       #35
      01007932H   LINE      CODE     ---       #36
      01007932H   LINE      CODE     ---       #38
      01007932H   LINE      CODE     ---       #39
      ---         BLOCKEND  ---      ---       LVL=0

      01003FA2H   BLOCK     CODE     ---       LVL=0
      01003FA2H   LINE      CODE     ---       #41
      01003FBFH   LINE      CODE     ---       #42
      01003FC1H   LINE      CODE     ---       #44
      01003FE6H   LINE      CODE     ---       #45
      01003FEBH   LINE      CODE     ---       #46
      01003FF0H   LINE      CODE     ---       #47
      01003FF5H   LINE      CODE     ---       #48
      01003FFAH   LINE      CODE     ---       #49
      01003FFFH   LINE      CODE     ---       #50
      01004004H   LINE      CODE     ---       #51
      01004009H   LINE      CODE     ---       #52
      0100400CH   LINE      CODE     ---       #53
      0100400CH   LINE      CODE     ---       #55
      01004019H   LINE      CODE     ---       #56
      01004045H   LINE      CODE     ---       #58
      0100405FH   LINE      CODE     ---       #59
      01004096H   LINE      CODE     ---       #60
      0100409EH   LINE      CODE     ---       #61
      010040C0H   LINE      CODE     ---       #62
      010040E8H   LINE      CODE     ---       #63
      010040EAH   LINE      CODE     ---       #64
      0100410AH   LINE      CODE     ---       #65
      0100410AH   LINE      CODE     ---       #67
      01004117H   LINE      CODE     ---       #68
      0100411DH   LINE      CODE     ---       #69
      0100411FH   LINE      CODE     ---       #70
      01004121H   LINE      CODE     ---       #71
      01004129H   LINE      CODE     ---       #72
      0100413BH   LINE      CODE     ---       #73
      01004167H   LINE      CODE     ---       #74
      0100416FH   LINE      CODE     ---       #75
      01004174H   LINE      CODE     ---       #76
      0100417AH   LINE      CODE     ---       #77
      0100417AH   LINE      CODE     ---       #78
      ---         BLOCKEND  ---      ---       LVL=0

      ---         MODULE    ---      ---       STERRING
      00000033H   PUBLIC    DATA     BYTE      SterringStepState
      00000031H   PUBLIC    DATA     WORD      SterringTickTime
      0000002FH   PUBLIC    DATA     WORD      SterringPwmPeriod
      02000978H   PUBLIC    XDATA    ---       SterringParam
      0000002DH   PUBLIC    DATA     WORD      SterringPwmCnt
      0000002BH   PUBLIC    DATA     WORD      SterringPwmPulse
      01004707H   PUBLIC    CODE     ---       TIMER3_ISR
      01000051H   PUBLIC    CODE     ---       SterringProcessHandle
      010079BDH   PUBLIC    CODE     ---       SterringDetect
LX51 LINKER/LOCATER V4.66.66.0                                                        03/09/2017  11:29:19  PAGE 67


      0100780CH   PUBLIC    CODE     ---       SterringDatInit
      000000A2H   SFRSYM    DATA     BYTE      SPI0CKR
      00000080H   SFRSYM    DATA     BYTE      P0
      000000D0H.2 SFRSYM    DATA     BIT       PSW_OV
      000000B1H   SFRSYM    DATA     BYTE      XOSC0CN
      00000090H   SFRSYM    DATA     BYTE      P1
      000000A0H   SFRSYM    DATA     BYTE      P2
      000000B0H   SFRSYM    DATA     BYTE      P3
      000000BCH   SFRSYM    DATA     BYTE      ADC0CF
      000000C8H   SFRSYM    DATA     BIT       TMR2CN0_T2XCLK
      000000C7H   SFRSYM    DATA     BYTE      P4
      000000C0H.7 SFRSYM    DATA     BIT       SMB0CN0_MASTER
      000000F9H   SFRSYM    DATA     WORD      PCA0
      000000E6H   SFRSYM    DATA     BYTE      EIE1
      000000C0H.7 SFRSYM    DATA     BIT       SMB1CN0_MASTER
      000000C0H.1 SFRSYM    DATA     BIT       SMB0CN0_ACK
      000000D7H   SFRSYM    DATA     BYTE      USB0XCN
      000000E7H   SFRSYM    DATA     BYTE      EIE2
      000000C0H.1 SFRSYM    DATA     BIT       SMB1CN0_ACK
      0000008FH   SFRSYM    DATA     BYTE      PSCTL
      000000E4H   SFRSYM    DATA     BYTE      IT01CF
      000000C8H   SFRSYM    DATA     BIT       TMR5CN0_T5XCLK
      000000C0H.6 SFRSYM    DATA     BIT       SMB0CN0_TXMODE
      000000C0H.6 SFRSYM    DATA     BIT       SMB1CN0_TXMODE
      000000BFH   SFRSYM    DATA     BYTE      SFRPAGE
      000000A4H   SFRSYM    DATA     BYTE      P0MDOUT
      00000080H.5 SFRSYM    DATA     BIT       LCD_SDA
      000000A5H   SFRSYM    DATA     BYTE      P1MDOUT
      000000E8H.5 SFRSYM    DATA     BIT       ADC0CN0_ADINT
      000000CBH   SFRSYM    DATA     BYTE      TMR2RLH
      000000A6H   SFRSYM    DATA     BYTE      P2MDOUT
      000000A8H   SFRSYM    DATA     BYTE      IE
      00000093H   SFRSYM    DATA     BYTE      TMR3RLH
      000000A7H   SFRSYM    DATA     BYTE      P3MDOUT
      00000093H   SFRSYM    DATA     BYTE      TMR4RLH
      000000AEH   SFRSYM    DATA     BYTE      P4MDOUT
      000000F6H   SFRSYM    DATA     BYTE      EIP1
      000000CBH   SFRSYM    DATA     BYTE      TMR5RLH
      000000F7H   SFRSYM    DATA     BYTE      EIP2
      00000098H.2 SFRSYM    DATA     BIT       SCON0_RB8
      000000CAH   SFRSYM    DATA     BYTE      TMR2RLL
      000000FCH   SFRSYM    DATA     BYTE      PCA0CPH0
      00000092H   SFRSYM    DATA     BYTE      TMR3RLL
      000000EAH   SFRSYM    DATA     BYTE      PCA0CPH1
      00000098H.3 SFRSYM    DATA     BIT       SCON0_TB8
      000000F0H   SFRSYM    DATA     BIT       B_B0
      00000082H   SFRSYM    DATA     WORD      DP
      00000092H   SFRSYM    DATA     BYTE      TMR4RLL
      000000ECH   SFRSYM    DATA     BYTE      PCA0CPH2
      000000F0H.1 SFRSYM    DATA     BIT       B_B1
      000000C3H   SFRSYM    DATA     WORD      ADC0GT
      000000CAH   SFRSYM    DATA     BYTE      TMR5RLL
      000000EEH   SFRSYM    DATA     BYTE      PCA0CPH3
      00000080H.3 SFRSYM    DATA     BIT       LCD_SCK
      000000F0H.2 SFRSYM    DATA     BIT       B_B2
      000000FBH   SFRSYM    DATA     BYTE      PCA0CPL0
      000000FEH   SFRSYM    DATA     BYTE      PCA0CPH4
      00000085H   SFRSYM    DATA     BYTE      EMI0CF
      000000F0H.3 SFRSYM    DATA     BIT       B_B3
      000000D9H   SFRSYM    DATA     BYTE      PCA0MD
      000000DAH   SFRSYM    DATA     BYTE      PCA0CPM0
      000000E9H   SFRSYM    DATA     BYTE      PCA0CPL1
      000000F0H.4 SFRSYM    DATA     BIT       B_B4
      000000DBH   SFRSYM    DATA     BYTE      PCA0CPM1
      000000EBH   SFRSYM    DATA     BYTE      PCA0CPL2
LX51 LINKER/LOCATER V4.66.66.0                                                        03/09/2017  11:29:19  PAGE 68


      000000F0H.5 SFRSYM    DATA     BIT       B_B5
      000000DCH   SFRSYM    DATA     BYTE      PCA0CPM2
      000000EDH   SFRSYM    DATA     BYTE      PCA0CPL3
      000000B8H   SFRSYM    DATA     BYTE      IP
      000000F0H.6 SFRSYM    DATA     BIT       B_B6
      000000C5H   SFRSYM    DATA     WORD      ADC0LT
      000000DDH   SFRSYM    DATA     BYTE      PCA0CPM3
      000000FDH   SFRSYM    DATA     BYTE      PCA0CPL4
      00000098H.5 SFRSYM    DATA     BIT       SCON0_MCE
      000000F0H.7 SFRSYM    DATA     BIT       B_B7
      000000DEH   SFRSYM    DATA     BYTE      PCA0CPM4
      000000E1H   SFRSYM    DATA     BYTE      XBR0
      000000C1H   SFRSYM    DATA     BYTE      SMB0CF
      000000E2H   SFRSYM    DATA     BYTE      XBR1
      000000C1H   SFRSYM    DATA     BYTE      SMB1CF
      000000AFH   SFRSYM    DATA     BYTE      PFE0CN
      000000AAH   SFRSYM    DATA     BYTE      EMI0CN
      000000C0H.5 SFRSYM    DATA     BIT       SMB0CN0_STA
      000000E3H   SFRSYM    DATA     BYTE      XBR2
      000000C0H.5 SFRSYM    DATA     BIT       SMB1CN0_STA
      000000E0H   SFRSYM    DATA     BIT       ACC_ACC0
      000000D1H   SFRSYM    DATA     BYTE      REF0CN
      000000B2H   SFRSYM    DATA     BYTE      HFO0CN
      0000008EH   SFRSYM    DATA     BYTE      CKCON0
      000000E0H.1 SFRSYM    DATA     BIT       ACC_ACC1
      000000E4H   SFRSYM    DATA     BYTE      CKCON1
      000000C8H.2 SFRSYM    DATA     BIT       TMR2CN0_TR2
      000000E0H.2 SFRSYM    DATA     BIT       ACC_ACC2
      000000E0H.3 SFRSYM    DATA     BIT       ACC_ACC3
      00000081H   SFRSYM    DATA     BYTE      SP
      0000009DH   SFRSYM    DATA     BYTE      CMP0MD
      000000E0H.4 SFRSYM    DATA     BIT       ACC_ACC4
      00000086H   SFRSYM    DATA     BYTE      LFO0CN
      00000084H   SFRSYM    DATA     BYTE      EMI0TC
      0000009CH   SFRSYM    DATA     BYTE      CMP1MD
      000000D8H   SFRSYM    DATA     BIT       PCA0CN0_CCF0
      000000E0H.5 SFRSYM    DATA     BIT       ACC_ACC5
      000000D8H.1 SFRSYM    DATA     BIT       PCA0CN0_CCF1
      000000E0H.6 SFRSYM    DATA     BIT       ACC_ACC6
      000000CCH   SFRSYM    DATA     WORD      TMR2
      000000D8H.2 SFRSYM    DATA     BIT       PCA0CN0_CCF2
      000000E0H.7 SFRSYM    DATA     BIT       ACC_ACC7
      00000094H   SFRSYM    DATA     WORD      TMR3
      000000C8H.2 SFRSYM    DATA     BIT       TMR5CN0_TR5
      000000D8H.3 SFRSYM    DATA     BIT       PCA0CN0_CCF3
      00000094H   SFRSYM    DATA     WORD      TMR4
      000000ACH   SFRSYM    DATA     BYTE      SBCON1
      000000D8H.4 SFRSYM    DATA     BIT       PCA0CN0_CCF4
      000000CCH   SFRSYM    DATA     WORD      TMR5
      000000C0H.3 SFRSYM    DATA     BIT       SMB0CN0_ACKRQ
      000000FFH   SFRSYM    DATA     BYTE      VDM0CN
      000000F1H   SFRSYM    DATA     BYTE      P0MDIN
      000000C0H.3 SFRSYM    DATA     BIT       SMB1CN0_ACKRQ
      00000098H.4 SFRSYM    DATA     BIT       SCON0_REN
      000000F2H   SFRSYM    DATA     BYTE      P1MDIN
      000000F3H   SFRSYM    DATA     BYTE      P2MDIN
      000000C0H.4 SFRSYM    DATA     BIT       SMB0CN0_STO
      000000F4H   SFRSYM    DATA     BYTE      P3MDIN
      00000090H.3 SFRSYM    DATA     BIT       LCD_RST
      000000C0H.4 SFRSYM    DATA     BIT       SMB1CN0_STO
      000000B5H   SFRSYM    DATA     BYTE      SBRLH1
      000000F5H   SFRSYM    DATA     BYTE      P4MDIN
      000000D0H.3 SFRSYM    DATA     BIT       PSW_RS0
      000000D8H.7 SFRSYM    DATA     BIT       PCA0CN0_CF
      000000F8H.4 SFRSYM    DATA     BIT       SPI0CN0_RXOVRN
LX51 LINKER/LOCATER V4.66.66.0                                                        03/09/2017  11:29:19  PAGE 69


      000000D0H.4 SFRSYM    DATA     BIT       PSW_RS1
      000000B4H   SFRSYM    DATA     BYTE      SBRLL1
      000000E8H.7 SFRSYM    DATA     BIT       ADC0CN0_ADEN
      00000089H   SFRSYM    DATA     BYTE      TMOD
      00000088H   SFRSYM    DATA     BYTE      TCON
      000000D0H   SFRSYM    DATA     BIT       PSW_PARITY
      000000A8H.4 SFRSYM    DATA     BIT       IE_ES0
      0000009FH   SFRSYM    DATA     BYTE      CMP0MX
      000000A8H.1 SFRSYM    DATA     BIT       IE_ET0
      0000009EH   SFRSYM    DATA     BYTE      CMP1MX
      000000A8H.3 SFRSYM    DATA     BIT       IE_ET1
      000000D4H   SFRSYM    DATA     BYTE      P0SKIP
      000000C8H.1 SFRSYM    DATA     BIT       TMR2CN0_T2CSS
      000000A8H.5 SFRSYM    DATA     BIT       IE_ET2
      000000D5H   SFRSYM    DATA     BYTE      P1SKIP
      000000D6H   SFRSYM    DATA     BYTE      P2SKIP
      000000E8H   SFRSYM    DATA     BYTE      ADC0CN0
      000000A8H   SFRSYM    DATA     BIT       IE_EX0
      000000DFH   SFRSYM    DATA     BYTE      P3SKIP
      000000D8H.6 SFRSYM    DATA     BIT       PCA0CN0_CR
      000000A8H.2 SFRSYM    DATA     BIT       IE_EX1
      00000098H.7 SFRSYM    DATA     BIT       SCON0_SMODE
      000000A9H   SFRSYM    DATA     BYTE      CLKSEL
      000000F8H   SFRSYM    DATA     BIT       SPI0CN0_SPIEN
      000000F0H   SFRSYM    DATA     BYTE      B
      000000BEH   SFRSYM    DATA     BYTE      ADC0H
      000000E8H.6 SFRSYM    DATA     BIT       ADC0CN0_ADTM
      000000CAH   SFRSYM    DATA     WORD      TMR2RL
      000000BDH   SFRSYM    DATA     BYTE      ADC0L
      00000092H   SFRSYM    DATA     WORD      TMR3RL
      00000092H   SFRSYM    DATA     WORD      TMR4RL
      000000D8H   SFRSYM    DATA     BYTE      PCA0CN0
      000000E0H   SFRSYM    DATA     BYTE      ACC
      000000CAH   SFRSYM    DATA     WORD      TMR5RL
      000000FBH   SFRSYM    DATA     WORD      PCA0CP0
      00000080H.6 SFRSYM    DATA     BIT       LCD_CS
      000000E9H   SFRSYM    DATA     WORD      PCA0CP1
      000000EBH   SFRSYM    DATA     WORD      PCA0CP2
      000000EDH   SFRSYM    DATA     WORD      PCA0CP3
      0000008CH   SFRSYM    DATA     BYTE      TH0
      000000B8H.4 SFRSYM    DATA     BIT       IP_PS0
      000000FDH   SFRSYM    DATA     WORD      PCA0CP4
      0000008DH   SFRSYM    DATA     BYTE      TH1
      000000FAH   SFRSYM    DATA     BYTE      PCA0H
      000000B8H.1 SFRSYM    DATA     BIT       IP_PT0
      000000B8H.3 SFRSYM    DATA     BIT       IP_PT1
      000000C0H.2 SFRSYM    DATA     BIT       SMB0CN0_ARBLOST
      000000B8H.5 SFRSYM    DATA     BIT       IP_PT2
      0000008AH   SFRSYM    DATA     BYTE      TL0
      000000F8H.1 SFRSYM    DATA     BIT       SPI0CN0_TXBMT
      000000C0H.2 SFRSYM    DATA     BIT       SMB1CN0_ARBLOST
      000000D0H.5 SFRSYM    DATA     BIT       PSW_F0
      000000A8H.6 SFRSYM    DATA     BIT       IE_ESPI0
      0000008BH   SFRSYM    DATA     BYTE      TL1
      000000F9H   SFRSYM    DATA     BYTE      PCA0L
      000000C0H   SFRSYM    DATA     BIT       SMB0CN0_SI
      000000D0H.1 SFRSYM    DATA     BIT       PSW_F1
      00000080H   SFRSYM    DATA     BIT       P0_B0
      000000B8H   SFRSYM    DATA     BIT       IP_PX0
      000000C9H   SFRSYM    DATA     BYTE      REG01CN
      000000C0H   SFRSYM    DATA     BIT       SMB1CN0_SI
      00000090H   SFRSYM    DATA     BIT       P1_B0
      00000080H.1 SFRSYM    DATA     BIT       P0_B1
      000000B8H.2 SFRSYM    DATA     BIT       IP_PX1
      0000009BH   SFRSYM    DATA     BYTE      CMP0CN0
LX51 LINKER/LOCATER V4.66.66.0                                                        03/09/2017  11:29:19  PAGE 70


      00000088H.1 SFRSYM    DATA     BIT       TCON_IE0
      000000A0H   SFRSYM    DATA     BIT       P2_B0
      00000090H.1 SFRSYM    DATA     BIT       P1_B1
      00000080H.2 SFRSYM    DATA     BIT       P0_B2
      0000009AH   SFRSYM    DATA     BYTE      CMP1CN0
      00000088H.3 SFRSYM    DATA     BIT       TCON_IE1
      000000B0H   SFRSYM    DATA     BIT       P3_B0
      000000A0H.1 SFRSYM    DATA     BIT       P2_B1
      00000090H.2 SFRSYM    DATA     BIT       P1_B2
      00000080H.3 SFRSYM    DATA     BIT       P0_B3
      000000C0H   SFRSYM    DATA     BYTE      SMB0CN0
      000000B0H.1 SFRSYM    DATA     BIT       P3_B1
      000000A0H.2 SFRSYM    DATA     BIT       P2_B2
      00000090H.3 SFRSYM    DATA     BIT       P1_B3
      00000080H.4 SFRSYM    DATA     BIT       P0_B4
      000000C0H   SFRSYM    DATA     BYTE      SMB1CN0
      000000B0H.2 SFRSYM    DATA     BIT       P3_B2
      000000A0H.3 SFRSYM    DATA     BIT       P2_B3
      00000090H.4 SFRSYM    DATA     BIT       P1_B4
      00000080H.5 SFRSYM    DATA     BIT       P0_B5
      000000B0H.3 SFRSYM    DATA     BIT       P3_B3
      000000A0H.4 SFRSYM    DATA     BIT       P2_B4
      00000090H.5 SFRSYM    DATA     BIT       P1_B5
      00000080H.6 SFRSYM    DATA     BIT       P0_B6
      00000080H.2 SFRSYM    DATA     BIT       LCD_RS
      000000B0H.4 SFRSYM    DATA     BIT       P3_B4
      000000A0H.5 SFRSYM    DATA     BIT       P2_B5
      00000090H.6 SFRSYM    DATA     BIT       P1_B6
      00000080H.7 SFRSYM    DATA     BIT       P0_B7
      000000B0H.5 SFRSYM    DATA     BIT       P3_B5
      000000A0H.6 SFRSYM    DATA     BIT       P2_B6
      00000090H.7 SFRSYM    DATA     BIT       P1_B7
      000000B0H.6 SFRSYM    DATA     BIT       P3_B6
      000000A0H.7 SFRSYM    DATA     BIT       P2_B7
      000000B0H.7 SFRSYM    DATA     BIT       P3_B7
      00000083H   SFRSYM    DATA     BYTE      DPH
      000000C4H   SFRSYM    DATA     BYTE      ADC0GTH
      000000C8H.7 SFRSYM    DATA     BIT       TMR2CN0_TF2H
      000000C8H.3 SFRSYM    DATA     BIT       TMR2CN0_T2SPLIT
      000000D0H.6 SFRSYM    DATA     BIT       PSW_AC
      000000F8H   SFRSYM    DATA     BYTE      SPI0CN0
      000000B3H   SFRSYM    DATA     BYTE      HFO0CAL
      00000080H   SFRSYM    DATA     BIT       BtnEntGpio
      00000088H.5 SFRSYM    DATA     BIT       TCON_TF0
      00000098H   SFRSYM    DATA     BIT       SCON0_RI
      00000082H   SFRSYM    DATA     BYTE      DPL
      00000088H.7 SFRSYM    DATA     BIT       TCON_TF1
      00000099H   SFRSYM    DATA     BYTE      SBUF0
      00000087H   SFRSYM    DATA     BYTE      PCON0
      000000C3H   SFRSYM    DATA     BYTE      ADC0GTL
      000000C8H.6 SFRSYM    DATA     BIT       TMR2CN0_TF2L
      00000098H.1 SFRSYM    DATA     BIT       SCON0_TI
      000000E8H   SFRSYM    DATA     BIT       ADC0CN0_ADCM0
      000000D3H   SFRSYM    DATA     BYTE      SBUF1
      000000C6H   SFRSYM    DATA     BYTE      ADC0LTH
      00000088H   SFRSYM    DATA     BIT       TCON_IT0
      000000E8H.1 SFRSYM    DATA     BIT       ADC0CN0_ADCM1
      000000EFH   SFRSYM    DATA     BYTE      RSTSRC
      000000C8H.7 SFRSYM    DATA     BIT       TMR5CN0_TF5H
      000000C8H.3 SFRSYM    DATA     BIT       TMR5CN0_T5SPLIT
      00000088H.2 SFRSYM    DATA     BIT       TCON_IT1
      000000E8H.2 SFRSYM    DATA     BIT       ADC0CN0_ADCM2
      00000098H   SFRSYM    DATA     BYTE      SCON0
      000000E8H.3 SFRSYM    DATA     BIT       ADC0CN0_ADWINT
      000000B4H   SFRSYM    DATA     WORD      SBRL1
LX51 LINKER/LOCATER V4.66.66.0                                                        03/09/2017  11:29:19  PAGE 71


      000000E5H   SFRSYM    DATA     BYTE      SMOD1
      000000D2H   SFRSYM    DATA     BYTE      SCON1
      000000BAH   SFRSYM    DATA     BYTE      AMX0N
      000000E8H.4 SFRSYM    DATA     BIT       ADC0CN0_ADBUSY
      000000CEH   SFRSYM    DATA     BYTE      SMB0ADM
      000000C5H   SFRSYM    DATA     BYTE      ADC0LTL
      000000F8H.5 SFRSYM    DATA     BIT       SPI0CN0_MODF
      000000B8H.6 SFRSYM    DATA     BIT       IP_PSPI0
      000000CEH   SFRSYM    DATA     BYTE      SMB1ADM
      000000BBH   SFRSYM    DATA     BYTE      AMX0P
      000000C8H.6 SFRSYM    DATA     BIT       TMR5CN0_TF5L
      000000C8H   SFRSYM    DATA     BYTE      TMR2CN0
      00000091H   SFRSYM    DATA     BYTE      TMR3CN0
      00000080H.1 SFRSYM    DATA     BIT       BtnExtGpio
      00000091H   SFRSYM    DATA     BYTE      TMR4CN0
      000000C8H   SFRSYM    DATA     BYTE      TMR5CN0
      000000CFH   SFRSYM    DATA     BYTE      SMB0ADR
      00000088H.4 SFRSYM    DATA     BIT       TCON_TR0
      000000CFH   SFRSYM    DATA     BYTE      SMB1ADR
      000000C8H.4 SFRSYM    DATA     BIT       TMR2CN0_TF2CEN
      00000088H.6 SFRSYM    DATA     BIT       TCON_TR1
      000000C2H   SFRSYM    DATA     BYTE      SMB0DAT
      00000080H.4 SFRSYM    DATA     BIT       RC_OUT
      000000CDH   SFRSYM    DATA     BYTE      TMR2H
      000000A1H   SFRSYM    DATA     BYTE      SPI0CFG
      000000C2H   SFRSYM    DATA     BYTE      SMB1DAT
      00000095H   SFRSYM    DATA     BYTE      TMR3H
      00000095H   SFRSYM    DATA     BYTE      TMR4H
      000000CDH   SFRSYM    DATA     BYTE      TMR5H
      000000CCH   SFRSYM    DATA     BYTE      TMR2L
      00000090H.5 SFRSYM    DATA     BIT       BtnDwGpio
      000000F8H.7 SFRSYM    DATA     BIT       SPI0CN0_SPIF
      00000096H   SFRSYM    DATA     BYTE      USB0ADR
      00000094H   SFRSYM    DATA     BYTE      TMR3L
      000000A8H.7 SFRSYM    DATA     BIT       IE_EA
      00000094H   SFRSYM    DATA     BYTE      TMR4L
      00000097H   SFRSYM    DATA     BYTE      USB0DAT
      000000CCH   SFRSYM    DATA     BYTE      TMR5L
      000000B6H   SFRSYM    DATA     BYTE      FLSCL
      000000C8H.5 SFRSYM    DATA     BIT       TMR2CN0_TF2LEN
      000000F8H.6 SFRSYM    DATA     BIT       SPI0CN0_WCOL
      000000F8H.2 SFRSYM    DATA     BIT       SPI0CN0_NSSMD0
      000000D0H.7 SFRSYM    DATA     BIT       PSW_CY
      000000A3H   SFRSYM    DATA     BYTE      SPI0DAT
      000000F8H.3 SFRSYM    DATA     BIT       SPI0CN0_NSSMD1
      000000BDH   SFRSYM    DATA     WORD      ADC0
      000000B9H   SFRSYM    DATA     BYTE      SMBTC
      000000D0H   SFRSYM    DATA     BYTE      PSW
      000000C8H.5 SFRSYM    DATA     BIT       TMR5CN0_TF5LEN
      000000B7H   SFRSYM    DATA     BYTE      FLKEY
      00000090H.4 SFRSYM    DATA     BIT       BtnUpGpio

      0100780CH   BLOCK     CODE     ---       LVL=0
      0100780CH   LINE      CODE     ---       #13
      0100780CH   LINE      CODE     ---       #14
      01007812H   LINE      CODE     ---       #15
      0100781EH   LINE      CODE     ---       #16
      01007836H   LINE      CODE     ---       #17
      ---         BLOCKEND  ---      ---       LVL=0

      010079BDH   BLOCK     CODE     ---       LVL=0
      010079BDH   LINE      CODE     ---       #18
      010079BDH   LINE      CODE     ---       #19
      010079CBH   LINE      CODE     ---       #20
      ---         BLOCKEND  ---      ---       LVL=0
LX51 LINKER/LOCATER V4.66.66.0                                                        03/09/2017  11:29:19  PAGE 72



      01000051H   BLOCK     CODE     ---       LVL=0
      01000051H   LINE      CODE     ---       #21
      01000051H   LINE      CODE     ---       #22
      ---         BLOCKEND  ---      ---       LVL=0

      01004707H   BLOCK     CODE     ---       LVL=0
      01004707H   LINE      CODE     ---       #24
      0100471EH   LINE      CODE     ---       #25
      01004729H   LINE      CODE     ---       #26
      01004736H   LINE      CODE     ---       #27
      01004738H   LINE      CODE     ---       #28
      01004740H   LINE      CODE     ---       #29
      01004740H   LINE      CODE     ---       #30
      01004748H   LINE      CODE     ---       #31
      0100474BH   LINE      CODE     ---       #33
      0100475AH   LINE      CODE     ---       #34
      01004762H   LINE      CODE     ---       #35
      0100478CH   LINE      CODE     ---       #36
      01004790H   LINE      CODE     ---       #37
      0100479EH   LINE      CODE     ---       #38
      010047AFH   LINE      CODE     ---       #39
      010047B1H   LINE      CODE     ---       #40
      010047BFH   LINE      CODE     ---       #41
      010047D2H   LINE      CODE     ---       #42
      010047D2H   LINE      CODE     ---       #43
      010047E4H   LINE      CODE     ---       #44
      010047EAH   LINE      CODE     ---       #45
      010047F0H   LINE      CODE     ---       #46
      010047F0H   LINE      CODE     ---       #47
      01004801H   LINE      CODE     ---       #48
      01004813H   LINE      CODE     ---       #49
      01004823H   LINE      CODE     ---       #50
      0100483DH   LINE      CODE     ---       #51
      0100484DH   LINE      CODE     ---       #52
      01004868H   LINE      CODE     ---       #53
      01004878H   LINE      CODE     ---       #54
      01004894H   LINE      CODE     ---       #55
      01004894H   LINE      CODE     ---       #56
      ---         BLOCKEND  ---      ---       LVL=0

      ---         MODULE    ---      ---       PAGERES
      01007E29H   PUBLIC    CONST    ---       PageMainBmp
      01007D61H   PUBLIC    CONST    ---       MinFontTableMask
      01007A67H   PUBLIC    CONST    ---       AscFontTableMask
      01007A33H   PUBLIC    CONST    ---       ChsFontTableMask
      000000A2H   SFRSYM    DATA     BYTE      SPI0CKR
      00000080H   SFRSYM    DATA     BYTE      P0
      000000D0H.2 SFRSYM    DATA     BIT       PSW_OV
      000000B1H   SFRSYM    DATA     BYTE      XOSC0CN
      00000090H   SFRSYM    DATA     BYTE      P1
      000000A0H   SFRSYM    DATA     BYTE      P2
      000000B0H   SFRSYM    DATA     BYTE      P3
      000000BCH   SFRSYM    DATA     BYTE      ADC0CF
      000000C8H   SFRSYM    DATA     BIT       TMR2CN0_T2XCLK
      000000C7H   SFRSYM    DATA     BYTE      P4
      000000C0H.7 SFRSYM    DATA     BIT       SMB0CN0_MASTER
      000000F9H   SFRSYM    DATA     WORD      PCA0
      000000E6H   SFRSYM    DATA     BYTE      EIE1
      000000C0H.7 SFRSYM    DATA     BIT       SMB1CN0_MASTER
      000000C0H.1 SFRSYM    DATA     BIT       SMB0CN0_ACK
      000000D7H   SFRSYM    DATA     BYTE      USB0XCN
      000000E7H   SFRSYM    DATA     BYTE      EIE2
      000000C0H.1 SFRSYM    DATA     BIT       SMB1CN0_ACK
      0000008FH   SFRSYM    DATA     BYTE      PSCTL
LX51 LINKER/LOCATER V4.66.66.0                                                        03/09/2017  11:29:19  PAGE 73


      000000E4H   SFRSYM    DATA     BYTE      IT01CF
      000000C8H   SFRSYM    DATA     BIT       TMR5CN0_T5XCLK
      000000C0H.6 SFRSYM    DATA     BIT       SMB0CN0_TXMODE
      000000C0H.6 SFRSYM    DATA     BIT       SMB1CN0_TXMODE
      000000BFH   SFRSYM    DATA     BYTE      SFRPAGE
      000000A4H   SFRSYM    DATA     BYTE      P0MDOUT
      000000A5H   SFRSYM    DATA     BYTE      P1MDOUT
      000000E8H.5 SFRSYM    DATA     BIT       ADC0CN0_ADINT
      000000CBH   SFRSYM    DATA     BYTE      TMR2RLH
      000000A6H   SFRSYM    DATA     BYTE      P2MDOUT
      000000A8H   SFRSYM    DATA     BYTE      IE
      00000093H   SFRSYM    DATA     BYTE      TMR3RLH
      000000A7H   SFRSYM    DATA     BYTE      P3MDOUT
      00000093H   SFRSYM    DATA     BYTE      TMR4RLH
      000000AEH   SFRSYM    DATA     BYTE      P4MDOUT
      000000F6H   SFRSYM    DATA     BYTE      EIP1
      000000CBH   SFRSYM    DATA     BYTE      TMR5RLH
      000000F7H   SFRSYM    DATA     BYTE      EIP2
      00000098H.2 SFRSYM    DATA     BIT       SCON0_RB8
      000000CAH   SFRSYM    DATA     BYTE      TMR2RLL
      000000FCH   SFRSYM    DATA     BYTE      PCA0CPH0
      00000092H   SFRSYM    DATA     BYTE      TMR3RLL
      000000EAH   SFRSYM    DATA     BYTE      PCA0CPH1
      00000098H.3 SFRSYM    DATA     BIT       SCON0_TB8
      000000F0H   SFRSYM    DATA     BIT       B_B0
      00000082H   SFRSYM    DATA     WORD      DP
      00000092H   SFRSYM    DATA     BYTE      TMR4RLL
      000000ECH   SFRSYM    DATA     BYTE      PCA0CPH2
      000000F0H.1 SFRSYM    DATA     BIT       B_B1
      000000C3H   SFRSYM    DATA     WORD      ADC0GT
      000000CAH   SFRSYM    DATA     BYTE      TMR5RLL
      000000EEH   SFRSYM    DATA     BYTE      PCA0CPH3
      000000F0H.2 SFRSYM    DATA     BIT       B_B2
      000000FBH   SFRSYM    DATA     BYTE      PCA0CPL0
      000000FEH   SFRSYM    DATA     BYTE      PCA0CPH4
      00000085H   SFRSYM    DATA     BYTE      EMI0CF
      000000F0H.3 SFRSYM    DATA     BIT       B_B3
      000000D9H   SFRSYM    DATA     BYTE      PCA0MD
      000000DAH   SFRSYM    DATA     BYTE      PCA0CPM0
      000000E9H   SFRSYM    DATA     BYTE      PCA0CPL1
      000000F0H.4 SFRSYM    DATA     BIT       B_B4
      000000DBH   SFRSYM    DATA     BYTE      PCA0CPM1
      000000EBH   SFRSYM    DATA     BYTE      PCA0CPL2
      000000F0H.5 SFRSYM    DATA     BIT       B_B5
      000000DCH   SFRSYM    DATA     BYTE      PCA0CPM2
      000000EDH   SFRSYM    DATA     BYTE      PCA0CPL3
      000000B8H   SFRSYM    DATA     BYTE      IP
      000000F0H.6 SFRSYM    DATA     BIT       B_B6
      000000C5H   SFRSYM    DATA     WORD      ADC0LT
      000000DDH   SFRSYM    DATA     BYTE      PCA0CPM3
      000000FDH   SFRSYM    DATA     BYTE      PCA0CPL4
      00000098H.5 SFRSYM    DATA     BIT       SCON0_MCE
      000000F0H.7 SFRSYM    DATA     BIT       B_B7
      000000DEH   SFRSYM    DATA     BYTE      PCA0CPM4
      000000E1H   SFRSYM    DATA     BYTE      XBR0
      000000C1H   SFRSYM    DATA     BYTE      SMB0CF
      000000E2H   SFRSYM    DATA     BYTE      XBR1
      000000C1H   SFRSYM    DATA     BYTE      SMB1CF
      000000AFH   SFRSYM    DATA     BYTE      PFE0CN
      000000AAH   SFRSYM    DATA     BYTE      EMI0CN
      000000C0H.5 SFRSYM    DATA     BIT       SMB0CN0_STA
      000000E3H   SFRSYM    DATA     BYTE      XBR2
      000000C0H.5 SFRSYM    DATA     BIT       SMB1CN0_STA
      000000E0H   SFRSYM    DATA     BIT       ACC_ACC0
      000000D1H   SFRSYM    DATA     BYTE      REF0CN
LX51 LINKER/LOCATER V4.66.66.0                                                        03/09/2017  11:29:19  PAGE 74


      000000B2H   SFRSYM    DATA     BYTE      HFO0CN
      0000008EH   SFRSYM    DATA     BYTE      CKCON0
      000000E0H.1 SFRSYM    DATA     BIT       ACC_ACC1
      000000E4H   SFRSYM    DATA     BYTE      CKCON1
      000000C8H.2 SFRSYM    DATA     BIT       TMR2CN0_TR2
      000000E0H.2 SFRSYM    DATA     BIT       ACC_ACC2
      000000E0H.3 SFRSYM    DATA     BIT       ACC_ACC3
      00000081H   SFRSYM    DATA     BYTE      SP
      0000009DH   SFRSYM    DATA     BYTE      CMP0MD
      000000E0H.4 SFRSYM    DATA     BIT       ACC_ACC4
      00000086H   SFRSYM    DATA     BYTE      LFO0CN
      00000084H   SFRSYM    DATA     BYTE      EMI0TC
      0000009CH   SFRSYM    DATA     BYTE      CMP1MD
      000000D8H   SFRSYM    DATA     BIT       PCA0CN0_CCF0
      000000E0H.5 SFRSYM    DATA     BIT       ACC_ACC5
      000000D8H.1 SFRSYM    DATA     BIT       PCA0CN0_CCF1
      000000E0H.6 SFRSYM    DATA     BIT       ACC_ACC6
      000000CCH   SFRSYM    DATA     WORD      TMR2
      000000D8H.2 SFRSYM    DATA     BIT       PCA0CN0_CCF2
      000000E0H.7 SFRSYM    DATA     BIT       ACC_ACC7
      00000094H   SFRSYM    DATA     WORD      TMR3
      000000C8H.2 SFRSYM    DATA     BIT       TMR5CN0_TR5
      000000D8H.3 SFRSYM    DATA     BIT       PCA0CN0_CCF3
      00000094H   SFRSYM    DATA     WORD      TMR4
      000000ACH   SFRSYM    DATA     BYTE      SBCON1
      000000D8H.4 SFRSYM    DATA     BIT       PCA0CN0_CCF4
      000000CCH   SFRSYM    DATA     WORD      TMR5
      000000C0H.3 SFRSYM    DATA     BIT       SMB0CN0_ACKRQ
      000000FFH   SFRSYM    DATA     BYTE      VDM0CN
      000000F1H   SFRSYM    DATA     BYTE      P0MDIN
      000000C0H.3 SFRSYM    DATA     BIT       SMB1CN0_ACKRQ
      00000098H.4 SFRSYM    DATA     BIT       SCON0_REN
      000000F2H   SFRSYM    DATA     BYTE      P1MDIN
      000000F3H   SFRSYM    DATA     BYTE      P2MDIN
      000000C0H.4 SFRSYM    DATA     BIT       SMB0CN0_STO
      000000F4H   SFRSYM    DATA     BYTE      P3MDIN
      000000C0H.4 SFRSYM    DATA     BIT       SMB1CN0_STO
      000000B5H   SFRSYM    DATA     BYTE      SBRLH1
      000000F5H   SFRSYM    DATA     BYTE      P4MDIN
      000000D0H.3 SFRSYM    DATA     BIT       PSW_RS0
      000000D8H.7 SFRSYM    DATA     BIT       PCA0CN0_CF
      000000F8H.4 SFRSYM    DATA     BIT       SPI0CN0_RXOVRN
      000000D0H.4 SFRSYM    DATA     BIT       PSW_RS1
      000000B4H   SFRSYM    DATA     BYTE      SBRLL1
      000000E8H.7 SFRSYM    DATA     BIT       ADC0CN0_ADEN
      00000089H   SFRSYM    DATA     BYTE      TMOD
      00000088H   SFRSYM    DATA     BYTE      TCON
      000000D0H   SFRSYM    DATA     BIT       PSW_PARITY
      000000A8H.4 SFRSYM    DATA     BIT       IE_ES0
      0000009FH   SFRSYM    DATA     BYTE      CMP0MX
      000000A8H.1 SFRSYM    DATA     BIT       IE_ET0
      0000009EH   SFRSYM    DATA     BYTE      CMP1MX
      000000A8H.3 SFRSYM    DATA     BIT       IE_ET1
      000000D4H   SFRSYM    DATA     BYTE      P0SKIP
      000000C8H.1 SFRSYM    DATA     BIT       TMR2CN0_T2CSS
      000000A8H.5 SFRSYM    DATA     BIT       IE_ET2
      000000D5H   SFRSYM    DATA     BYTE      P1SKIP
      000000D6H   SFRSYM    DATA     BYTE      P2SKIP
      000000E8H   SFRSYM    DATA     BYTE      ADC0CN0
      000000A8H   SFRSYM    DATA     BIT       IE_EX0
      000000DFH   SFRSYM    DATA     BYTE      P3SKIP
      000000D8H.6 SFRSYM    DATA     BIT       PCA0CN0_CR
      000000A8H.2 SFRSYM    DATA     BIT       IE_EX1
      00000098H.7 SFRSYM    DATA     BIT       SCON0_SMODE
      000000A9H   SFRSYM    DATA     BYTE      CLKSEL
LX51 LINKER/LOCATER V4.66.66.0                                                        03/09/2017  11:29:19  PAGE 75


      000000F8H   SFRSYM    DATA     BIT       SPI0CN0_SPIEN
      000000F0H   SFRSYM    DATA     BYTE      B
      000000BEH   SFRSYM    DATA     BYTE      ADC0H
      000000E8H.6 SFRSYM    DATA     BIT       ADC0CN0_ADTM
      000000CAH   SFRSYM    DATA     WORD      TMR2RL
      000000BDH   SFRSYM    DATA     BYTE      ADC0L
      00000092H   SFRSYM    DATA     WORD      TMR3RL
      00000092H   SFRSYM    DATA     WORD      TMR4RL
      000000D8H   SFRSYM    DATA     BYTE      PCA0CN0
      000000E0H   SFRSYM    DATA     BYTE      ACC
      000000CAH   SFRSYM    DATA     WORD      TMR5RL
      000000FBH   SFRSYM    DATA     WORD      PCA0CP0
      000000E9H   SFRSYM    DATA     WORD      PCA0CP1
      000000EBH   SFRSYM    DATA     WORD      PCA0CP2
      000000EDH   SFRSYM    DATA     WORD      PCA0CP3
      0000008CH   SFRSYM    DATA     BYTE      TH0
      000000B8H.4 SFRSYM    DATA     BIT       IP_PS0
      000000FDH   SFRSYM    DATA     WORD      PCA0CP4
      0000008DH   SFRSYM    DATA     BYTE      TH1
      000000FAH   SFRSYM    DATA     BYTE      PCA0H
      000000B8H.1 SFRSYM    DATA     BIT       IP_PT0
      000000B8H.3 SFRSYM    DATA     BIT       IP_PT1
      000000C0H.2 SFRSYM    DATA     BIT       SMB0CN0_ARBLOST
      000000B8H.5 SFRSYM    DATA     BIT       IP_PT2
      0000008AH   SFRSYM    DATA     BYTE      TL0
      000000F8H.1 SFRSYM    DATA     BIT       SPI0CN0_TXBMT
      000000C0H.2 SFRSYM    DATA     BIT       SMB1CN0_ARBLOST
      000000D0H.5 SFRSYM    DATA     BIT       PSW_F0
      000000A8H.6 SFRSYM    DATA     BIT       IE_ESPI0
      0000008BH   SFRSYM    DATA     BYTE      TL1
      000000F9H   SFRSYM    DATA     BYTE      PCA0L
      000000C0H   SFRSYM    DATA     BIT       SMB0CN0_SI
      000000D0H.1 SFRSYM    DATA     BIT       PSW_F1
      00000080H   SFRSYM    DATA     BIT       P0_B0
      000000B8H   SFRSYM    DATA     BIT       IP_PX0
      000000C9H   SFRSYM    DATA     BYTE      REG01CN
      000000C0H   SFRSYM    DATA     BIT       SMB1CN0_SI
      00000090H   SFRSYM    DATA     BIT       P1_B0
      00000080H.1 SFRSYM    DATA     BIT       P0_B1
      000000B8H.2 SFRSYM    DATA     BIT       IP_PX1
      0000009BH   SFRSYM    DATA     BYTE      CMP0CN0
      00000088H.1 SFRSYM    DATA     BIT       TCON_IE0
      000000A0H   SFRSYM    DATA     BIT       P2_B0
      00000090H.1 SFRSYM    DATA     BIT       P1_B1
      00000080H.2 SFRSYM    DATA     BIT       P0_B2
      0000009AH   SFRSYM    DATA     BYTE      CMP1CN0
      00000088H.3 SFRSYM    DATA     BIT       TCON_IE1
      000000B0H   SFRSYM    DATA     BIT       P3_B0
      000000A0H.1 SFRSYM    DATA     BIT       P2_B1
      00000090H.2 SFRSYM    DATA     BIT       P1_B2
      00000080H.3 SFRSYM    DATA     BIT       P0_B3
      000000C0H   SFRSYM    DATA     BYTE      SMB0CN0
      000000B0H.1 SFRSYM    DATA     BIT       P3_B1
      000000A0H.2 SFRSYM    DATA     BIT       P2_B2
      00000090H.3 SFRSYM    DATA     BIT       P1_B3
      00000080H.4 SFRSYM    DATA     BIT       P0_B4
      000000C0H   SFRSYM    DATA     BYTE      SMB1CN0
      000000B0H.2 SFRSYM    DATA     BIT       P3_B2
      000000A0H.3 SFRSYM    DATA     BIT       P2_B3
      00000090H.4 SFRSYM    DATA     BIT       P1_B4
      00000080H.5 SFRSYM    DATA     BIT       P0_B5
      000000B0H.3 SFRSYM    DATA     BIT       P3_B3
      000000A0H.4 SFRSYM    DATA     BIT       P2_B4
      00000090H.5 SFRSYM    DATA     BIT       P1_B5
      00000080H.6 SFRSYM    DATA     BIT       P0_B6
LX51 LINKER/LOCATER V4.66.66.0                                                        03/09/2017  11:29:19  PAGE 76


      000000B0H.4 SFRSYM    DATA     BIT       P3_B4
      000000A0H.5 SFRSYM    DATA     BIT       P2_B5
      00000090H.6 SFRSYM    DATA     BIT       P1_B6
      00000080H.7 SFRSYM    DATA     BIT       P0_B7
      000000B0H.5 SFRSYM    DATA     BIT       P3_B5
      000000A0H.6 SFRSYM    DATA     BIT       P2_B6
      00000090H.7 SFRSYM    DATA     BIT       P1_B7
      000000B0H.6 SFRSYM    DATA     BIT       P3_B6
      000000A0H.7 SFRSYM    DATA     BIT       P2_B7
      000000B0H.7 SFRSYM    DATA     BIT       P3_B7
      00000083H   SFRSYM    DATA     BYTE      DPH
      000000C4H   SFRSYM    DATA     BYTE      ADC0GTH
      000000C8H.7 SFRSYM    DATA     BIT       TMR2CN0_TF2H
      000000C8H.3 SFRSYM    DATA     BIT       TMR2CN0_T2SPLIT
      000000D0H.6 SFRSYM    DATA     BIT       PSW_AC
      000000F8H   SFRSYM    DATA     BYTE      SPI0CN0
      000000B3H   SFRSYM    DATA     BYTE      HFO0CAL
      00000088H.5 SFRSYM    DATA     BIT       TCON_TF0
      00000098H   SFRSYM    DATA     BIT       SCON0_RI
      00000082H   SFRSYM    DATA     BYTE      DPL
      00000088H.7 SFRSYM    DATA     BIT       TCON_TF1
      00000099H   SFRSYM    DATA     BYTE      SBUF0
      00000087H   SFRSYM    DATA     BYTE      PCON0
      000000C3H   SFRSYM    DATA     BYTE      ADC0GTL
      000000C8H.6 SFRSYM    DATA     BIT       TMR2CN0_TF2L
      00000098H.1 SFRSYM    DATA     BIT       SCON0_TI
      000000E8H   SFRSYM    DATA     BIT       ADC0CN0_ADCM0
      000000D3H   SFRSYM    DATA     BYTE      SBUF1
      000000C6H   SFRSYM    DATA     BYTE      ADC0LTH
      00000088H   SFRSYM    DATA     BIT       TCON_IT0
      000000E8H.1 SFRSYM    DATA     BIT       ADC0CN0_ADCM1
      000000EFH   SFRSYM    DATA     BYTE      RSTSRC
      000000C8H.7 SFRSYM    DATA     BIT       TMR5CN0_TF5H
      000000C8H.3 SFRSYM    DATA     BIT       TMR5CN0_T5SPLIT
      00000088H.2 SFRSYM    DATA     BIT       TCON_IT1
      000000E8H.2 SFRSYM    DATA     BIT       ADC0CN0_ADCM2
      00000098H   SFRSYM    DATA     BYTE      SCON0
      000000E8H.3 SFRSYM    DATA     BIT       ADC0CN0_ADWINT
      000000B4H   SFRSYM    DATA     WORD      SBRL1
      000000E5H   SFRSYM    DATA     BYTE      SMOD1
      000000D2H   SFRSYM    DATA     BYTE      SCON1
      000000BAH   SFRSYM    DATA     BYTE      AMX0N
      000000E8H.4 SFRSYM    DATA     BIT       ADC0CN0_ADBUSY
      000000CEH   SFRSYM    DATA     BYTE      SMB0ADM
      000000C5H   SFRSYM    DATA     BYTE      ADC0LTL
      000000F8H.5 SFRSYM    DATA     BIT       SPI0CN0_MODF
      000000B8H.6 SFRSYM    DATA     BIT       IP_PSPI0
      000000CEH   SFRSYM    DATA     BYTE      SMB1ADM
      000000BBH   SFRSYM    DATA     BYTE      AMX0P
      000000C8H.6 SFRSYM    DATA     BIT       TMR5CN0_TF5L
      000000C8H   SFRSYM    DATA     BYTE      TMR2CN0
      00000091H   SFRSYM    DATA     BYTE      TMR3CN0
      00000091H   SFRSYM    DATA     BYTE      TMR4CN0
      000000C8H   SFRSYM    DATA     BYTE      TMR5CN0
      000000CFH   SFRSYM    DATA     BYTE      SMB0ADR
      00000088H.4 SFRSYM    DATA     BIT       TCON_TR0
      000000CFH   SFRSYM    DATA     BYTE      SMB1ADR
      000000C8H.4 SFRSYM    DATA     BIT       TMR2CN0_TF2CEN
      00000088H.6 SFRSYM    DATA     BIT       TCON_TR1
      000000C2H   SFRSYM    DATA     BYTE      SMB0DAT
      000000CDH   SFRSYM    DATA     BYTE      TMR2H
      000000A1H   SFRSYM    DATA     BYTE      SPI0CFG
      000000C2H   SFRSYM    DATA     BYTE      SMB1DAT
      00000095H   SFRSYM    DATA     BYTE      TMR3H
      00000095H   SFRSYM    DATA     BYTE      TMR4H
LX51 LINKER/LOCATER V4.66.66.0                                                        03/09/2017  11:29:19  PAGE 77


      000000CDH   SFRSYM    DATA     BYTE      TMR5H
      000000CCH   SFRSYM    DATA     BYTE      TMR2L
      000000F8H.7 SFRSYM    DATA     BIT       SPI0CN0_SPIF
      00000096H   SFRSYM    DATA     BYTE      USB0ADR
      00000094H   SFRSYM    DATA     BYTE      TMR3L
      000000A8H.7 SFRSYM    DATA     BIT       IE_EA
      00000094H   SFRSYM    DATA     BYTE      TMR4L
      00000097H   SFRSYM    DATA     BYTE      USB0DAT
      000000CCH   SFRSYM    DATA     BYTE      TMR5L
      000000B6H   SFRSYM    DATA     BYTE      FLSCL
      000000C8H.5 SFRSYM    DATA     BIT       TMR2CN0_TF2LEN
      000000F8H.6 SFRSYM    DATA     BIT       SPI0CN0_WCOL
      000000F8H.2 SFRSYM    DATA     BIT       SPI0CN0_NSSMD0
      000000D0H.7 SFRSYM    DATA     BIT       PSW_CY
      000000A3H   SFRSYM    DATA     BYTE      SPI0DAT
      000000F8H.3 SFRSYM    DATA     BIT       SPI0CN0_NSSMD1
      000000BDH   SFRSYM    DATA     WORD      ADC0
      000000B9H   SFRSYM    DATA     BYTE      SMBTC
      000000D0H   SFRSYM    DATA     BYTE      PSW
      000000C8H.5 SFRSYM    DATA     BIT       TMR5CN0_TF5LEN
      000000B7H   SFRSYM    DATA     BYTE      FLKEY

      ---         MODULE    ---      ---       LCDBSAE
      01004D4AH   PUBLIC    CODE     ---       LcdDrawBufferRefresh
      0200097EH   PUBLIC    XDATA    BYTE      ?_LcdWriteAscString?BYTE
      010072D9H   PUBLIC    CODE     ---       _LcdWriteAscString
      01006C84H   PUBLIC    CODE     ---       _LcdWriteAscChar
      010078C2H   PUBLIC    CODE     ---       _LcdWriteClrline
      010079CCH   PUBLIC    CODE     ---       _LcdWriteDatLine
      010070F9H   PUBLIC    CODE     ---       _LcdWriteClr
      010076F9H   PUBLIC    CODE     ---       _Lcd_SetPageColumn
      0100002EH   PUBLIC    CODE     ---       _Lcd_SetColumn
      0100798BH   PUBLIC    CODE     ---       _Lcd_SetPage
      010071C8H   PUBLIC    CODE     ---       Lcd_Init
      000000A2H   SFRSYM    DATA     BYTE      SPI0CKR
      00000080H   SFRSYM    DATA     BYTE      P0
      000000D0H.2 SFRSYM    DATA     BIT       PSW_OV
      000000B1H   SFRSYM    DATA     BYTE      XOSC0CN
      00000090H   SFRSYM    DATA     BYTE      P1
      000000A0H   SFRSYM    DATA     BYTE      P2
      000000B0H   SFRSYM    DATA     BYTE      P3
      000000BCH   SFRSYM    DATA     BYTE      ADC0CF
      000000C8H   SFRSYM    DATA     BIT       TMR2CN0_T2XCLK
      000000C7H   SFRSYM    DATA     BYTE      P4
      000000C0H.7 SFRSYM    DATA     BIT       SMB0CN0_MASTER
      000000F9H   SFRSYM    DATA     WORD      PCA0
      000000E6H   SFRSYM    DATA     BYTE      EIE1
      000000C0H.7 SFRSYM    DATA     BIT       SMB1CN0_MASTER
      000000C0H.1 SFRSYM    DATA     BIT       SMB0CN0_ACK
      000000D7H   SFRSYM    DATA     BYTE      USB0XCN
      000000E7H   SFRSYM    DATA     BYTE      EIE2
      000000C0H.1 SFRSYM    DATA     BIT       SMB1CN0_ACK
      0000008FH   SFRSYM    DATA     BYTE      PSCTL
      000000E4H   SFRSYM    DATA     BYTE      IT01CF
      000000C8H   SFRSYM    DATA     BIT       TMR5CN0_T5XCLK
      000000C0H.6 SFRSYM    DATA     BIT       SMB0CN0_TXMODE
      000000C0H.6 SFRSYM    DATA     BIT       SMB1CN0_TXMODE
      000000BFH   SFRSYM    DATA     BYTE      SFRPAGE
      000000A4H   SFRSYM    DATA     BYTE      P0MDOUT
      00000080H.5 SFRSYM    DATA     BIT       LCD_SDA
      000000A5H   SFRSYM    DATA     BYTE      P1MDOUT
      000000E8H.5 SFRSYM    DATA     BIT       ADC0CN0_ADINT
      000000CBH   SFRSYM    DATA     BYTE      TMR2RLH
      000000A6H   SFRSYM    DATA     BYTE      P2MDOUT
      000000A8H   SFRSYM    DATA     BYTE      IE
LX51 LINKER/LOCATER V4.66.66.0                                                        03/09/2017  11:29:19  PAGE 78


      00000093H   SFRSYM    DATA     BYTE      TMR3RLH
      000000A7H   SFRSYM    DATA     BYTE      P3MDOUT
      00000093H   SFRSYM    DATA     BYTE      TMR4RLH
      000000AEH   SFRSYM    DATA     BYTE      P4MDOUT
      000000F6H   SFRSYM    DATA     BYTE      EIP1
      000000CBH   SFRSYM    DATA     BYTE      TMR5RLH
      000000F7H   SFRSYM    DATA     BYTE      EIP2
      00000098H.2 SFRSYM    DATA     BIT       SCON0_RB8
      000000CAH   SFRSYM    DATA     BYTE      TMR2RLL
      000000FCH   SFRSYM    DATA     BYTE      PCA0CPH0
      00000092H   SFRSYM    DATA     BYTE      TMR3RLL
      000000EAH   SFRSYM    DATA     BYTE      PCA0CPH1
      00000098H.3 SFRSYM    DATA     BIT       SCON0_TB8
      000000F0H   SFRSYM    DATA     BIT       B_B0
      00000082H   SFRSYM    DATA     WORD      DP
      00000092H   SFRSYM    DATA     BYTE      TMR4RLL
      000000ECH   SFRSYM    DATA     BYTE      PCA0CPH2
      000000F0H.1 SFRSYM    DATA     BIT       B_B1
      000000C3H   SFRSYM    DATA     WORD      ADC0GT
      000000CAH   SFRSYM    DATA     BYTE      TMR5RLL
      000000EEH   SFRSYM    DATA     BYTE      PCA0CPH3
      00000080H.3 SFRSYM    DATA     BIT       LCD_SCK
      000000F0H.2 SFRSYM    DATA     BIT       B_B2
      000000FBH   SFRSYM    DATA     BYTE      PCA0CPL0
      000000FEH   SFRSYM    DATA     BYTE      PCA0CPH4
      00000085H   SFRSYM    DATA     BYTE      EMI0CF
      000000F0H.3 SFRSYM    DATA     BIT       B_B3
      000000D9H   SFRSYM    DATA     BYTE      PCA0MD
      000000DAH   SFRSYM    DATA     BYTE      PCA0CPM0
      000000E9H   SFRSYM    DATA     BYTE      PCA0CPL1
      000000F0H.4 SFRSYM    DATA     BIT       B_B4
      000000DBH   SFRSYM    DATA     BYTE      PCA0CPM1
      000000EBH   SFRSYM    DATA     BYTE      PCA0CPL2
      000000F0H.5 SFRSYM    DATA     BIT       B_B5
      000000DCH   SFRSYM    DATA     BYTE      PCA0CPM2
      000000EDH   SFRSYM    DATA     BYTE      PCA0CPL3
      000000B8H   SFRSYM    DATA     BYTE      IP
      000000F0H.6 SFRSYM    DATA     BIT       B_B6
      000000C5H   SFRSYM    DATA     WORD      ADC0LT
      000000DDH   SFRSYM    DATA     BYTE      PCA0CPM3
      000000FDH   SFRSYM    DATA     BYTE      PCA0CPL4
      00000098H.5 SFRSYM    DATA     BIT       SCON0_MCE
      000000F0H.7 SFRSYM    DATA     BIT       B_B7
      000000DEH   SFRSYM    DATA     BYTE      PCA0CPM4
      000000E1H   SFRSYM    DATA     BYTE      XBR0
      000000C1H   SFRSYM    DATA     BYTE      SMB0CF
      000000E2H   SFRSYM    DATA     BYTE      XBR1
      000000C1H   SFRSYM    DATA     BYTE      SMB1CF
      000000AFH   SFRSYM    DATA     BYTE      PFE0CN
      000000AAH   SFRSYM    DATA     BYTE      EMI0CN
      000000C0H.5 SFRSYM    DATA     BIT       SMB0CN0_STA
      000000E3H   SFRSYM    DATA     BYTE      XBR2
      000000C0H.5 SFRSYM    DATA     BIT       SMB1CN0_STA
      000000E0H   SFRSYM    DATA     BIT       ACC_ACC0
      000000D1H   SFRSYM    DATA     BYTE      REF0CN
      000000B2H   SFRSYM    DATA     BYTE      HFO0CN
      0000008EH   SFRSYM    DATA     BYTE      CKCON0
      000000E0H.1 SFRSYM    DATA     BIT       ACC_ACC1
      000000E4H   SFRSYM    DATA     BYTE      CKCON1
      000000C8H.2 SFRSYM    DATA     BIT       TMR2CN0_TR2
      000000E0H.2 SFRSYM    DATA     BIT       ACC_ACC2
      000000E0H.3 SFRSYM    DATA     BIT       ACC_ACC3
      00000081H   SFRSYM    DATA     BYTE      SP
      0000009DH   SFRSYM    DATA     BYTE      CMP0MD
      000000E0H.4 SFRSYM    DATA     BIT       ACC_ACC4
LX51 LINKER/LOCATER V4.66.66.0                                                        03/09/2017  11:29:19  PAGE 79


      00000086H   SFRSYM    DATA     BYTE      LFO0CN
      00000084H   SFRSYM    DATA     BYTE      EMI0TC
      0000009CH   SFRSYM    DATA     BYTE      CMP1MD
      000000D8H   SFRSYM    DATA     BIT       PCA0CN0_CCF0
      000000E0H.5 SFRSYM    DATA     BIT       ACC_ACC5
      000000D8H.1 SFRSYM    DATA     BIT       PCA0CN0_CCF1
      000000E0H.6 SFRSYM    DATA     BIT       ACC_ACC6
      000000CCH   SFRSYM    DATA     WORD      TMR2
      000000D8H.2 SFRSYM    DATA     BIT       PCA0CN0_CCF2
      000000E0H.7 SFRSYM    DATA     BIT       ACC_ACC7
      00000094H   SFRSYM    DATA     WORD      TMR3
      000000C8H.2 SFRSYM    DATA     BIT       TMR5CN0_TR5
      000000D8H.3 SFRSYM    DATA     BIT       PCA0CN0_CCF3
      00000094H   SFRSYM    DATA     WORD      TMR4
      000000ACH   SFRSYM    DATA     BYTE      SBCON1
      000000D8H.4 SFRSYM    DATA     BIT       PCA0CN0_CCF4
      000000CCH   SFRSYM    DATA     WORD      TMR5
      000000C0H.3 SFRSYM    DATA     BIT       SMB0CN0_ACKRQ
      000000FFH   SFRSYM    DATA     BYTE      VDM0CN
      000000F1H   SFRSYM    DATA     BYTE      P0MDIN
      000000C0H.3 SFRSYM    DATA     BIT       SMB1CN0_ACKRQ
      00000098H.4 SFRSYM    DATA     BIT       SCON0_REN
      000000F2H   SFRSYM    DATA     BYTE      P1MDIN
      000000F3H   SFRSYM    DATA     BYTE      P2MDIN
      000000C0H.4 SFRSYM    DATA     BIT       SMB0CN0_STO
      000000F4H   SFRSYM    DATA     BYTE      P3MDIN
      00000090H.3 SFRSYM    DATA     BIT       LCD_RST
      000000C0H.4 SFRSYM    DATA     BIT       SMB1CN0_STO
      000000B5H   SFRSYM    DATA     BYTE      SBRLH1
      000000F5H   SFRSYM    DATA     BYTE      P4MDIN
      000000D0H.3 SFRSYM    DATA     BIT       PSW_RS0
      000000D8H.7 SFRSYM    DATA     BIT       PCA0CN0_CF
      000000F8H.4 SFRSYM    DATA     BIT       SPI0CN0_RXOVRN
      000000D0H.4 SFRSYM    DATA     BIT       PSW_RS1
      000000B4H   SFRSYM    DATA     BYTE      SBRLL1
      000000E8H.7 SFRSYM    DATA     BIT       ADC0CN0_ADEN
      00000089H   SFRSYM    DATA     BYTE      TMOD
      00000088H   SFRSYM    DATA     BYTE      TCON
      000000D0H   SFRSYM    DATA     BIT       PSW_PARITY
      000000A8H.4 SFRSYM    DATA     BIT       IE_ES0
      0000009FH   SFRSYM    DATA     BYTE      CMP0MX
      000000A8H.1 SFRSYM    DATA     BIT       IE_ET0
      0000009EH   SFRSYM    DATA     BYTE      CMP1MX
      000000A8H.3 SFRSYM    DATA     BIT       IE_ET1
      000000D4H   SFRSYM    DATA     BYTE      P0SKIP
      000000C8H.1 SFRSYM    DATA     BIT       TMR2CN0_T2CSS
      000000A8H.5 SFRSYM    DATA     BIT       IE_ET2
      000000D5H   SFRSYM    DATA     BYTE      P1SKIP
      000000D6H   SFRSYM    DATA     BYTE      P2SKIP
      000000E8H   SFRSYM    DATA     BYTE      ADC0CN0
      000000A8H   SFRSYM    DATA     BIT       IE_EX0
      000000DFH   SFRSYM    DATA     BYTE      P3SKIP
      000000D8H.6 SFRSYM    DATA     BIT       PCA0CN0_CR
      000000A8H.2 SFRSYM    DATA     BIT       IE_EX1
      00000098H.7 SFRSYM    DATA     BIT       SCON0_SMODE
      000000A9H   SFRSYM    DATA     BYTE      CLKSEL
      000000F8H   SFRSYM    DATA     BIT       SPI0CN0_SPIEN
      000000F0H   SFRSYM    DATA     BYTE      B
      000000BEH   SFRSYM    DATA     BYTE      ADC0H
      000000E8H.6 SFRSYM    DATA     BIT       ADC0CN0_ADTM
      000000CAH   SFRSYM    DATA     WORD      TMR2RL
      000000BDH   SFRSYM    DATA     BYTE      ADC0L
      00000092H   SFRSYM    DATA     WORD      TMR3RL
      00000092H   SFRSYM    DATA     WORD      TMR4RL
      000000D8H   SFRSYM    DATA     BYTE      PCA0CN0
LX51 LINKER/LOCATER V4.66.66.0                                                        03/09/2017  11:29:19  PAGE 80


      000000E0H   SFRSYM    DATA     BYTE      ACC
      000000CAH   SFRSYM    DATA     WORD      TMR5RL
      000000FBH   SFRSYM    DATA     WORD      PCA0CP0
      00000080H.6 SFRSYM    DATA     BIT       LCD_CS
      000000E9H   SFRSYM    DATA     WORD      PCA0CP1
      000000EBH   SFRSYM    DATA     WORD      PCA0CP2
      000000EDH   SFRSYM    DATA     WORD      PCA0CP3
      0000008CH   SFRSYM    DATA     BYTE      TH0
      000000B8H.4 SFRSYM    DATA     BIT       IP_PS0
      000000FDH   SFRSYM    DATA     WORD      PCA0CP4
      0000008DH   SFRSYM    DATA     BYTE      TH1
      000000FAH   SFRSYM    DATA     BYTE      PCA0H
      000000B8H.1 SFRSYM    DATA     BIT       IP_PT0
      000000B8H.3 SFRSYM    DATA     BIT       IP_PT1
      000000C0H.2 SFRSYM    DATA     BIT       SMB0CN0_ARBLOST
      000000B8H.5 SFRSYM    DATA     BIT       IP_PT2
      0000008AH   SFRSYM    DATA     BYTE      TL0
      000000F8H.1 SFRSYM    DATA     BIT       SPI0CN0_TXBMT
      000000C0H.2 SFRSYM    DATA     BIT       SMB1CN0_ARBLOST
      000000D0H.5 SFRSYM    DATA     BIT       PSW_F0
      000000A8H.6 SFRSYM    DATA     BIT       IE_ESPI0
      0000008BH   SFRSYM    DATA     BYTE      TL1
      000000F9H   SFRSYM    DATA     BYTE      PCA0L
      000000C0H   SFRSYM    DATA     BIT       SMB0CN0_SI
      000000D0H.1 SFRSYM    DATA     BIT       PSW_F1
      00000080H   SFRSYM    DATA     BIT       P0_B0
      000000B8H   SFRSYM    DATA     BIT       IP_PX0
      000000C9H   SFRSYM    DATA     BYTE      REG01CN
      000000C0H   SFRSYM    DATA     BIT       SMB1CN0_SI
      00000090H   SFRSYM    DATA     BIT       P1_B0
      00000080H.1 SFRSYM    DATA     BIT       P0_B1
      000000B8H.2 SFRSYM    DATA     BIT       IP_PX1
      0000009BH   SFRSYM    DATA     BYTE      CMP0CN0
      00000088H.1 SFRSYM    DATA     BIT       TCON_IE0
      000000A0H   SFRSYM    DATA     BIT       P2_B0
      00000090H.1 SFRSYM    DATA     BIT       P1_B1
      00000080H.2 SFRSYM    DATA     BIT       P0_B2
      0000009AH   SFRSYM    DATA     BYTE      CMP1CN0
      00000088H.3 SFRSYM    DATA     BIT       TCON_IE1
      000000B0H   SFRSYM    DATA     BIT       P3_B0
      000000A0H.1 SFRSYM    DATA     BIT       P2_B1
      00000090H.2 SFRSYM    DATA     BIT       P1_B2
      00000080H.3 SFRSYM    DATA     BIT       P0_B3
      000000C0H   SFRSYM    DATA     BYTE      SMB0CN0
      000000B0H.1 SFRSYM    DATA     BIT       P3_B1
      000000A0H.2 SFRSYM    DATA     BIT       P2_B2
      00000090H.3 SFRSYM    DATA     BIT       P1_B3
      00000080H.4 SFRSYM    DATA     BIT       P0_B4
      000000C0H   SFRSYM    DATA     BYTE      SMB1CN0
      000000B0H.2 SFRSYM    DATA     BIT       P3_B2
      000000A0H.3 SFRSYM    DATA     BIT       P2_B3
      00000090H.4 SFRSYM    DATA     BIT       P1_B4
      00000080H.5 SFRSYM    DATA     BIT       P0_B5
      000000B0H.3 SFRSYM    DATA     BIT       P3_B3
      000000A0H.4 SFRSYM    DATA     BIT       P2_B4
      00000090H.5 SFRSYM    DATA     BIT       P1_B5
      00000080H.6 SFRSYM    DATA     BIT       P0_B6
      00000080H.2 SFRSYM    DATA     BIT       LCD_RS
      000000B0H.4 SFRSYM    DATA     BIT       P3_B4
      000000A0H.5 SFRSYM    DATA     BIT       P2_B5
      00000090H.6 SFRSYM    DATA     BIT       P1_B6
      00000080H.7 SFRSYM    DATA     BIT       P0_B7
      000000B0H.5 SFRSYM    DATA     BIT       P3_B5
      000000A0H.6 SFRSYM    DATA     BIT       P2_B6
      00000090H.7 SFRSYM    DATA     BIT       P1_B7
LX51 LINKER/LOCATER V4.66.66.0                                                        03/09/2017  11:29:19  PAGE 81


      000000B0H.6 SFRSYM    DATA     BIT       P3_B6
      000000A0H.7 SFRSYM    DATA     BIT       P2_B7
      000000B0H.7 SFRSYM    DATA     BIT       P3_B7
      00000083H   SFRSYM    DATA     BYTE      DPH
      000000C4H   SFRSYM    DATA     BYTE      ADC0GTH
      000000C8H.7 SFRSYM    DATA     BIT       TMR2CN0_TF2H
      000000C8H.3 SFRSYM    DATA     BIT       TMR2CN0_T2SPLIT
      000000D0H.6 SFRSYM    DATA     BIT       PSW_AC
      000000F8H   SFRSYM    DATA     BYTE      SPI0CN0
      000000B3H   SFRSYM    DATA     BYTE      HFO0CAL
      00000080H   SFRSYM    DATA     BIT       BtnEntGpio
      00000088H.5 SFRSYM    DATA     BIT       TCON_TF0
      00000098H   SFRSYM    DATA     BIT       SCON0_RI
      00000082H   SFRSYM    DATA     BYTE      DPL
      00000088H.7 SFRSYM    DATA     BIT       TCON_TF1
      00000099H   SFRSYM    DATA     BYTE      SBUF0
      00000087H   SFRSYM    DATA     BYTE      PCON0
      000000C3H   SFRSYM    DATA     BYTE      ADC0GTL
      000000C8H.6 SFRSYM    DATA     BIT       TMR2CN0_TF2L
      00000098H.1 SFRSYM    DATA     BIT       SCON0_TI
      000000E8H   SFRSYM    DATA     BIT       ADC0CN0_ADCM0
      000000D3H   SFRSYM    DATA     BYTE      SBUF1
      000000C6H   SFRSYM    DATA     BYTE      ADC0LTH
      00000088H   SFRSYM    DATA     BIT       TCON_IT0
      000000E8H.1 SFRSYM    DATA     BIT       ADC0CN0_ADCM1
      000000EFH   SFRSYM    DATA     BYTE      RSTSRC
      000000C8H.7 SFRSYM    DATA     BIT       TMR5CN0_TF5H
      000000C8H.3 SFRSYM    DATA     BIT       TMR5CN0_T5SPLIT
      00000088H.2 SFRSYM    DATA     BIT       TCON_IT1
      000000E8H.2 SFRSYM    DATA     BIT       ADC0CN0_ADCM2
      00000098H   SFRSYM    DATA     BYTE      SCON0
      000000E8H.3 SFRSYM    DATA     BIT       ADC0CN0_ADWINT
      000000B4H   SFRSYM    DATA     WORD      SBRL1
      000000E5H   SFRSYM    DATA     BYTE      SMOD1
      000000D2H   SFRSYM    DATA     BYTE      SCON1
      000000BAH   SFRSYM    DATA     BYTE      AMX0N
      000000E8H.4 SFRSYM    DATA     BIT       ADC0CN0_ADBUSY
      000000CEH   SFRSYM    DATA     BYTE      SMB0ADM
      000000C5H   SFRSYM    DATA     BYTE      ADC0LTL
      000000F8H.5 SFRSYM    DATA     BIT       SPI0CN0_MODF
      000000B8H.6 SFRSYM    DATA     BIT       IP_PSPI0
      000000CEH   SFRSYM    DATA     BYTE      SMB1ADM
      000000BBH   SFRSYM    DATA     BYTE      AMX0P
      000000C8H.6 SFRSYM    DATA     BIT       TMR5CN0_TF5L
      000000C8H   SFRSYM    DATA     BYTE      TMR2CN0
      00000091H   SFRSYM    DATA     BYTE      TMR3CN0
      00000080H.1 SFRSYM    DATA     BIT       BtnExtGpio
      00000091H   SFRSYM    DATA     BYTE      TMR4CN0
      000000C8H   SFRSYM    DATA     BYTE      TMR5CN0
      000000CFH   SFRSYM    DATA     BYTE      SMB0ADR
      00000088H.4 SFRSYM    DATA     BIT       TCON_TR0
      000000CFH   SFRSYM    DATA     BYTE      SMB1ADR
      000000C8H.4 SFRSYM    DATA     BIT       TMR2CN0_TF2CEN
      00000088H.6 SFRSYM    DATA     BIT       TCON_TR1
      000000C2H   SFRSYM    DATA     BYTE      SMB0DAT
      00000080H.4 SFRSYM    DATA     BIT       RC_OUT
      000000CDH   SFRSYM    DATA     BYTE      TMR2H
      000000A1H   SFRSYM    DATA     BYTE      SPI0CFG
      000000C2H   SFRSYM    DATA     BYTE      SMB1DAT
      00000095H   SFRSYM    DATA     BYTE      TMR3H
      00000095H   SFRSYM    DATA     BYTE      TMR4H
      000000CDH   SFRSYM    DATA     BYTE      TMR5H
      000000CCH   SFRSYM    DATA     BYTE      TMR2L
      00000090H.5 SFRSYM    DATA     BIT       BtnDwGpio
      000000F8H.7 SFRSYM    DATA     BIT       SPI0CN0_SPIF
LX51 LINKER/LOCATER V4.66.66.0                                                        03/09/2017  11:29:19  PAGE 82


      00000096H   SFRSYM    DATA     BYTE      USB0ADR
      00000094H   SFRSYM    DATA     BYTE      TMR3L
      000000A8H.7 SFRSYM    DATA     BIT       IE_EA
      00000094H   SFRSYM    DATA     BYTE      TMR4L
      00000097H   SFRSYM    DATA     BYTE      USB0DAT
      000000CCH   SFRSYM    DATA     BYTE      TMR5L
      000000B6H   SFRSYM    DATA     BYTE      FLSCL
      000000C8H.5 SFRSYM    DATA     BIT       TMR2CN0_TF2LEN
      000000F8H.6 SFRSYM    DATA     BIT       SPI0CN0_WCOL
      000000F8H.2 SFRSYM    DATA     BIT       SPI0CN0_NSSMD0
      000000D0H.7 SFRSYM    DATA     BIT       PSW_CY
      000000A3H   SFRSYM    DATA     BYTE      SPI0DAT
      000000F8H.3 SFRSYM    DATA     BIT       SPI0CN0_NSSMD1
      000000BDH   SFRSYM    DATA     WORD      ADC0
      000000B9H   SFRSYM    DATA     BYTE      SMBTC
      000000D0H   SFRSYM    DATA     BYTE      PSW
      000000C8H.5 SFRSYM    DATA     BIT       TMR5CN0_TF5LEN
      000000B7H   SFRSYM    DATA     BYTE      FLKEY
      00000090H.4 SFRSYM    DATA     BIT       BtnUpGpio
      0100799DH   SYMBOL    CODE     ---       _Lcd_Cmd
      010079ADH   SYMBOL    CODE     ---       _Lcd_Dat
      01007A13H   SYMBOL    CODE     ---       Spi_Inti
      01007648H   SYMBOL    CODE     ---       _Spi_sWriteByte
      010078A2H   SYMBOL    CODE     ---       _Lcd_Rst
      01000056H   SYMBOL    CODE     ---       _Delay

      01000056H   BLOCK     CODE     ---       LVL=0
      020009E6H   SYMBOL    XDATA    BYTE      nTim
      0100005BH   BLOCK     CODE     NEAR LAB  LVL=1
      020009E7H   SYMBOL    XDATA    BYTE      nCnt
      ---         BLOCKEND  ---      ---       LVL=1
      01000056H   LINE      CODE     ---       #13
      0100005BH   LINE      CODE     ---       #14
      01000065H   LINE      CODE     ---       #15
      01000072H   LINE      CODE     ---       #16
      ---         BLOCKEND  ---      ---       LVL=0

      01007A13H   BLOCK     CODE     ---       LVL=0
      01007A13H   LINE      CODE     ---       #17
      01007A13H   LINE      CODE     ---       #21
      01007A15H   LINE      CODE     ---       #23
      01007A17H   LINE      CODE     ---       #24
      01007A19H   LINE      CODE     ---       #25
      ---         BLOCKEND  ---      ---       LVL=0

      01007648H   BLOCK     CODE     ---       LVL=0
      020009E8H   SYMBOL    XDATA    BYTE      SpiDat
      0100764DH   BLOCK     CODE     NEAR LAB  LVL=1
      020009E9H   SYMBOL    XDATA    BYTE      i
      ---         BLOCKEND  ---      ---       LVL=1
      01007648H   LINE      CODE     ---       #40
      0100764DH   LINE      CODE     ---       #41
      01007652H   LINE      CODE     ---       #43
      01007662H   LINE      CODE     ---       #44
      01007664H   LINE      CODE     ---       #45
      0100766DH   LINE      CODE     ---       #46
      0100767BH   LINE      CODE     ---       #47
      0100767DH   LINE      CODE     ---       #48
      01007685H   LINE      CODE     ---       #49
      ---         BLOCKEND  ---      ---       LVL=0

      010078A2H   BLOCK     CODE     ---       LVL=0
      020009F9H   SYMBOL    XDATA    BYTE      nTim
      010078A2H   LINE      CODE     ---       #52
      010078A7H   LINE      CODE     ---       #53
LX51 LINKER/LOCATER V4.66.66.0                                                        03/09/2017  11:29:19  PAGE 83


      010078A9H   LINE      CODE     ---       #54
      010078B1H   LINE      CODE     ---       #55
      010078B3H   LINE      CODE     ---       #56
      010078C1H   LINE      CODE     ---       #57
      ---         BLOCKEND  ---      ---       LVL=0

      0100799DH   BLOCK     CODE     ---       LVL=0
      020009FAH   SYMBOL    XDATA    BYTE      uCmd
      0100799DH   LINE      CODE     ---       #58
      010079A2H   LINE      CODE     ---       #59
      010079A4H   LINE      CODE     ---       #63
      010079ACH   LINE      CODE     ---       #65
      ---         BLOCKEND  ---      ---       LVL=0

      010079ADH   BLOCK     CODE     ---       LVL=0
      020009FBH   SYMBOL    XDATA    BYTE      uDat
      010079ADH   LINE      CODE     ---       #66
      010079B2H   LINE      CODE     ---       #67
      010079B4H   LINE      CODE     ---       #71
      010079BCH   LINE      CODE     ---       #73
      ---         BLOCKEND  ---      ---       LVL=0

      010071C8H   BLOCK     CODE     ---       LVL=0
      010071C8H   LINE      CODE     ---       #75
      010071C8H   LINE      CODE     ---       #76
      010071CBH   LINE      CODE     ---       #77
      010071D0H   LINE      CODE     ---       #79
      010071D5H   LINE      CODE     ---       #80
      010071DAH   LINE      CODE     ---       #82
      010071DFH   LINE      CODE     ---       #83
      010071E4H   LINE      CODE     ---       #84
      010071E9H   LINE      CODE     ---       #85
      010071EEH   LINE      CODE     ---       #86
      010071F3H   LINE      CODE     ---       #87
      010071F8H   LINE      CODE     ---       #89
      010071FDH   LINE      CODE     ---       #90
      01007202H   LINE      CODE     ---       #91
      01007207H   LINE      CODE     ---       #92
      0100720CH   LINE      CODE     ---       #93
      01007211H   LINE      CODE     ---       #94
      01007216H   LINE      CODE     ---       #95
      0100721BH   LINE      CODE     ---       #96
      01007220H   LINE      CODE     ---       #97
      01007225H   LINE      CODE     ---       #98
      0100722AH   LINE      CODE     ---       #99
      ---         BLOCKEND  ---      ---       LVL=0

      0100798BH   BLOCK     CODE     ---       LVL=0
      020009FCH   SYMBOL    XDATA    BYTE      iPage
      0100798BH   LINE      CODE     ---       #101
      01007990H   LINE      CODE     ---       #102
      0100799CH   LINE      CODE     ---       #103
      ---         BLOCKEND  ---      ---       LVL=0

      0100002EH   BLOCK     CODE     ---       LVL=0
      020009FDH   SYMBOL    XDATA    BYTE      iColumn
      0100002EH   LINE      CODE     ---       #104
      01000033H   LINE      CODE     ---       #105
      0100003FH   LINE      CODE     ---       #106
      01000050H   LINE      CODE     ---       #107
      ---         BLOCKEND  ---      ---       LVL=0

      010076F9H   BLOCK     CODE     ---       LVL=0
      020009EAH   SYMBOL    XDATA    BYTE      iPage
      020009EBH   SYMBOL    XDATA    BYTE      iColumn
LX51 LINKER/LOCATER V4.66.66.0                                                        03/09/2017  11:29:19  PAGE 84


      010076F9H   LINE      CODE     ---       #108
      01007703H   LINE      CODE     ---       #109
      0100770FH   LINE      CODE     ---       #110
      0100771BH   LINE      CODE     ---       #111
      0100772CH   LINE      CODE     ---       #112
      ---         BLOCKEND  ---      ---       LVL=0

      010070F9H   BLOCK     CODE     ---       LVL=0
      020009DEH   SYMBOL    XDATA    BYTE      mBw
      010070FEH   BLOCK     CODE     NEAR LAB  LVL=1
      020009DFH   SYMBOL    XDATA    BYTE      iPage
      020009E0H   SYMBOL    XDATA    BYTE      iColumn
      ---         BLOCKEND  ---      ---       LVL=1
      010070F9H   LINE      CODE     ---       #114
      010070FEH   LINE      CODE     ---       #115
      01007108H   LINE      CODE     ---       #117
      0100711BH   LINE      CODE     ---       #118
      0100712BH   LINE      CODE     ---       #119
      01007133H   LINE      CODE     ---       #120
      01007138H   LINE      CODE     ---       #121
      01007148H   LINE      CODE     ---       #122
      01007150H   LINE      CODE     ---       #123
      01007158H   LINE      CODE     ---       #124
      01007160H   LINE      CODE     ---       #125
      ---         BLOCKEND  ---      ---       LVL=0

      010079CCH   BLOCK     CODE     ---       LVL=0
      020009FEH   SYMBOL    XDATA    BYTE      mDat
      010079CCH   LINE      CODE     ---       #126
      010079D1H   LINE      CODE     ---       #127
      010079D9H   LINE      CODE     ---       #128
      ---         BLOCKEND  ---      ---       LVL=0

      010078C2H   BLOCK     CODE     ---       LVL=0
      020009ECH   SYMBOL    XDATA    BYTE      nClr
      020009EDH   SYMBOL    XDATA    BYTE      mDat
      010078C2H   LINE      CODE     ---       #129
      010078CCH   LINE      CODE     ---       #130
      010078D6H   LINE      CODE     ---       #131
      010078DEH   LINE      CODE     ---       #132
      010078E0H   LINE      CODE     ---       #133
      ---         BLOCKEND  ---      ---       LVL=0

      01006C84H   BLOCK     CODE     ---       LVL=0
      0200096AH   SYMBOL    XDATA    BYTE      iAsc
      0200096BH   SYMBOL    XDATA    BYTE      mBw
      01006C8EH   BLOCK     CODE     NEAR LAB  LVL=1
      0200096CH   SYMBOL    XDATA    BYTE      iAscMask
      0200096DH   SYMBOL    XDATA    BYTE      AskMaskDat
      0200096EH   SYMBOL    XDATA    ---       pAscMask
      ---         BLOCKEND  ---      ---       LVL=1
      01006C84H   LINE      CODE     ---       #135
      01006C8EH   LINE      CODE     ---       #136
      01006C98H   LINE      CODE     ---       #137
      01006CBBH   LINE      CODE     ---       #139
      01006CCBH   LINE      CODE     ---       #140
      01006CE9H   LINE      CODE     ---       #141
      01006CF1H   LINE      CODE     ---       #142
      01006CFEH   LINE      CODE     ---       #143
      01006CFEH   LINE      CODE     ---       #144
      01006D06H   LINE      CODE     ---       #145
      01006D0EH   LINE      CODE     ---       #146
      ---         BLOCKEND  ---      ---       LVL=0

      010072D9H   BLOCK     CODE     ---       LVL=0
LX51 LINKER/LOCATER V4.66.66.0                                                        03/09/2017  11:29:19  PAGE 85


      0200097EH   SYMBOL    XDATA    BYTE      iPage
      0200097FH   SYMBOL    XDATA    BYTE      iColumn
      02000980H   SYMBOL    XDATA    BYTE      mBw
      02000981H   SYMBOL    XDATA    ---       pString
      010072D9H   LINE      CODE     ---       #147
      010072E8H   LINE      CODE     ---       #148
      010072F5H   LINE      CODE     ---       #150
      01007307H   LINE      CODE     ---       #151
      0100731EH   LINE      CODE     ---       #152
      01007328H   LINE      CODE     ---       #153
      0100732AH   LINE      CODE     ---       #154
      ---         BLOCKEND  ---      ---       LVL=0

      01004D4AH   BLOCK     CODE     ---       LVL=0
      01004D4AH   BLOCK     CODE     NEAR LAB  LVL=1
      02000942H   SYMBOL    XDATA    BYTE      Idx
      02000943H   SYMBOL    XDATA    BYTE      Init
      02000944H   SYMBOL    XDATA    WORD      iPage
      02000946H   SYMBOL    XDATA    WORD      iColumn
      02000948H   SYMBOL    XDATA    WORD      iColumnCache
      ---         BLOCKEND  ---      ---       LVL=1
      01004D4AH   LINE      CODE     ---       #159
      01004D4AH   LINE      CODE     ---       #160
      01004D4FH   LINE      CODE     ---       #161
      01004D54H   LINE      CODE     ---       #162
      01004D6CH   LINE      CODE     ---       #164
      01004D88H   LINE      CODE     ---       #165
      01004DA4H   LINE      CODE     ---       #166
      01004DE0H   LINE      CODE     ---       #167
      01004DE8H   LINE      CODE     ---       #168
      01004DFBH   LINE      CODE     ---       #169
      01004E1DH   LINE      CODE     ---       #170
      01004E28H   LINE      CODE     ---       #171
      01004E28H   LINE      CODE     ---       #172
      01004E58H   LINE      CODE     ---       #173
      01004E68H   LINE      CODE     ---       #174
      01004E68H   LINE      CODE     ---       #175
      01004E79H   LINE      CODE     ---       #176
      01004E8AH   LINE      CODE     ---       #178
      01004E9AH   LINE      CODE     ---       #179
      01004EABH   LINE      CODE     ---       #180
      01004EB3H   LINE      CODE     ---       #182
      ---         BLOCKEND  ---      ---       LVL=0

      ---         MODULE    ---      ---       LCDDRAW
      02000489H   PUBLIC    XDATA    BYTE      LcdBw
      02000089H   PUBLIC    XDATA    ---       LcdDispImg
      02000009H   PUBLIC    XDATA    ---       LcdDispBuf
      02000007H   PUBLIC    XDATA    WORD      LcdYpos
      02000005H   PUBLIC    XDATA    WORD      LcdXpos
      02000004H   PUBLIC    XDATA    BYTE      LcdDir
      02000002H   PUBLIC    XDATA    WORD      LcdLeft
      02000000H   PUBLIC    XDATA    WORD      LcdRight
      020008B7H   PUBLIC    XDATA    BYTE      ?_LcdDrawMiniInt?BYTE
      010034D0H   PUBLIC    CODE     ---       _LcdDrawMiniInt
      010052AFH   PUBLIC    CODE     ---       _LcdDrawMiniAsc
      01006FA2H   PUBLIC    CODE     ---       _LcdDrawMiniBmp
      020008A5H   PUBLIC    XDATA    BYTE      ?_LcdDrawInt?BYTE
      010037BBH   PUBLIC    CODE     ---       _LcdDrawInt
      010064B0H   PUBLIC    CODE     ---       _LcdDrawTextString
      01004195H   PUBLIC    CODE     ---       _LcdDrawChsChar
      01006308H   PUBLIC    CODE     ---       _LcdDrawAscChar
      020008EAH   PUBLIC    XDATA    BYTE      ?_LcdDrawGeChar?BYTE
      01004BD3H   PUBLIC    CODE     ---       _LcdDrawGeChar
      010031ADH   PUBLIC    CODE     ---       _LcdDrawBmpToArray
LX51 LINKER/LOCATER V4.66.66.0                                                        03/09/2017  11:29:19  PAGE 86


      02000905H   PUBLIC    XDATA    BYTE      ?_LcdDrawRect?BYTE
      01006AD0H   PUBLIC    CODE     ---       _LcdDrawRect
      0200087CH   PUBLIC    XDATA    BYTE      ?_LcdDrawLine?BYTE
      01003A95H   PUBLIC    CODE     ---       _LcdDrawLine
      02000952H   PUBLIC    XDATA    BYTE      ?_LcdDrawVLine?BYTE
      0100737DH   PUBLIC    CODE     ---       _LcdDrawVLine
      0200094AH   PUBLIC    XDATA    BYTE      ?_LcdDrawHLine?BYTE
      0100732BH   PUBLIC    CODE     ---       _LcdDrawHLine
      01007581H   PUBLIC    CODE     ---       _LcdDrawPixelXY
      01006995H   PUBLIC    CODE     ---       _LcdDrawClr
      01007A21H   PUBLIC    CODE     ---       LcdDrawInit
      010068F3H   PUBLIC    CODE     ---       LcdDatInit
      000000A2H   SFRSYM    DATA     BYTE      SPI0CKR
      00000080H   SFRSYM    DATA     BYTE      P0
      000000D0H.2 SFRSYM    DATA     BIT       PSW_OV
      000000B1H   SFRSYM    DATA     BYTE      XOSC0CN
      00000090H   SFRSYM    DATA     BYTE      P1
      000000A0H   SFRSYM    DATA     BYTE      P2
      000000B0H   SFRSYM    DATA     BYTE      P3
      000000BCH   SFRSYM    DATA     BYTE      ADC0CF
      000000C8H   SFRSYM    DATA     BIT       TMR2CN0_T2XCLK
      000000C7H   SFRSYM    DATA     BYTE      P4
      000000C0H.7 SFRSYM    DATA     BIT       SMB0CN0_MASTER
      000000F9H   SFRSYM    DATA     WORD      PCA0
      000000E6H   SFRSYM    DATA     BYTE      EIE1
      000000C0H.7 SFRSYM    DATA     BIT       SMB1CN0_MASTER
      000000C0H.1 SFRSYM    DATA     BIT       SMB0CN0_ACK
      000000D7H   SFRSYM    DATA     BYTE      USB0XCN
      000000E7H   SFRSYM    DATA     BYTE      EIE2
      000000C0H.1 SFRSYM    DATA     BIT       SMB1CN0_ACK
      0000008FH   SFRSYM    DATA     BYTE      PSCTL
      000000E4H   SFRSYM    DATA     BYTE      IT01CF
      000000C8H   SFRSYM    DATA     BIT       TMR5CN0_T5XCLK
      000000C0H.6 SFRSYM    DATA     BIT       SMB0CN0_TXMODE
      000000C0H.6 SFRSYM    DATA     BIT       SMB1CN0_TXMODE
      000000BFH   SFRSYM    DATA     BYTE      SFRPAGE
      000000A4H   SFRSYM    DATA     BYTE      P0MDOUT
      00000080H.5 SFRSYM    DATA     BIT       LCD_SDA
      000000A5H   SFRSYM    DATA     BYTE      P1MDOUT
      000000E8H.5 SFRSYM    DATA     BIT       ADC0CN0_ADINT
      000000CBH   SFRSYM    DATA     BYTE      TMR2RLH
      000000A6H   SFRSYM    DATA     BYTE      P2MDOUT
      000000A8H   SFRSYM    DATA     BYTE      IE
      00000093H   SFRSYM    DATA     BYTE      TMR3RLH
      000000A7H   SFRSYM    DATA     BYTE      P3MDOUT
      00000093H   SFRSYM    DATA     BYTE      TMR4RLH
      000000AEH   SFRSYM    DATA     BYTE      P4MDOUT
      000000F6H   SFRSYM    DATA     BYTE      EIP1
      000000CBH   SFRSYM    DATA     BYTE      TMR5RLH
      000000F7H   SFRSYM    DATA     BYTE      EIP2
      00000098H.2 SFRSYM    DATA     BIT       SCON0_RB8
      000000CAH   SFRSYM    DATA     BYTE      TMR2RLL
      000000FCH   SFRSYM    DATA     BYTE      PCA0CPH0
      00000092H   SFRSYM    DATA     BYTE      TMR3RLL
      000000EAH   SFRSYM    DATA     BYTE      PCA0CPH1
      00000098H.3 SFRSYM    DATA     BIT       SCON0_TB8
      000000F0H   SFRSYM    DATA     BIT       B_B0
      00000082H   SFRSYM    DATA     WORD      DP
      00000092H   SFRSYM    DATA     BYTE      TMR4RLL
      000000ECH   SFRSYM    DATA     BYTE      PCA0CPH2
      000000F0H.1 SFRSYM    DATA     BIT       B_B1
      000000C3H   SFRSYM    DATA     WORD      ADC0GT
      000000CAH   SFRSYM    DATA     BYTE      TMR5RLL
      000000EEH   SFRSYM    DATA     BYTE      PCA0CPH3
      00000080H.3 SFRSYM    DATA     BIT       LCD_SCK
LX51 LINKER/LOCATER V4.66.66.0                                                        03/09/2017  11:29:19  PAGE 87


      000000F0H.2 SFRSYM    DATA     BIT       B_B2
      000000FBH   SFRSYM    DATA     BYTE      PCA0CPL0
      000000FEH   SFRSYM    DATA     BYTE      PCA0CPH4
      00000085H   SFRSYM    DATA     BYTE      EMI0CF
      000000F0H.3 SFRSYM    DATA     BIT       B_B3
      000000D9H   SFRSYM    DATA     BYTE      PCA0MD
      000000DAH   SFRSYM    DATA     BYTE      PCA0CPM0
      000000E9H   SFRSYM    DATA     BYTE      PCA0CPL1
      000000F0H.4 SFRSYM    DATA     BIT       B_B4
      000000DBH   SFRSYM    DATA     BYTE      PCA0CPM1
      000000EBH   SFRSYM    DATA     BYTE      PCA0CPL2
      000000F0H.5 SFRSYM    DATA     BIT       B_B5
      000000DCH   SFRSYM    DATA     BYTE      PCA0CPM2
      000000EDH   SFRSYM    DATA     BYTE      PCA0CPL3
      000000B8H   SFRSYM    DATA     BYTE      IP
      000000F0H.6 SFRSYM    DATA     BIT       B_B6
      000000C5H   SFRSYM    DATA     WORD      ADC0LT
      000000DDH   SFRSYM    DATA     BYTE      PCA0CPM3
      000000FDH   SFRSYM    DATA     BYTE      PCA0CPL4
      00000098H.5 SFRSYM    DATA     BIT       SCON0_MCE
      000000F0H.7 SFRSYM    DATA     BIT       B_B7
      000000DEH   SFRSYM    DATA     BYTE      PCA0CPM4
      000000E1H   SFRSYM    DATA     BYTE      XBR0
      000000C1H   SFRSYM    DATA     BYTE      SMB0CF
      000000E2H   SFRSYM    DATA     BYTE      XBR1
      000000C1H   SFRSYM    DATA     BYTE      SMB1CF
      000000AFH   SFRSYM    DATA     BYTE      PFE0CN
      000000AAH   SFRSYM    DATA     BYTE      EMI0CN
      000000C0H.5 SFRSYM    DATA     BIT       SMB0CN0_STA
      000000E3H   SFRSYM    DATA     BYTE      XBR2
      000000C0H.5 SFRSYM    DATA     BIT       SMB1CN0_STA
      000000E0H   SFRSYM    DATA     BIT       ACC_ACC0
      000000D1H   SFRSYM    DATA     BYTE      REF0CN
      000000B2H   SFRSYM    DATA     BYTE      HFO0CN
      0000008EH   SFRSYM    DATA     BYTE      CKCON0
      000000E0H.1 SFRSYM    DATA     BIT       ACC_ACC1
      000000E4H   SFRSYM    DATA     BYTE      CKCON1
      000000C8H.2 SFRSYM    DATA     BIT       TMR2CN0_TR2
      000000E0H.2 SFRSYM    DATA     BIT       ACC_ACC2
      000000E0H.3 SFRSYM    DATA     BIT       ACC_ACC3
      00000081H   SFRSYM    DATA     BYTE      SP
      0000009DH   SFRSYM    DATA     BYTE      CMP0MD
      000000E0H.4 SFRSYM    DATA     BIT       ACC_ACC4
      00000086H   SFRSYM    DATA     BYTE      LFO0CN
      00000084H   SFRSYM    DATA     BYTE      EMI0TC
      0000009CH   SFRSYM    DATA     BYTE      CMP1MD
      000000D8H   SFRSYM    DATA     BIT       PCA0CN0_CCF0
      000000E0H.5 SFRSYM    DATA     BIT       ACC_ACC5
      000000D8H.1 SFRSYM    DATA     BIT       PCA0CN0_CCF1
      000000E0H.6 SFRSYM    DATA     BIT       ACC_ACC6
      000000CCH   SFRSYM    DATA     WORD      TMR2
      000000D8H.2 SFRSYM    DATA     BIT       PCA0CN0_CCF2
      000000E0H.7 SFRSYM    DATA     BIT       ACC_ACC7
      00000094H   SFRSYM    DATA     WORD      TMR3
      000000C8H.2 SFRSYM    DATA     BIT       TMR5CN0_TR5
      000000D8H.3 SFRSYM    DATA     BIT       PCA0CN0_CCF3
      00000094H   SFRSYM    DATA     WORD      TMR4
      000000ACH   SFRSYM    DATA     BYTE      SBCON1
      000000D8H.4 SFRSYM    DATA     BIT       PCA0CN0_CCF4
      000000CCH   SFRSYM    DATA     WORD      TMR5
      000000C0H.3 SFRSYM    DATA     BIT       SMB0CN0_ACKRQ
      000000FFH   SFRSYM    DATA     BYTE      VDM0CN
      000000F1H   SFRSYM    DATA     BYTE      P0MDIN
      000000C0H.3 SFRSYM    DATA     BIT       SMB1CN0_ACKRQ
      00000098H.4 SFRSYM    DATA     BIT       SCON0_REN
LX51 LINKER/LOCATER V4.66.66.0                                                        03/09/2017  11:29:19  PAGE 88


      000000F2H   SFRSYM    DATA     BYTE      P1MDIN
      000000F3H   SFRSYM    DATA     BYTE      P2MDIN
      000000C0H.4 SFRSYM    DATA     BIT       SMB0CN0_STO
      000000F4H   SFRSYM    DATA     BYTE      P3MDIN
      00000090H.3 SFRSYM    DATA     BIT       LCD_RST
      000000C0H.4 SFRSYM    DATA     BIT       SMB1CN0_STO
      000000B5H   SFRSYM    DATA     BYTE      SBRLH1
      000000F5H   SFRSYM    DATA     BYTE      P4MDIN
      000000D0H.3 SFRSYM    DATA     BIT       PSW_RS0
      000000D8H.7 SFRSYM    DATA     BIT       PCA0CN0_CF
      000000F8H.4 SFRSYM    DATA     BIT       SPI0CN0_RXOVRN
      000000D0H.4 SFRSYM    DATA     BIT       PSW_RS1
      000000B4H   SFRSYM    DATA     BYTE      SBRLL1
      000000E8H.7 SFRSYM    DATA     BIT       ADC0CN0_ADEN
      00000089H   SFRSYM    DATA     BYTE      TMOD
      00000088H   SFRSYM    DATA     BYTE      TCON
      000000D0H   SFRSYM    DATA     BIT       PSW_PARITY
      000000A8H.4 SFRSYM    DATA     BIT       IE_ES0
      0000009FH   SFRSYM    DATA     BYTE      CMP0MX
      000000A8H.1 SFRSYM    DATA     BIT       IE_ET0
      0000009EH   SFRSYM    DATA     BYTE      CMP1MX
      000000A8H.3 SFRSYM    DATA     BIT       IE_ET1
      000000D4H   SFRSYM    DATA     BYTE      P0SKIP
      000000C8H.1 SFRSYM    DATA     BIT       TMR2CN0_T2CSS
      000000A8H.5 SFRSYM    DATA     BIT       IE_ET2
      000000D5H   SFRSYM    DATA     BYTE      P1SKIP
      000000D6H   SFRSYM    DATA     BYTE      P2SKIP
      000000E8H   SFRSYM    DATA     BYTE      ADC0CN0
      000000A8H   SFRSYM    DATA     BIT       IE_EX0
      000000DFH   SFRSYM    DATA     BYTE      P3SKIP
      000000D8H.6 SFRSYM    DATA     BIT       PCA0CN0_CR
      000000A8H.2 SFRSYM    DATA     BIT       IE_EX1
      00000098H.7 SFRSYM    DATA     BIT       SCON0_SMODE
      000000A9H   SFRSYM    DATA     BYTE      CLKSEL
      000000F8H   SFRSYM    DATA     BIT       SPI0CN0_SPIEN
      000000F0H   SFRSYM    DATA     BYTE      B
      000000BEH   SFRSYM    DATA     BYTE      ADC0H
      000000E8H.6 SFRSYM    DATA     BIT       ADC0CN0_ADTM
      000000CAH   SFRSYM    DATA     WORD      TMR2RL
      000000BDH   SFRSYM    DATA     BYTE      ADC0L
      00000092H   SFRSYM    DATA     WORD      TMR3RL
      00000092H   SFRSYM    DATA     WORD      TMR4RL
      000000D8H   SFRSYM    DATA     BYTE      PCA0CN0
      000000E0H   SFRSYM    DATA     BYTE      ACC
      000000CAH   SFRSYM    DATA     WORD      TMR5RL
      000000FBH   SFRSYM    DATA     WORD      PCA0CP0
      00000080H.6 SFRSYM    DATA     BIT       LCD_CS
      000000E9H   SFRSYM    DATA     WORD      PCA0CP1
      000000EBH   SFRSYM    DATA     WORD      PCA0CP2
      000000EDH   SFRSYM    DATA     WORD      PCA0CP3
      0000008CH   SFRSYM    DATA     BYTE      TH0
      000000B8H.4 SFRSYM    DATA     BIT       IP_PS0
      000000FDH   SFRSYM    DATA     WORD      PCA0CP4
      0000008DH   SFRSYM    DATA     BYTE      TH1
      000000FAH   SFRSYM    DATA     BYTE      PCA0H
      000000B8H.1 SFRSYM    DATA     BIT       IP_PT0
      000000B8H.3 SFRSYM    DATA     BIT       IP_PT1
      000000C0H.2 SFRSYM    DATA     BIT       SMB0CN0_ARBLOST
      000000B8H.5 SFRSYM    DATA     BIT       IP_PT2
      0000008AH   SFRSYM    DATA     BYTE      TL0
      000000F8H.1 SFRSYM    DATA     BIT       SPI0CN0_TXBMT
      000000C0H.2 SFRSYM    DATA     BIT       SMB1CN0_ARBLOST
      000000D0H.5 SFRSYM    DATA     BIT       PSW_F0
      000000A8H.6 SFRSYM    DATA     BIT       IE_ESPI0
      0000008BH   SFRSYM    DATA     BYTE      TL1
LX51 LINKER/LOCATER V4.66.66.0                                                        03/09/2017  11:29:19  PAGE 89


      000000F9H   SFRSYM    DATA     BYTE      PCA0L
      000000C0H   SFRSYM    DATA     BIT       SMB0CN0_SI
      000000D0H.1 SFRSYM    DATA     BIT       PSW_F1
      00000080H   SFRSYM    DATA     BIT       P0_B0
      000000B8H   SFRSYM    DATA     BIT       IP_PX0
      000000C9H   SFRSYM    DATA     BYTE      REG01CN
      000000C0H   SFRSYM    DATA     BIT       SMB1CN0_SI
      00000090H   SFRSYM    DATA     BIT       P1_B0
      00000080H.1 SFRSYM    DATA     BIT       P0_B1
      000000B8H.2 SFRSYM    DATA     BIT       IP_PX1
      0000009BH   SFRSYM    DATA     BYTE      CMP0CN0
      00000088H.1 SFRSYM    DATA     BIT       TCON_IE0
      000000A0H   SFRSYM    DATA     BIT       P2_B0
      00000090H.1 SFRSYM    DATA     BIT       P1_B1
      00000080H.2 SFRSYM    DATA     BIT       P0_B2
      0000009AH   SFRSYM    DATA     BYTE      CMP1CN0
      00000088H.3 SFRSYM    DATA     BIT       TCON_IE1
      000000B0H   SFRSYM    DATA     BIT       P3_B0
      000000A0H.1 SFRSYM    DATA     BIT       P2_B1
      00000090H.2 SFRSYM    DATA     BIT       P1_B2
      00000080H.3 SFRSYM    DATA     BIT       P0_B3
      000000C0H   SFRSYM    DATA     BYTE      SMB0CN0
      000000B0H.1 SFRSYM    DATA     BIT       P3_B1
      000000A0H.2 SFRSYM    DATA     BIT       P2_B2
      00000090H.3 SFRSYM    DATA     BIT       P1_B3
      00000080H.4 SFRSYM    DATA     BIT       P0_B4
      000000C0H   SFRSYM    DATA     BYTE      SMB1CN0
      000000B0H.2 SFRSYM    DATA     BIT       P3_B2
      000000A0H.3 SFRSYM    DATA     BIT       P2_B3
      00000090H.4 SFRSYM    DATA     BIT       P1_B4
      00000080H.5 SFRSYM    DATA     BIT       P0_B5
      000000B0H.3 SFRSYM    DATA     BIT       P3_B3
      000000A0H.4 SFRSYM    DATA     BIT       P2_B4
      00000090H.5 SFRSYM    DATA     BIT       P1_B5
      00000080H.6 SFRSYM    DATA     BIT       P0_B6
      00000080H.2 SFRSYM    DATA     BIT       LCD_RS
      000000B0H.4 SFRSYM    DATA     BIT       P3_B4
      000000A0H.5 SFRSYM    DATA     BIT       P2_B5
      00000090H.6 SFRSYM    DATA     BIT       P1_B6
      00000080H.7 SFRSYM    DATA     BIT       P0_B7
      000000B0H.5 SFRSYM    DATA     BIT       P3_B5
      000000A0H.6 SFRSYM    DATA     BIT       P2_B6
      00000090H.7 SFRSYM    DATA     BIT       P1_B7
      000000B0H.6 SFRSYM    DATA     BIT       P3_B6
      000000A0H.7 SFRSYM    DATA     BIT       P2_B7
      000000B0H.7 SFRSYM    DATA     BIT       P3_B7
      00000083H   SFRSYM    DATA     BYTE      DPH
      000000C4H   SFRSYM    DATA     BYTE      ADC0GTH
      000000C8H.7 SFRSYM    DATA     BIT       TMR2CN0_TF2H
      000000C8H.3 SFRSYM    DATA     BIT       TMR2CN0_T2SPLIT
      000000D0H.6 SFRSYM    DATA     BIT       PSW_AC
      000000F8H   SFRSYM    DATA     BYTE      SPI0CN0
      000000B3H   SFRSYM    DATA     BYTE      HFO0CAL
      00000080H   SFRSYM    DATA     BIT       BtnEntGpio
      00000088H.5 SFRSYM    DATA     BIT       TCON_TF0
      00000098H   SFRSYM    DATA     BIT       SCON0_RI
      00000082H   SFRSYM    DATA     BYTE      DPL
      00000088H.7 SFRSYM    DATA     BIT       TCON_TF1
      00000099H   SFRSYM    DATA     BYTE      SBUF0
      00000087H   SFRSYM    DATA     BYTE      PCON0
      000000C3H   SFRSYM    DATA     BYTE      ADC0GTL
      000000C8H.6 SFRSYM    DATA     BIT       TMR2CN0_TF2L
      00000098H.1 SFRSYM    DATA     BIT       SCON0_TI
      000000E8H   SFRSYM    DATA     BIT       ADC0CN0_ADCM0
      000000D3H   SFRSYM    DATA     BYTE      SBUF1
LX51 LINKER/LOCATER V4.66.66.0                                                        03/09/2017  11:29:19  PAGE 90


      000000C6H   SFRSYM    DATA     BYTE      ADC0LTH
      00000088H   SFRSYM    DATA     BIT       TCON_IT0
      000000E8H.1 SFRSYM    DATA     BIT       ADC0CN0_ADCM1
      000000EFH   SFRSYM    DATA     BYTE      RSTSRC
      000000C8H.7 SFRSYM    DATA     BIT       TMR5CN0_TF5H
      000000C8H.3 SFRSYM    DATA     BIT       TMR5CN0_T5SPLIT
      00000088H.2 SFRSYM    DATA     BIT       TCON_IT1
      000000E8H.2 SFRSYM    DATA     BIT       ADC0CN0_ADCM2
      00000098H   SFRSYM    DATA     BYTE      SCON0
      000000E8H.3 SFRSYM    DATA     BIT       ADC0CN0_ADWINT
      000000B4H   SFRSYM    DATA     WORD      SBRL1
      000000E5H   SFRSYM    DATA     BYTE      SMOD1
      000000D2H   SFRSYM    DATA     BYTE      SCON1
      000000BAH   SFRSYM    DATA     BYTE      AMX0N
      000000E8H.4 SFRSYM    DATA     BIT       ADC0CN0_ADBUSY
      000000CEH   SFRSYM    DATA     BYTE      SMB0ADM
      000000C5H   SFRSYM    DATA     BYTE      ADC0LTL
      000000F8H.5 SFRSYM    DATA     BIT       SPI0CN0_MODF
      000000B8H.6 SFRSYM    DATA     BIT       IP_PSPI0
      000000CEH   SFRSYM    DATA     BYTE      SMB1ADM
      000000BBH   SFRSYM    DATA     BYTE      AMX0P
      000000C8H.6 SFRSYM    DATA     BIT       TMR5CN0_TF5L
      000000C8H   SFRSYM    DATA     BYTE      TMR2CN0
      00000091H   SFRSYM    DATA     BYTE      TMR3CN0
      00000080H.1 SFRSYM    DATA     BIT       BtnExtGpio
      00000091H   SFRSYM    DATA     BYTE      TMR4CN0
      000000C8H   SFRSYM    DATA     BYTE      TMR5CN0
      000000CFH   SFRSYM    DATA     BYTE      SMB0ADR
      00000088H.4 SFRSYM    DATA     BIT       TCON_TR0
      000000CFH   SFRSYM    DATA     BYTE      SMB1ADR
      000000C8H.4 SFRSYM    DATA     BIT       TMR2CN0_TF2CEN
      00000088H.6 SFRSYM    DATA     BIT       TCON_TR1
      000000C2H   SFRSYM    DATA     BYTE      SMB0DAT
      00000080H.4 SFRSYM    DATA     BIT       RC_OUT
      000000CDH   SFRSYM    DATA     BYTE      TMR2H
      000000A1H   SFRSYM    DATA     BYTE      SPI0CFG
      000000C2H   SFRSYM    DATA     BYTE      SMB1DAT
      00000095H   SFRSYM    DATA     BYTE      TMR3H
      00000095H   SFRSYM    DATA     BYTE      TMR4H
      000000CDH   SFRSYM    DATA     BYTE      TMR5H
      000000CCH   SFRSYM    DATA     BYTE      TMR2L
      00000090H.5 SFRSYM    DATA     BIT       BtnDwGpio
      000000F8H.7 SFRSYM    DATA     BIT       SPI0CN0_SPIF
      00000096H   SFRSYM    DATA     BYTE      USB0ADR
      00000094H   SFRSYM    DATA     BYTE      TMR3L
      000000A8H.7 SFRSYM    DATA     BIT       IE_EA
      00000094H   SFRSYM    DATA     BYTE      TMR4L
      00000097H   SFRSYM    DATA     BYTE      USB0DAT
      000000CCH   SFRSYM    DATA     BYTE      TMR5L
      000000B6H   SFRSYM    DATA     BYTE      FLSCL
      000000C8H.5 SFRSYM    DATA     BIT       TMR2CN0_TF2LEN
      000000F8H.6 SFRSYM    DATA     BIT       SPI0CN0_WCOL
      000000F8H.2 SFRSYM    DATA     BIT       SPI0CN0_NSSMD0
      000000D0H.7 SFRSYM    DATA     BIT       PSW_CY
      000000A3H   SFRSYM    DATA     BYTE      SPI0DAT
      000000F8H.3 SFRSYM    DATA     BIT       SPI0CN0_NSSMD1
      000000BDH   SFRSYM    DATA     WORD      ADC0
      000000B9H   SFRSYM    DATA     BYTE      SMBTC
      000000D0H   SFRSYM    DATA     BYTE      PSW
      000000C8H.5 SFRSYM    DATA     BIT       TMR5CN0_TF5LEN
      000000B7H   SFRSYM    DATA     BYTE      FLKEY
      00000090H.4 SFRSYM    DATA     BIT       BtnUpGpio
      01006579H   SYMBOL    CODE     ---       _LcdDrawMaskX
      01006635H   SYMBOL    CODE     ---       _LcdDrawMaskY
      01004EB4H   SYMBOL    CODE     ---       _LcdDrawPixel
LX51 LINKER/LOCATER V4.66.66.0                                                        03/09/2017  11:29:19  PAGE 91


      01006F22H   SYMBOL    CODE     ---       _LcdDrawStart
      0100684CH   SYMBOL    CODE     ---       _LcdDrawHzLine

      01006F22H   BLOCK     CODE     ---       LVL=0
      02000930H   SYMBOL    XDATA    WORD      x0
      02000932H   SYMBOL    XDATA    WORD      y0
      02000934H   SYMBOL    XDATA    WORD      x1
      02000936H   SYMBOL    XDATA    WORD      y1
      02000938H   SYMBOL    XDATA    BYTE      DrawDir
      01006F22H   LINE      CODE     ---       #18
      01006F3AH   LINE      CODE     ---       #19
      01006F43H   LINE      CODE     ---       #20
      01006F53H   LINE      CODE     ---       #21
      01006F59H   LINE      CODE     ---       #22
      01006F5BH   LINE      CODE     ---       #23
      01006F6BH   LINE      CODE     ---       #24
      01006F71H   LINE      CODE     ---       #25
      01006F71H   LINE      CODE     ---       #26
      01006F81H   LINE      CODE     ---       #27
      01006F91H   LINE      CODE     ---       #28
      01006FA1H   LINE      CODE     ---       #29
      ---         BLOCKEND  ---      ---       LVL=0

      01004EB4H   BLOCK     CODE     ---       LVL=0
      020009CEH   SYMBOL    XDATA    WORD      Color
      01004EBCH   BLOCK     CODE     NEAR LAB  LVL=1
      020009D0H   SYMBOL    XDATA    BYTE      YColumn
      020009D1H   SYMBOL    XDATA    BYTE      YByteIdxBit
      ---         BLOCKEND  ---      ---       LVL=1
      01004EB4H   LINE      CODE     ---       #30
      01004EBCH   LINE      CODE     ---       #31
      01004ED4H   LINE      CODE     ---       #32
      01004EE7H   LINE      CODE     ---       #34
      01004EF3H   LINE      CODE     ---       #35
      01004F40H   LINE      CODE     ---       #36
      01004F42H   LINE      CODE     ---       #37
      01004F92H   LINE      CODE     ---       #38
      01004F92H   LINE      CODE     ---       #39
      01004FC4H   LINE      CODE     ---       #41
      01004FD2H   LINE      CODE     ---       #42
      01004FE9H   LINE      CODE     ---       #43
      01004FF9H   LINE      CODE     ---       #44
      0100500CH   LINE      CODE     ---       #45
      0100500CH   LINE      CODE     ---       #46
      ---         BLOCKEND  ---      ---       LVL=0

      01006579H   BLOCK     CODE     ---       LVL=0
      0200091CH   SYMBOL    XDATA    WORD      x
      0200091EH   SYMBOL    XDATA    WORD      y
      02000920H   SYMBOL    XDATA    BYTE      mask
      02000921H   SYMBOL    XDATA    BYTE      n
      0100658EH   BLOCK     CODE     NEAR LAB  LVL=1
      02000922H   SYMBOL    XDATA    BYTE      j
      02000923H   SYMBOL    XDATA    BYTE      c
      02000924H   SYMBOL    XDATA    WORD      mv
      ---         BLOCKEND  ---      ---       LVL=1
      01006579H   LINE      CODE     ---       #47
      0100658EH   LINE      CODE     ---       #49
      010065ACH   LINE      CODE     ---       #51
      010065C0H   LINE      CODE     ---       #52
      010065D7H   LINE      CODE     ---       #53
      010065ECH   LINE      CODE     ---       #54
      0100662BH   LINE      CODE     ---       #55
      01006634H   LINE      CODE     ---       #56
      ---         BLOCKEND  ---      ---       LVL=0
LX51 LINKER/LOCATER V4.66.66.0                                                        03/09/2017  11:29:19  PAGE 92



      01006635H   BLOCK     CODE     ---       LVL=0
      02000926H   SYMBOL    XDATA    WORD      x
      02000928H   SYMBOL    XDATA    WORD      y
      0200092AH   SYMBOL    XDATA    BYTE      mask
      0200092BH   SYMBOL    XDATA    BYTE      n
      0100664AH   BLOCK     CODE     NEAR LAB  LVL=1
      0200092CH   SYMBOL    XDATA    BYTE      j
      0200092DH   SYMBOL    XDATA    BYTE      c
      0200092EH   SYMBOL    XDATA    WORD      mv
      ---         BLOCKEND  ---      ---       LVL=1
      01006635H   LINE      CODE     ---       #57
      0100664AH   LINE      CODE     ---       #59
      01006668H   LINE      CODE     ---       #61
      0100667CH   LINE      CODE     ---       #62
      01006693H   LINE      CODE     ---       #63
      010066A8H   LINE      CODE     ---       #64
      010066E7H   LINE      CODE     ---       #65
      010066F0H   LINE      CODE     ---       #66
      ---         BLOCKEND  ---      ---       LVL=0

      0100684CH   BLOCK     CODE     ---       LVL=0
      020008F9H   SYMBOL    XDATA    WORD      x
      020008FBH   SYMBOL    XDATA    WORD      y
      020008FDH   SYMBOL    XDATA    WORD      mask
      020008FFH   SYMBOL    XDATA    WORD      numble
      01006864H   BLOCK     CODE     NEAR LAB  LVL=1
      02000901H   SYMBOL    XDATA    WORD      j
      02000903H   SYMBOL    XDATA    WORD      mv
      ---         BLOCKEND  ---      ---       LVL=1
      0100684CH   LINE      CODE     ---       #67
      01006864H   LINE      CODE     ---       #69
      0100686DH   LINE      CODE     ---       #70
      0100688CH   LINE      CODE     ---       #71
      010068CBH   LINE      CODE     ---       #72
      010068E2H   LINE      CODE     ---       #73
      010068F2H   LINE      CODE     ---       #74
      ---         BLOCKEND  ---      ---       LVL=0

      010068F3H   BLOCK     CODE     ---       LVL=0
      010068F3H   BLOCK     CODE     NEAR LAB  LVL=1
      020009EEH   SYMBOL    XDATA    WORD      i
      ---         BLOCKEND  ---      ---       LVL=1
      010068F3H   LINE      CODE     ---       #77
      010068F3H   LINE      CODE     ---       #80
      01006909H   LINE      CODE     ---       #81
      0100691DH   LINE      CODE     ---       #82
      0100692DH   LINE      CODE     ---       #83
      01006946H   LINE      CODE     ---       #84
      0100695AH   LINE      CODE     ---       #85
      0100696AH   LINE      CODE     ---       #87
      0100696FH   LINE      CODE     ---       #88
      01006974H   LINE      CODE     ---       #89
      01006984H   LINE      CODE     ---       #90
      01006994H   LINE      CODE     ---       #91
      ---         BLOCKEND  ---      ---       LVL=0

      01007A21H   BLOCK     CODE     ---       LVL=0
      01007A21H   LINE      CODE     ---       #92
      01007A21H   LINE      CODE     ---       #93
      01007A26H   LINE      CODE     ---       #94
      ---         BLOCKEND  ---      ---       LVL=0

      01006995H   BLOCK     CODE     ---       LVL=0
      020009E1H   SYMBOL    XDATA    BYTE      Bw
LX51 LINKER/LOCATER V4.66.66.0                                                        03/09/2017  11:29:19  PAGE 93


      0100699AH   BLOCK     CODE     NEAR LAB  LVL=1
      020009E2H   SYMBOL    XDATA    WORD      Idx
      ---         BLOCKEND  ---      ---       LVL=1
      01006995H   LINE      CODE     ---       #96
      0100699AH   LINE      CODE     ---       #97
      010069A2H   LINE      CODE     ---       #99
      010069B5H   LINE      CODE     ---       #100
      010069CBH   LINE      CODE     ---       #101
      010069E4H   LINE      CODE     ---       #102
      010069F4H   LINE      CODE     ---       #104
      01006A0DH   LINE      CODE     ---       #105
      01006A22H   LINE      CODE     ---       #106
      01006A32H   LINE      CODE     ---       #109
      ---         BLOCKEND  ---      ---       LVL=0

      01007581H   BLOCK     CODE     ---       LVL=0
      02000984H   SYMBOL    XDATA    WORD      x
      02000986H   SYMBOL    XDATA    WORD      y
      02000988H   SYMBOL    XDATA    WORD      color
      01007581H   LINE      CODE     ---       #111
      01007599H   LINE      CODE     ---       #112
      010075A9H   LINE      CODE     ---       #113
      010075B9H   LINE      CODE     ---       #114
      010075C4H   LINE      CODE     ---       #115
      ---         BLOCKEND  ---      ---       LVL=0

      0100732BH   BLOCK     CODE     ---       LVL=0
      0200094AH   SYMBOL    XDATA    WORD      x1
      0200094CH   SYMBOL    XDATA    WORD      x2
      0200094EH   SYMBOL    XDATA    WORD      y
      02000950H   SYMBOL    XDATA    WORD      color
      0100732BH   LINE      CODE     ---       #116
      01007343H   LINE      CODE     ---       #118
      0100735AH   LINE      CODE     ---       #119
      0100737AH   LINE      CODE     ---       #120
      0100737CH   LINE      CODE     ---       #121
      ---         BLOCKEND  ---      ---       LVL=0

      0100737DH   BLOCK     CODE     ---       LVL=0
      02000952H   SYMBOL    XDATA    WORD      x
      02000954H   SYMBOL    XDATA    WORD      y1
      02000956H   SYMBOL    XDATA    WORD      y2
      02000958H   SYMBOL    XDATA    WORD      color
      0100737DH   LINE      CODE     ---       #122
      01007395H   LINE      CODE     ---       #124
      010073ACH   LINE      CODE     ---       #125
      010073CCH   LINE      CODE     ---       #126
      010073CEH   LINE      CODE     ---       #127
      ---         BLOCKEND  ---      ---       LVL=0

      01003A95H   BLOCK     CODE     ---       LVL=0
      0200087CH   SYMBOL    XDATA    WORD      x0
      0200087EH   SYMBOL    XDATA    WORD      y0
      02000880H   SYMBOL    XDATA    WORD      x1
      02000882H   SYMBOL    XDATA    WORD      y1
      02000884H   SYMBOL    XDATA    WORD      color
      01003AADH   BLOCK     CODE     NEAR LAB  LVL=1
      02000886H   SYMBOL    XDATA    INT       t
      02000888H   SYMBOL    XDATA    INT       dx
      0200088AH   SYMBOL    XDATA    INT       dy
      0200088CH   SYMBOL    XDATA    INT       err
      0200088EH   SYMBOL    XDATA    INT       steep
      02000890H   SYMBOL    XDATA    INT       ystep
      ---         BLOCKEND  ---      ---       LVL=1
      01003A95H   LINE      CODE     ---       #128
LX51 LINKER/LOCATER V4.66.66.0                                                        03/09/2017  11:29:19  PAGE 94


      01003AADH   LINE      CODE     ---       #129
      01003AB5H   LINE      CODE     ---       #130
      01003ADDH   LINE      CODE     ---       #134
      01003B3CH   LINE      CODE     ---       #135
      01003B48H   LINE      CODE     ---       #136
      01003B78H   LINE      CODE     ---       #137
      01003BA8H   LINE      CODE     ---       #138
      01003BA8H   LINE      CODE     ---       #140
      01003BBFH   LINE      CODE     ---       #141
      01003BEFH   LINE      CODE     ---       #142
      01003C1FH   LINE      CODE     ---       #143
      01003C1FH   LINE      CODE     ---       #145
      01003C3EH   LINE      CODE     ---       #146
      01003C60H   LINE      CODE     ---       #147
      01003C77H   LINE      CODE     ---       #149
      01003C8EH   LINE      CODE     ---       #150
      01003C97H   LINE      CODE     ---       #151
      01003C99H   LINE      CODE     ---       #152
      01003CA3H   LINE      CODE     ---       #153
      01003CA3H   LINE      CODE     ---       #155
      01003CBDH   LINE      CODE     ---       #156
      01003CC9H   LINE      CODE     ---       #157
      01003CE4H   LINE      CODE     ---       #158
      01003CE6H   LINE      CODE     ---       #159
      01003D01H   LINE      CODE     ---       #160
      01003D01H   LINE      CODE     ---       #162
      01003D20H   LINE      CODE     ---       #163
      01003D30H   LINE      CODE     ---       #164
      01003D44H   LINE      CODE     ---       #165
      01003D58H   LINE      CODE     ---       #166
      01003D58H   LINE      CODE     ---       #167
      01003D69H   LINE      CODE     ---       #168
      ---         BLOCKEND  ---      ---       LVL=0

      01006AD0H   BLOCK     CODE     ---       LVL=0
      02000905H   SYMBOL    XDATA    WORD      x0
      02000907H   SYMBOL    XDATA    WORD      y0
      02000909H   SYMBOL    XDATA    WORD      x1
      0200090BH   SYMBOL    XDATA    WORD      y1
      0200090DH   SYMBOL    XDATA    WORD      color
      01006AE8H   BLOCK     CODE     NEAR LAB  LVL=1
      0200090FH   SYMBOL    XDATA    WORD      y
      ---         BLOCKEND  ---      ---       LVL=1
      01006AD0H   LINE      CODE     ---       #169
      01006AE8H   LINE      CODE     ---       #170
      01006AF0H   LINE      CODE     ---       #171
      01006B07H   LINE      CODE     ---       #172
      01006B2EH   LINE      CODE     ---       #173
      01006B49H   LINE      CODE     ---       #174
      01006B59H   LINE      CODE     ---       #175
      01006B67H   LINE      CODE     ---       #176
      01006B69H   LINE      CODE     ---       #177
      ---         BLOCKEND  ---      ---       LVL=0

      010031ADH   BLOCK     CODE     ---       LVL=0
      02000892H   SYMBOL    XDATA    WORD      x
      02000894H   SYMBOL    XDATA    WORD      y
      02000896H   SYMBOL    XDATA    ---       pImageDat
      010031C8H   BLOCK     CODE     NEAR LAB  LVL=1
      02000899H   SYMBOL    XDATA    BYTE      iPix
      0200089AH   SYMBOL    XDATA    BYTE      uPixDat
      0200089BH   SYMBOL    XDATA    WORD      iWidth
      0200089DH   SYMBOL    XDATA    WORD      iHeight
      0200089FH   SYMBOL    XDATA    WORD      iDat
      020008A1H   SYMBOL    XDATA    WORD      iImgWidth
LX51 LINKER/LOCATER V4.66.66.0                                                        03/09/2017  11:29:19  PAGE 95


      020008A3H   SYMBOL    XDATA    WORD      iImgHeight
      ---         BLOCKEND  ---      ---       LVL=1
      010031ADH   LINE      CODE     ---       #179
      010031C8H   LINE      CODE     ---       #181
      010031D2H   LINE      CODE     ---       #182
      010031E2H   LINE      CODE     ---       #184
      01003201H   LINE      CODE     ---       #185
      01003241H   LINE      CODE     ---       #186
      01003281H   LINE      CODE     ---       #189
      010032EEH   LINE      CODE     ---       #191
      0100330BH   LINE      CODE     ---       #192
      0100332DH   LINE      CODE     ---       #193
      01003351H   LINE      CODE     ---       #194
      01003359H   LINE      CODE     ---       #195
      0100337EH   LINE      CODE     ---       #196
      01003384H   LINE      CODE     ---       #197
      01003384H   LINE      CODE     ---       #198
      01003396H   LINE      CODE     ---       #199
      010033A4H   LINE      CODE     ---       #200
      010033B4H   LINE      CODE     ---       #202
      010033D7H   LINE      CODE     ---       #203
      010033E9H   LINE      CODE     ---       #204
      0100340EH   LINE      CODE     ---       #205
      0100341CH   LINE      CODE     ---       #206
      0100341EH   LINE      CODE     ---       #207
      0100342FH   LINE      CODE     ---       #208
      0100342FH   LINE      CODE     ---       #210
      0100344CH   LINE      CODE     ---       #211
      0100346BH   LINE      CODE     ---       #212
      0100348AH   LINE      CODE     ---       #213
      010034AFH   LINE      CODE     ---       #214
      010034BFH   LINE      CODE     ---       #215
      010034CFH   LINE      CODE     ---       #216
      010034CFH   LINE      CODE     ---       #217
      ---         BLOCKEND  ---      ---       LVL=0

      01004BD3H   BLOCK     CODE     ---       LVL=0
      020008EAH   SYMBOL    XDATA    WORD      x
      020008ECH   SYMBOL    XDATA    WORD      y
      020008EEH   SYMBOL    XDATA    BYTE      width
      020008EFH   SYMBOL    XDATA    BYTE      yOffset
      020008F0H   SYMBOL    XDATA    BYTE      height
      020008F1H   SYMBOL    XDATA    ---       pImageDat
      01004BE8H   BLOCK     CODE     NEAR LAB  LVL=1
      020008F4H   SYMBOL    XDATA    BYTE      i
      020008F5H   SYMBOL    XDATA    DWORD     mDat
      ---         BLOCKEND  ---      ---       LVL=1
      01004BD3H   LINE      CODE     ---       #218
      01004BE8H   LINE      CODE     ---       #219
      01004BEDH   LINE      CODE     ---       #220
      01004BF7H   LINE      CODE     ---       #222
      01004C0EH   LINE      CODE     ---       #223
      01004C19H   LINE      CODE     ---       #224
      01004C94H   LINE      CODE     ---       #225
      01004C96H   LINE      CODE     ---       #226
      01004CD0H   LINE      CODE     ---       #227
      01004CD0H   LINE      CODE     ---       #228
      01004CD8H   LINE      CODE     ---       #229
      01004CEFH   LINE      CODE     ---       #230
      01004CEFH   LINE      CODE     ---       #231
      01004D40H   LINE      CODE     ---       #232
      01004D49H   LINE      CODE     ---       #233
      ---         BLOCKEND  ---      ---       LVL=0

      01006308H   BLOCK     CODE     ---       LVL=0
LX51 LINKER/LOCATER V4.66.66.0                                                        03/09/2017  11:29:19  PAGE 96


      02000911H   SYMBOL    XDATA    WORD      x
      02000913H   SYMBOL    XDATA    WORD      y
      02000915H   SYMBOL    XDATA    BYTE      iAsc
      0100631DH   BLOCK     CODE     NEAR LAB  LVL=1
      02000916H   SYMBOL    XDATA    BYTE      iDatLine
      02000917H   SYMBOL    XDATA    WORD      cDatLine
      02000919H   SYMBOL    XDATA    ---       pBmpAscChar
      ---         BLOCKEND  ---      ---       LVL=1
      01006308H   LINE      CODE     ---       #235
      0100631DH   LINE      CODE     ---       #236
      01006322H   LINE      CODE     ---       #237
      0100632AH   LINE      CODE     ---       #239
      0100634DH   LINE      CODE     ---       #241
      01006360H   LINE      CODE     ---       #242
      0100638BH   LINE      CODE     ---       #243
      01006393H   LINE      CODE     ---       #244
      010063A9H   LINE      CODE     ---       #245
      010063A9H   LINE      CODE     ---       #246
      010063DAH   LINE      CODE     ---       #247
      010063E3H   LINE      CODE     ---       #248
      ---         BLOCKEND  ---      ---       LVL=0

      01004195H   BLOCK     CODE     ---       LVL=0
      020008C9H   SYMBOL    XDATA    WORD      x
      020008CBH   SYMBOL    XDATA    WORD      y
      020008CDH   SYMBOL    XDATA    WORD      iChs
      010041ADH   BLOCK     CODE     NEAR LAB  LVL=1
      020008CFH   SYMBOL    XDATA    WORD      i
      020008D1H   SYMBOL    XDATA    WORD      iChsTmp
      020008D3H   SYMBOL    XDATA    WORD      cDatLine
      020008D5H   SYMBOL    XDATA    ---       pBmpChsChar
      010042AAH   BLOCK     CODE     NEAR LAB  LVL=2
      020008D8H   SYMBOL    XDATA    WORD      cDatLine
      ---         BLOCKEND  ---      ---       LVL=2
      ---         BLOCKEND  ---      ---       LVL=1
      01004195H   LINE      CODE     ---       #249
      010041ADH   LINE      CODE     ---       #250
      010041B5H   LINE      CODE     ---       #251
      010041C5H   LINE      CODE     ---       #253
      010041D6H   LINE      CODE     ---       #255
      010041EFH   LINE      CODE     ---       #256
      01004241H   LINE      CODE     ---       #257
      01004259H   LINE      CODE     ---       #258
      01004259H   LINE      CODE     ---       #259
      0100426AH   LINE      CODE     ---       #260
      0100428EH   LINE      CODE     ---       #262
      010042AAH   LINE      CODE     ---       #263
      010042FEH   LINE      CODE     ---       #264
      01004315H   LINE      CODE     ---       #265
      0100431DH   LINE      CODE     ---       #266
      01004333H   LINE      CODE     ---       #267
      01004365H   LINE      CODE     ---       #268
      01004376H   LINE      CODE     ---       #269
      ---         BLOCKEND  ---      ---       LVL=0

      010064B0H   BLOCK     CODE     ---       LVL=0
      02000971H   SYMBOL    XDATA    WORD      x
      02000973H   SYMBOL    XDATA    WORD      y
      02000975H   SYMBOL    XDATA    ---       AscText
      010064B0H   LINE      CODE     ---       #270
      010064CBH   LINE      CODE     ---       #271
      010064E0H   LINE      CODE     ---       #272
      010064F5H   LINE      CODE     ---       #273
      01006519H   LINE      CODE     ---       #274
      01006527H   LINE      CODE     ---       #275
LX51 LINKER/LOCATER V4.66.66.0                                                        03/09/2017  11:29:19  PAGE 97


      01006531H   LINE      CODE     ---       #276
      01006533H   LINE      CODE     ---       #277
      01006555H   LINE      CODE     ---       #278
      01006563H   LINE      CODE     ---       #279
      0100656DH   LINE      CODE     ---       #280
      0100656DH   LINE      CODE     ---       #281
      01006570H   LINE      CODE     ---       #282
      01006578H   LINE      CODE     ---       #283
      ---         BLOCKEND  ---      ---       LVL=0

      010037BBH   BLOCK     CODE     ---       LVL=0
      020008A5H   SYMBOL    XDATA    WORD      x
      020008A7H   SYMBOL    XDATA    WORD      y
      020008A9H   SYMBOL    XDATA    INT       value
      020008ABH   SYMBOL    XDATA    BYTE      n
      020008ACH   SYMBOL    XDATA    BYTE      dot
      020008ADH   SYMBOL    XDATA    BYTE      plus
      020008AEH   SYMBOL    XDATA    BYTE      ar
      010037D3H   BLOCK     CODE     NEAR LAB  LVL=1
      020008AFH   SYMBOL    XDATA    INT       ValueTmp
      020008B1H   SYMBOL    XDATA    INT       mask
      020008B3H   SYMBOL    XDATA    BYTE      w
      020008B4H   SYMBOL    XDATA    BYTE      i
      020008B5H   SYMBOL    XDATA    BYTE      sz
      020008B6H   SYMBOL    XDATA    BYTE      minus
      ---         BLOCKEND  ---      ---       LVL=1
      010037BBH   LINE      CODE     ---       #294
      010037D3H   LINE      CODE     ---       #295
      010037D3H   LINE      CODE     ---       #297
      010037D9H   LINE      CODE     ---       #299
      010037E9H   LINE      CODE     ---       #300
      010037EFH   LINE      CODE     ---       #301
      01003806H   LINE      CODE     ---       #302
      0100381BH   LINE      CODE     ---       #303
      01003829H   LINE      CODE     ---       #304
      01003829H   LINE      CODE     ---       #306
      01003839H   LINE      CODE     ---       #307
      01003871H   LINE      CODE     ---       #308
      0100388DH   LINE      CODE     ---       #310
      0100389DH   LINE      CODE     ---       #311
      010038ACH   LINE      CODE     ---       #312
      010038BDH   LINE      CODE     ---       #314
      010038C6H   LINE      CODE     ---       #315
      010038FCH   LINE      CODE     ---       #317
      01003922H   LINE      CODE     ---       #319
      0100392CH   LINE      CODE     ---       #320
      01003944H   LINE      CODE     ---       #321
      01003952H   LINE      CODE     ---       #322
      01003952H   LINE      CODE     ---       #324
      01003957H   LINE      CODE     ---       #325
      0100396EH   LINE      CODE     ---       #326
      01003990H   LINE      CODE     ---       #327
      010039A7H   LINE      CODE     ---       #328
      010039C9H   LINE      CODE     ---       #329
      010039CFH   LINE      CODE     ---       #330
      010039FCH   LINE      CODE     ---       #331
      01003A1FH   LINE      CODE     ---       #332
      01003A21H   LINE      CODE     ---       #333
      01003A35H   LINE      CODE     ---       #334
      01003A47H   LINE      CODE     ---       #336
      01003A66H   LINE      CODE     ---       #337
      01003A74H   LINE      CODE     ---       #338
      01003A74H   LINE      CODE     ---       #339
      01003A8BH   LINE      CODE     ---       #340
      01003A94H   LINE      CODE     ---       #341
LX51 LINKER/LOCATER V4.66.66.0                                                        03/09/2017  11:29:19  PAGE 98


      ---         BLOCKEND  ---      ---       LVL=0

      01006FA2H   BLOCK     CODE     ---       LVL=0
      0200098AH   SYMBOL    XDATA    WORD      x
      0200098CH   SYMBOL    XDATA    WORD      y
      0200098EH   SYMBOL    XDATA    BYTE      iTab
      01006FB7H   BLOCK     CODE     NEAR LAB  LVL=1
      0200098FH   SYMBOL    XDATA    BYTE      i
      ---         BLOCKEND  ---      ---       LVL=1
      01006FA2H   LINE      CODE     ---       #343
      01006FB7H   LINE      CODE     ---       #344
      01006FB7H   LINE      CODE     ---       #345
      01006FBCH   LINE      CODE     ---       #346
      01006FCCH   LINE      CODE     ---       #347
      01007017H   LINE      CODE     ---       #348
      0100701FH   LINE      CODE     ---       #349
      ---         BLOCKEND  ---      ---       LVL=0

      010052AFH   BLOCK     CODE     ---       LVL=0
      0200095AH   SYMBOL    XDATA    WORD      x
      0200095CH   SYMBOL    XDATA    WORD      y
      0200095EH   SYMBOL    XDATA    ---       pAsc
      010052DFH   BLOCK     CODE     NEAR LAB  LVL=1
      02000961H   SYMBOL    XDATA    CHAR      c
      ---         BLOCKEND  ---      ---       LVL=1
      010052AFH   LINE      CODE     ---       #350
      010052CAH   LINE      CODE     ---       #351
      010052CAH   LINE      CODE     ---       #352
      010052DFH   LINE      CODE     ---       #353
      010052F3H   LINE      CODE     ---       #354
      0100531BH   LINE      CODE     ---       #356
      01005353H   LINE      CODE     ---       #357
      0100538BH   LINE      CODE     ---       #358
      010053ABH   LINE      CODE     ---       #359
      010053C3H   LINE      CODE     ---       #361
      010053DBH   LINE      CODE     ---       #362
      010053DEH   LINE      CODE     ---       #363
      ---         BLOCKEND  ---      ---       LVL=0

      010034D0H   BLOCK     CODE     ---       LVL=0
      020008B7H   SYMBOL    XDATA    WORD      x
      020008B9H   SYMBOL    XDATA    WORD      y
      020008BBH   SYMBOL    XDATA    INT       value
      020008BDH   SYMBOL    XDATA    BYTE      n
      020008BEH   SYMBOL    XDATA    BYTE      dot
      020008BFH   SYMBOL    XDATA    BYTE      plus
      020008C0H   SYMBOL    XDATA    BYTE      ar
      010034E8H   BLOCK     CODE     NEAR LAB  LVL=1
      020008C1H   SYMBOL    XDATA    INT       ValueTmp
      020008C3H   SYMBOL    XDATA    INT       mask
      020008C5H   SYMBOL    XDATA    BYTE      w
      020008C6H   SYMBOL    XDATA    BYTE      sz
      020008C7H   SYMBOL    XDATA    BYTE      i
      020008C8H   SYMBOL    XDATA    BYTE      minus
      ---         BLOCKEND  ---      ---       LVL=1
      010034D0H   LINE      CODE     ---       #372
      010034E8H   LINE      CODE     ---       #373
      010034E8H   LINE      CODE     ---       #374
      010034F8H   LINE      CODE     ---       #375
      0100350DH   LINE      CODE     ---       #377
      0100351DH   LINE      CODE     ---       #378
      01003523H   LINE      CODE     ---       #379
      0100353AH   LINE      CODE     ---       #380
      0100354FH   LINE      CODE     ---       #381
      0100355DH   LINE      CODE     ---       #382
LX51 LINKER/LOCATER V4.66.66.0                                                        03/09/2017  11:29:19  PAGE 99


      0100355DH   LINE      CODE     ---       #384
      0100356DH   LINE      CODE     ---       #385
      010035A5H   LINE      CODE     ---       #386
      010035C1H   LINE      CODE     ---       #388
      010035D1H   LINE      CODE     ---       #389
      010035E0H   LINE      CODE     ---       #390
      010035F1H   LINE      CODE     ---       #392
      010035FAH   LINE      CODE     ---       #393
      01003630H   LINE      CODE     ---       #395
      01003656H   LINE      CODE     ---       #397
      01003660H   LINE      CODE     ---       #398
      01003686H   LINE      CODE     ---       #399
      01003686H   LINE      CODE     ---       #401
      0100369DH   LINE      CODE     ---       #402
      010036BFH   LINE      CODE     ---       #403
      010036D0H   LINE      CODE     ---       #404
      010036D6H   LINE      CODE     ---       #405
      010036D6H   LINE      CODE     ---       #406
      010036F8H   LINE      CODE     ---       #407
      010036FEH   LINE      CODE     ---       #408
      01003727H   LINE      CODE     ---       #409
      0100374AH   LINE      CODE     ---       #410
      0100374CH   LINE      CODE     ---       #411
      01003758H   LINE      CODE     ---       #412
      0100375EH   LINE      CODE     ---       #413
      01003768H   LINE      CODE     ---       #414
      01003771H   LINE      CODE     ---       #415
      01003771H   LINE      CODE     ---       #416
      0100378CH   LINE      CODE     ---       #417
      0100379AH   LINE      CODE     ---       #418
      0100379AH   LINE      CODE     ---       #419
      010037B1H   LINE      CODE     ---       #420
      010037BAH   LINE      CODE     ---       #421
      ---         BLOCKEND  ---      ---       LVL=0

      ---         MODULE    ---      ---       PAGE
      00000013H   PUBLIC    DATA     ---       PageStack
      00000012H   PUBLIC    DATA     BYTE      PageStackIdx
      02000939H   PUBLIC    XDATA    BYTE      ?_PageMenuProc?BYTE
      01000086H   PUBLIC    CODE     ---       _PageMenuProc
      01005164H   PUBLIC    CODE     ---       PageMenuStatDatInit
      0100775AH   PUBLIC    CODE     ---       _PageReturn
      010073CFH   PUBLIC    CODE     ---       _PageEnter
      010074F7H   PUBLIC    CODE     ---       _PageGoto
      01007020H   PUBLIC    CODE     ---       _PageInit
      000000A2H   SFRSYM    DATA     BYTE      SPI0CKR
      00000080H   SFRSYM    DATA     BYTE      P0
      000000D0H.2 SFRSYM    DATA     BIT       PSW_OV
      000000B1H   SFRSYM    DATA     BYTE      XOSC0CN
      00000090H   SFRSYM    DATA     BYTE      P1
      000000A0H   SFRSYM    DATA     BYTE      P2
      000000B0H   SFRSYM    DATA     BYTE      P3
      000000BCH   SFRSYM    DATA     BYTE      ADC0CF
      000000C8H   SFRSYM    DATA     BIT       TMR2CN0_T2XCLK
      000000C7H   SFRSYM    DATA     BYTE      P4
      000000C0H.7 SFRSYM    DATA     BIT       SMB0CN0_MASTER
      000000F9H   SFRSYM    DATA     WORD      PCA0
      000000E6H   SFRSYM    DATA     BYTE      EIE1
      000000C0H.7 SFRSYM    DATA     BIT       SMB1CN0_MASTER
      000000C0H.1 SFRSYM    DATA     BIT       SMB0CN0_ACK
      000000D7H   SFRSYM    DATA     BYTE      USB0XCN
      000000E7H   SFRSYM    DATA     BYTE      EIE2
      000000C0H.1 SFRSYM    DATA     BIT       SMB1CN0_ACK
      0000008FH   SFRSYM    DATA     BYTE      PSCTL
      000000E4H   SFRSYM    DATA     BYTE      IT01CF
LX51 LINKER/LOCATER V4.66.66.0                                                        03/09/2017  11:29:19  PAGE 100


      000000C8H   SFRSYM    DATA     BIT       TMR5CN0_T5XCLK
      000000C0H.6 SFRSYM    DATA     BIT       SMB0CN0_TXMODE
      000000C0H.6 SFRSYM    DATA     BIT       SMB1CN0_TXMODE
      000000BFH   SFRSYM    DATA     BYTE      SFRPAGE
      000000A4H   SFRSYM    DATA     BYTE      P0MDOUT
      00000080H.5 SFRSYM    DATA     BIT       LCD_SDA
      000000A5H   SFRSYM    DATA     BYTE      P1MDOUT
      000000E8H.5 SFRSYM    DATA     BIT       ADC0CN0_ADINT
      000000CBH   SFRSYM    DATA     BYTE      TMR2RLH
      000000A6H   SFRSYM    DATA     BYTE      P2MDOUT
      000000A8H   SFRSYM    DATA     BYTE      IE
      00000093H   SFRSYM    DATA     BYTE      TMR3RLH
      000000A7H   SFRSYM    DATA     BYTE      P3MDOUT
      00000093H   SFRSYM    DATA     BYTE      TMR4RLH
      000000AEH   SFRSYM    DATA     BYTE      P4MDOUT
      000000F6H   SFRSYM    DATA     BYTE      EIP1
      000000CBH   SFRSYM    DATA     BYTE      TMR5RLH
      000000F7H   SFRSYM    DATA     BYTE      EIP2
      00000098H.2 SFRSYM    DATA     BIT       SCON0_RB8
      000000CAH   SFRSYM    DATA     BYTE      TMR2RLL
      000000FCH   SFRSYM    DATA     BYTE      PCA0CPH0
      00000092H   SFRSYM    DATA     BYTE      TMR3RLL
      000000EAH   SFRSYM    DATA     BYTE      PCA0CPH1
      00000098H.3 SFRSYM    DATA     BIT       SCON0_TB8
      000000F0H   SFRSYM    DATA     BIT       B_B0
      00000082H   SFRSYM    DATA     WORD      DP
      00000092H   SFRSYM    DATA     BYTE      TMR4RLL
      000000ECH   SFRSYM    DATA     BYTE      PCA0CPH2
      000000F0H.1 SFRSYM    DATA     BIT       B_B1
      000000C3H   SFRSYM    DATA     WORD      ADC0GT
      000000CAH   SFRSYM    DATA     BYTE      TMR5RLL
      000000EEH   SFRSYM    DATA     BYTE      PCA0CPH3
      00000080H.3 SFRSYM    DATA     BIT       LCD_SCK
      000000F0H.2 SFRSYM    DATA     BIT       B_B2
      000000FBH   SFRSYM    DATA     BYTE      PCA0CPL0
      000000FEH   SFRSYM    DATA     BYTE      PCA0CPH4
      00000085H   SFRSYM    DATA     BYTE      EMI0CF
      000000F0H.3 SFRSYM    DATA     BIT       B_B3
      000000D9H   SFRSYM    DATA     BYTE      PCA0MD
      000000DAH   SFRSYM    DATA     BYTE      PCA0CPM0
      000000E9H   SFRSYM    DATA     BYTE      PCA0CPL1
      000000F0H.4 SFRSYM    DATA     BIT       B_B4
      000000DBH   SFRSYM    DATA     BYTE      PCA0CPM1
      000000EBH   SFRSYM    DATA     BYTE      PCA0CPL2
      000000F0H.5 SFRSYM    DATA     BIT       B_B5
      000000DCH   SFRSYM    DATA     BYTE      PCA0CPM2
      000000EDH   SFRSYM    DATA     BYTE      PCA0CPL3
      000000B8H   SFRSYM    DATA     BYTE      IP
      000000F0H.6 SFRSYM    DATA     BIT       B_B6
      000000C5H   SFRSYM    DATA     WORD      ADC0LT
      000000DDH   SFRSYM    DATA     BYTE      PCA0CPM3
      000000FDH   SFRSYM    DATA     BYTE      PCA0CPL4
      00000098H.5 SFRSYM    DATA     BIT       SCON0_MCE
      000000F0H.7 SFRSYM    DATA     BIT       B_B7
      000000DEH   SFRSYM    DATA     BYTE      PCA0CPM4
      000000E1H   SFRSYM    DATA     BYTE      XBR0
      000000C1H   SFRSYM    DATA     BYTE      SMB0CF
      000000E2H   SFRSYM    DATA     BYTE      XBR1
      000000C1H   SFRSYM    DATA     BYTE      SMB1CF
      000000AFH   SFRSYM    DATA     BYTE      PFE0CN
      000000AAH   SFRSYM    DATA     BYTE      EMI0CN
      000000C0H.5 SFRSYM    DATA     BIT       SMB0CN0_STA
      000000E3H   SFRSYM    DATA     BYTE      XBR2
      000000C0H.5 SFRSYM    DATA     BIT       SMB1CN0_STA
      000000E0H   SFRSYM    DATA     BIT       ACC_ACC0
LX51 LINKER/LOCATER V4.66.66.0                                                        03/09/2017  11:29:19  PAGE 101


      000000D1H   SFRSYM    DATA     BYTE      REF0CN
      000000B2H   SFRSYM    DATA     BYTE      HFO0CN
      0000008EH   SFRSYM    DATA     BYTE      CKCON0
      000000E0H.1 SFRSYM    DATA     BIT       ACC_ACC1
      000000E4H   SFRSYM    DATA     BYTE      CKCON1
      000000C8H.2 SFRSYM    DATA     BIT       TMR2CN0_TR2
      000000E0H.2 SFRSYM    DATA     BIT       ACC_ACC2
      000000E0H.3 SFRSYM    DATA     BIT       ACC_ACC3
      00000081H   SFRSYM    DATA     BYTE      SP
      0000009DH   SFRSYM    DATA     BYTE      CMP0MD
      000000E0H.4 SFRSYM    DATA     BIT       ACC_ACC4
      00000086H   SFRSYM    DATA     BYTE      LFO0CN
      00000084H   SFRSYM    DATA     BYTE      EMI0TC
      0000009CH   SFRSYM    DATA     BYTE      CMP1MD
      000000D8H   SFRSYM    DATA     BIT       PCA0CN0_CCF0
      000000E0H.5 SFRSYM    DATA     BIT       ACC_ACC5
      000000D8H.1 SFRSYM    DATA     BIT       PCA0CN0_CCF1
      000000E0H.6 SFRSYM    DATA     BIT       ACC_ACC6
      000000CCH   SFRSYM    DATA     WORD      TMR2
      000000D8H.2 SFRSYM    DATA     BIT       PCA0CN0_CCF2
      000000E0H.7 SFRSYM    DATA     BIT       ACC_ACC7
      00000094H   SFRSYM    DATA     WORD      TMR3
      000000C8H.2 SFRSYM    DATA     BIT       TMR5CN0_TR5
      000000D8H.3 SFRSYM    DATA     BIT       PCA0CN0_CCF3
      00000094H   SFRSYM    DATA     WORD      TMR4
      000000ACH   SFRSYM    DATA     BYTE      SBCON1
      000000D8H.4 SFRSYM    DATA     BIT       PCA0CN0_CCF4
      000000CCH   SFRSYM    DATA     WORD      TMR5
      000000C0H.3 SFRSYM    DATA     BIT       SMB0CN0_ACKRQ
      000000FFH   SFRSYM    DATA     BYTE      VDM0CN
      000000F1H   SFRSYM    DATA     BYTE      P0MDIN
      000000C0H.3 SFRSYM    DATA     BIT       SMB1CN0_ACKRQ
      00000098H.4 SFRSYM    DATA     BIT       SCON0_REN
      000000F2H   SFRSYM    DATA     BYTE      P1MDIN
      000000F3H   SFRSYM    DATA     BYTE      P2MDIN
      000000C0H.4 SFRSYM    DATA     BIT       SMB0CN0_STO
      000000F4H   SFRSYM    DATA     BYTE      P3MDIN
      00000090H.3 SFRSYM    DATA     BIT       LCD_RST
      000000C0H.4 SFRSYM    DATA     BIT       SMB1CN0_STO
      000000B5H   SFRSYM    DATA     BYTE      SBRLH1
      000000F5H   SFRSYM    DATA     BYTE      P4MDIN
      000000D0H.3 SFRSYM    DATA     BIT       PSW_RS0
      000000D8H.7 SFRSYM    DATA     BIT       PCA0CN0_CF
      000000F8H.4 SFRSYM    DATA     BIT       SPI0CN0_RXOVRN
      000000D0H.4 SFRSYM    DATA     BIT       PSW_RS1
      000000B4H   SFRSYM    DATA     BYTE      SBRLL1
      000000E8H.7 SFRSYM    DATA     BIT       ADC0CN0_ADEN
      00000089H   SFRSYM    DATA     BYTE      TMOD
      00000088H   SFRSYM    DATA     BYTE      TCON
      000000D0H   SFRSYM    DATA     BIT       PSW_PARITY
      000000A8H.4 SFRSYM    DATA     BIT       IE_ES0
      0000009FH   SFRSYM    DATA     BYTE      CMP0MX
      000000A8H.1 SFRSYM    DATA     BIT       IE_ET0
      0000009EH   SFRSYM    DATA     BYTE      CMP1MX
      000000A8H.3 SFRSYM    DATA     BIT       IE_ET1
      000000D4H   SFRSYM    DATA     BYTE      P0SKIP
      000000C8H.1 SFRSYM    DATA     BIT       TMR2CN0_T2CSS
      000000A8H.5 SFRSYM    DATA     BIT       IE_ET2
      000000D5H   SFRSYM    DATA     BYTE      P1SKIP
      000000D6H   SFRSYM    DATA     BYTE      P2SKIP
      000000E8H   SFRSYM    DATA     BYTE      ADC0CN0
      000000A8H   SFRSYM    DATA     BIT       IE_EX0
      000000DFH   SFRSYM    DATA     BYTE      P3SKIP
      000000D8H.6 SFRSYM    DATA     BIT       PCA0CN0_CR
      000000A8H.2 SFRSYM    DATA     BIT       IE_EX1
LX51 LINKER/LOCATER V4.66.66.0                                                        03/09/2017  11:29:19  PAGE 102


      00000098H.7 SFRSYM    DATA     BIT       SCON0_SMODE
      000000A9H   SFRSYM    DATA     BYTE      CLKSEL
      000000F8H   SFRSYM    DATA     BIT       SPI0CN0_SPIEN
      000000F0H   SFRSYM    DATA     BYTE      B
      000000BEH   SFRSYM    DATA     BYTE      ADC0H
      000000E8H.6 SFRSYM    DATA     BIT       ADC0CN0_ADTM
      000000CAH   SFRSYM    DATA     WORD      TMR2RL
      000000BDH   SFRSYM    DATA     BYTE      ADC0L
      00000092H   SFRSYM    DATA     WORD      TMR3RL
      00000092H   SFRSYM    DATA     WORD      TMR4RL
      000000D8H   SFRSYM    DATA     BYTE      PCA0CN0
      000000E0H   SFRSYM    DATA     BYTE      ACC
      000000CAH   SFRSYM    DATA     WORD      TMR5RL
      000000FBH   SFRSYM    DATA     WORD      PCA0CP0
      00000080H.6 SFRSYM    DATA     BIT       LCD_CS
      000000E9H   SFRSYM    DATA     WORD      PCA0CP1
      000000EBH   SFRSYM    DATA     WORD      PCA0CP2
      000000EDH   SFRSYM    DATA     WORD      PCA0CP3
      0000008CH   SFRSYM    DATA     BYTE      TH0
      000000B8H.4 SFRSYM    DATA     BIT       IP_PS0
      000000FDH   SFRSYM    DATA     WORD      PCA0CP4
      0000008DH   SFRSYM    DATA     BYTE      TH1
      000000FAH   SFRSYM    DATA     BYTE      PCA0H
      000000B8H.1 SFRSYM    DATA     BIT       IP_PT0
      000000B8H.3 SFRSYM    DATA     BIT       IP_PT1
      000000C0H.2 SFRSYM    DATA     BIT       SMB0CN0_ARBLOST
      000000B8H.5 SFRSYM    DATA     BIT       IP_PT2
      0000008AH   SFRSYM    DATA     BYTE      TL0
      000000F8H.1 SFRSYM    DATA     BIT       SPI0CN0_TXBMT
      000000C0H.2 SFRSYM    DATA     BIT       SMB1CN0_ARBLOST
      000000D0H.5 SFRSYM    DATA     BIT       PSW_F0
      000000A8H.6 SFRSYM    DATA     BIT       IE_ESPI0
      0000008BH   SFRSYM    DATA     BYTE      TL1
      000000F9H   SFRSYM    DATA     BYTE      PCA0L
      000000C0H   SFRSYM    DATA     BIT       SMB0CN0_SI
      000000D0H.1 SFRSYM    DATA     BIT       PSW_F1
      00000080H   SFRSYM    DATA     BIT       P0_B0
      000000B8H   SFRSYM    DATA     BIT       IP_PX0
      000000C9H   SFRSYM    DATA     BYTE      REG01CN
      000000C0H   SFRSYM    DATA     BIT       SMB1CN0_SI
      00000090H   SFRSYM    DATA     BIT       P1_B0
      00000080H.1 SFRSYM    DATA     BIT       P0_B1
      000000B8H.2 SFRSYM    DATA     BIT       IP_PX1
      0000009BH   SFRSYM    DATA     BYTE      CMP0CN0
      00000088H.1 SFRSYM    DATA     BIT       TCON_IE0
      000000A0H   SFRSYM    DATA     BIT       P2_B0
      00000090H.1 SFRSYM    DATA     BIT       P1_B1
      00000080H.2 SFRSYM    DATA     BIT       P0_B2
      0000009AH   SFRSYM    DATA     BYTE      CMP1CN0
      00000088H.3 SFRSYM    DATA     BIT       TCON_IE1
      000000B0H   SFRSYM    DATA     BIT       P3_B0
      000000A0H.1 SFRSYM    DATA     BIT       P2_B1
      00000090H.2 SFRSYM    DATA     BIT       P1_B2
      00000080H.3 SFRSYM    DATA     BIT       P0_B3
      000000C0H   SFRSYM    DATA     BYTE      SMB0CN0
      000000B0H.1 SFRSYM    DATA     BIT       P3_B1
      000000A0H.2 SFRSYM    DATA     BIT       P2_B2
      00000090H.3 SFRSYM    DATA     BIT       P1_B3
      00000080H.4 SFRSYM    DATA     BIT       P0_B4
      000000C0H   SFRSYM    DATA     BYTE      SMB1CN0
      000000B0H.2 SFRSYM    DATA     BIT       P3_B2
      000000A0H.3 SFRSYM    DATA     BIT       P2_B3
      00000090H.4 SFRSYM    DATA     BIT       P1_B4
      00000080H.5 SFRSYM    DATA     BIT       P0_B5
      000000B0H.3 SFRSYM    DATA     BIT       P3_B3
LX51 LINKER/LOCATER V4.66.66.0                                                        03/09/2017  11:29:19  PAGE 103


      000000A0H.4 SFRSYM    DATA     BIT       P2_B4
      00000090H.5 SFRSYM    DATA     BIT       P1_B5
      00000080H.6 SFRSYM    DATA     BIT       P0_B6
      00000080H.2 SFRSYM    DATA     BIT       LCD_RS
      000000B0H.4 SFRSYM    DATA     BIT       P3_B4
      000000A0H.5 SFRSYM    DATA     BIT       P2_B5
      00000090H.6 SFRSYM    DATA     BIT       P1_B6
      00000080H.7 SFRSYM    DATA     BIT       P0_B7
      000000B0H.5 SFRSYM    DATA     BIT       P3_B5
      000000A0H.6 SFRSYM    DATA     BIT       P2_B6
      00000090H.7 SFRSYM    DATA     BIT       P1_B7
      000000B0H.6 SFRSYM    DATA     BIT       P3_B6
      000000A0H.7 SFRSYM    DATA     BIT       P2_B7
      000000B0H.7 SFRSYM    DATA     BIT       P3_B7
      00000083H   SFRSYM    DATA     BYTE      DPH
      000000C4H   SFRSYM    DATA     BYTE      ADC0GTH
      000000C8H.7 SFRSYM    DATA     BIT       TMR2CN0_TF2H
      000000C8H.3 SFRSYM    DATA     BIT       TMR2CN0_T2SPLIT
      000000D0H.6 SFRSYM    DATA     BIT       PSW_AC
      000000F8H   SFRSYM    DATA     BYTE      SPI0CN0
      000000B3H   SFRSYM    DATA     BYTE      HFO0CAL
      00000080H   SFRSYM    DATA     BIT       BtnEntGpio
      00000088H.5 SFRSYM    DATA     BIT       TCON_TF0
      00000098H   SFRSYM    DATA     BIT       SCON0_RI
      00000082H   SFRSYM    DATA     BYTE      DPL
      00000088H.7 SFRSYM    DATA     BIT       TCON_TF1
      00000099H   SFRSYM    DATA     BYTE      SBUF0
      00000087H   SFRSYM    DATA     BYTE      PCON0
      000000C3H   SFRSYM    DATA     BYTE      ADC0GTL
      000000C8H.6 SFRSYM    DATA     BIT       TMR2CN0_TF2L
      00000098H.1 SFRSYM    DATA     BIT       SCON0_TI
      000000E8H   SFRSYM    DATA     BIT       ADC0CN0_ADCM0
      000000D3H   SFRSYM    DATA     BYTE      SBUF1
      000000C6H   SFRSYM    DATA     BYTE      ADC0LTH
      00000088H   SFRSYM    DATA     BIT       TCON_IT0
      000000E8H.1 SFRSYM    DATA     BIT       ADC0CN0_ADCM1
      000000EFH   SFRSYM    DATA     BYTE      RSTSRC
      000000C8H.7 SFRSYM    DATA     BIT       TMR5CN0_TF5H
      000000C8H.3 SFRSYM    DATA     BIT       TMR5CN0_T5SPLIT
      00000088H.2 SFRSYM    DATA     BIT       TCON_IT1
      000000E8H.2 SFRSYM    DATA     BIT       ADC0CN0_ADCM2
      00000098H   SFRSYM    DATA     BYTE      SCON0
      000000E8H.3 SFRSYM    DATA     BIT       ADC0CN0_ADWINT
      000000B4H   SFRSYM    DATA     WORD      SBRL1
      000000E5H   SFRSYM    DATA     BYTE      SMOD1
      000000D2H   SFRSYM    DATA     BYTE      SCON1
      000000BAH   SFRSYM    DATA     BYTE      AMX0N
      000000E8H.4 SFRSYM    DATA     BIT       ADC0CN0_ADBUSY
      000000CEH   SFRSYM    DATA     BYTE      SMB0ADM
      000000C5H   SFRSYM    DATA     BYTE      ADC0LTL
      000000F8H.5 SFRSYM    DATA     BIT       SPI0CN0_MODF
      000000B8H.6 SFRSYM    DATA     BIT       IP_PSPI0
      000000CEH   SFRSYM    DATA     BYTE      SMB1ADM
      000000BBH   SFRSYM    DATA     BYTE      AMX0P
      000000C8H.6 SFRSYM    DATA     BIT       TMR5CN0_TF5L
      000000C8H   SFRSYM    DATA     BYTE      TMR2CN0
      00000091H   SFRSYM    DATA     BYTE      TMR3CN0
      00000080H.1 SFRSYM    DATA     BIT       BtnExtGpio
      00000091H   SFRSYM    DATA     BYTE      TMR4CN0
      000000C8H   SFRSYM    DATA     BYTE      TMR5CN0
      000000CFH   SFRSYM    DATA     BYTE      SMB0ADR
      00000088H.4 SFRSYM    DATA     BIT       TCON_TR0
      000000CFH   SFRSYM    DATA     BYTE      SMB1ADR
      000000C8H.4 SFRSYM    DATA     BIT       TMR2CN0_TF2CEN
      00000088H.6 SFRSYM    DATA     BIT       TCON_TR1
LX51 LINKER/LOCATER V4.66.66.0                                                        03/09/2017  11:29:19  PAGE 104


      000000C2H   SFRSYM    DATA     BYTE      SMB0DAT
      00000080H.4 SFRSYM    DATA     BIT       RC_OUT
      000000CDH   SFRSYM    DATA     BYTE      TMR2H
      000000A1H   SFRSYM    DATA     BYTE      SPI0CFG
      000000C2H   SFRSYM    DATA     BYTE      SMB1DAT
      00000095H   SFRSYM    DATA     BYTE      TMR3H
      00000095H   SFRSYM    DATA     BYTE      TMR4H
      000000CDH   SFRSYM    DATA     BYTE      TMR5H
      000000CCH   SFRSYM    DATA     BYTE      TMR2L
      00000090H.5 SFRSYM    DATA     BIT       BtnDwGpio
      000000F8H.7 SFRSYM    DATA     BIT       SPI0CN0_SPIF
      00000096H   SFRSYM    DATA     BYTE      USB0ADR
      00000094H   SFRSYM    DATA     BYTE      TMR3L
      000000A8H.7 SFRSYM    DATA     BIT       IE_EA
      00000094H   SFRSYM    DATA     BYTE      TMR4L
      00000097H   SFRSYM    DATA     BYTE      USB0DAT
      000000CCH   SFRSYM    DATA     BYTE      TMR5L
      000000B6H   SFRSYM    DATA     BYTE      FLSCL
      000000C8H.5 SFRSYM    DATA     BIT       TMR2CN0_TF2LEN
      000000F8H.6 SFRSYM    DATA     BIT       SPI0CN0_WCOL
      000000F8H.2 SFRSYM    DATA     BIT       SPI0CN0_NSSMD0
      000000D0H.7 SFRSYM    DATA     BIT       PSW_CY
      000000A3H   SFRSYM    DATA     BYTE      SPI0DAT
      000000F8H.3 SFRSYM    DATA     BIT       SPI0CN0_NSSMD1
      000000BDH   SFRSYM    DATA     WORD      ADC0
      000000B9H   SFRSYM    DATA     BYTE      SMBTC
      000000D0H   SFRSYM    DATA     BYTE      PSW
      000000C8H.5 SFRSYM    DATA     BIT       TMR5CN0_TF5LEN
      000000B7H   SFRSYM    DATA     BYTE      FLKEY
      00000090H.4 SFRSYM    DATA     BIT       BtnUpGpio

      01007020H   BLOCK     CODE     ---       LVL=0
      020009D2H   SYMBOL    XDATA    ---       Page
      020009D5H   SYMBOL    XDATA    BYTE      Msg
      01007020H   LINE      CODE     ---       #7
      01007030H   LINE      CODE     ---       #8
      0100703AH   LINE      CODE     ---       #9
      01007052H   LINE      CODE     ---       #10
      01007056H   LINE      CODE     ---       #11
      01007059H   LINE      CODE     ---       #12
      01007076H   LINE      CODE     ---       #13
      0100708DH   LINE      CODE     ---       #14
      ---         BLOCKEND  ---      ---       LVL=0

      010074F7H   BLOCK     CODE     ---       LVL=0
      020009D6H   SYMBOL    XDATA    ---       Page
      020009D9H   SYMBOL    XDATA    BYTE      Msg
      010074F7H   LINE      CODE     ---       #15
      01007507H   LINE      CODE     ---       #16
      01007524H   LINE      CODE     ---       #17
      0100753BH   LINE      CODE     ---       #18
      ---         BLOCKEND  ---      ---       LVL=0

      010073CFH   BLOCK     CODE     ---       LVL=0
      020009DAH   SYMBOL    XDATA    ---       Page
      020009DDH   SYMBOL    XDATA    BYTE      Msg
      010073CFH   LINE      CODE     ---       #19
      010073DFH   LINE      CODE     ---       #20
      010073E6H   LINE      CODE     ---       #21
      01007405H   LINE      CODE     ---       #22
      0100741CH   LINE      CODE     ---       #23
      ---         BLOCKEND  ---      ---       LVL=0

      0100775AH   BLOCK     CODE     ---       LVL=0
      020009FFH   SYMBOL    XDATA    BYTE      Msg
LX51 LINKER/LOCATER V4.66.66.0                                                        03/09/2017  11:29:19  PAGE 105


      0100775AH   LINE      CODE     ---       #24
      0100775FH   LINE      CODE     ---       #25
      01007768H   LINE      CODE     ---       #26
      01007786H   LINE      CODE     ---       #27
      ---         BLOCKEND  ---      ---       LVL=0

      01005164H   BLOCK     CODE     ---       LVL=0
      01005164H   LINE      CODE     ---       #29
      01005164H   LINE      CODE     ---       #30
      01005169H   LINE      CODE     ---       #31
      0100516EH   LINE      CODE     ---       #32
      01005173H   LINE      CODE     ---       #33
      01005178H   LINE      CODE     ---       #34
      0100517DH   LINE      CODE     ---       #35
      01005182H   LINE      CODE     ---       #37
      01005187H   LINE      CODE     ---       #38
      0100518CH   LINE      CODE     ---       #39
      01005191H   LINE      CODE     ---       #40
      01005196H   LINE      CODE     ---       #41
      0100519BH   LINE      CODE     ---       #42
      010051A0H   LINE      CODE     ---       #44
      010051A5H   LINE      CODE     ---       #45
      010051AAH   LINE      CODE     ---       #46
      010051AFH   LINE      CODE     ---       #47
      010051B4H   LINE      CODE     ---       #48
      010051B9H   LINE      CODE     ---       #49
      010051BEH   LINE      CODE     ---       #51
      010051C3H   LINE      CODE     ---       #52
      010051C8H   LINE      CODE     ---       #53
      010051CDH   LINE      CODE     ---       #54
      010051D2H   LINE      CODE     ---       #55
      010051D7H   LINE      CODE     ---       #56
      010051DCH   LINE      CODE     ---       #58
      010051E1H   LINE      CODE     ---       #59
      010051E6H   LINE      CODE     ---       #60
      010051EBH   LINE      CODE     ---       #61
      010051F0H   LINE      CODE     ---       #62
      010051F5H   LINE      CODE     ---       #63
      010051FAH   LINE      CODE     ---       #65
      010051FFH   LINE      CODE     ---       #66
      01005204H   LINE      CODE     ---       #67
      01005209H   LINE      CODE     ---       #68
      0100520EH   LINE      CODE     ---       #69
      01005213H   LINE      CODE     ---       #70
      01005218H   LINE      CODE     ---       #72
      0100521DH   LINE      CODE     ---       #73
      01005222H   LINE      CODE     ---       #74
      01005227H   LINE      CODE     ---       #75
      0100522CH   LINE      CODE     ---       #76
      01005231H   LINE      CODE     ---       #77
      01005236H   LINE      CODE     ---       #79
      0100523BH   LINE      CODE     ---       #80
      01005240H   LINE      CODE     ---       #81
      01005245H   LINE      CODE     ---       #82
      0100524AH   LINE      CODE     ---       #83
      0100524FH   LINE      CODE     ---       #84
      01005254H   LINE      CODE     ---       #86
      01005259H   LINE      CODE     ---       #87
      0100525EH   LINE      CODE     ---       #88
      01005263H   LINE      CODE     ---       #89
      01005268H   LINE      CODE     ---       #90
      0100526DH   LINE      CODE     ---       #91
      01005272H   LINE      CODE     ---       #93
      01005277H   LINE      CODE     ---       #94
      0100527CH   LINE      CODE     ---       #95
LX51 LINKER/LOCATER V4.66.66.0                                                        03/09/2017  11:29:19  PAGE 106


      01005281H   LINE      CODE     ---       #96
      01005286H   LINE      CODE     ---       #97
      0100528BH   LINE      CODE     ---       #98
      01005290H   LINE      CODE     ---       #100
      01005295H   LINE      CODE     ---       #101
      0100529AH   LINE      CODE     ---       #102
      0100529FH   LINE      CODE     ---       #103
      010052A4H   LINE      CODE     ---       #104
      010052A9H   LINE      CODE     ---       #105
      010052AEH   LINE      CODE     ---       #106
      ---         BLOCKEND  ---      ---       LVL=0

      01000086H   BLOCK     CODE     ---       LVL=0
      02000939H   SYMBOL    XDATA    ---       pmi
      0200093CH   SYMBOL    XDATA    ---       pms
      01000091H   BLOCK     CODE     NEAR LAB  LVL=1
      00000008H   SYMBOL    DATA     BYTE      i
      00000009H   SYMBOL    DATA     BYTE      idx
      0000000AH   SYMBOL    DATA     WORD      s
      0000000CH   SYMBOL    DATA     WORD      p
      0000000EH   SYMBOL    DATA     WORD      x
      00000010H   SYMBOL    DATA     WORD      y
      0200093FH   SYMBOL    XDATA    ---       mi
      ---         BLOCKEND  ---      ---       LVL=1
      01000086H   LINE      CODE     ---       #108
      01000091H   LINE      CODE     ---       #109
      01000097H   LINE      CODE     ---       #110
      010000AFH   LINE      CODE     ---       #111
      010000F1H   LINE      CODE     ---       #113
      0100010CH   LINE      CODE     ---       #114
      01000125H   LINE      CODE     ---       #115
      01000145H   LINE      CODE     ---       #116
      01000176H   LINE      CODE     ---       #117
      01000176H   LINE      CODE     ---       #119
      01000192H   LINE      CODE     ---       #120
      010001B0H   LINE      CODE     ---       #121
      010001F1H   LINE      CODE     ---       #122
      010001FEH   LINE      CODE     ---       #123
      01000238H   LINE      CODE     ---       #124
      0100023BH   LINE      CODE     ---       #125
      0100027CH   LINE      CODE     ---       #126
      01000289H   LINE      CODE     ---       #127
      010002C3H   LINE      CODE     ---       #128
      010002C3H   LINE      CODE     ---       #129
      010002C3H   LINE      CODE     ---       #131
      010002E2H   LINE      CODE     ---       #132
      01000313H   LINE      CODE     ---       #133
      0100032DH   LINE      CODE     ---       #134
      01000352H   LINE      CODE     ---       #135
      01000354H   LINE      CODE     ---       #137
      0100035AH   LINE      CODE     ---       #138
      01000367H   LINE      CODE     ---       #140
      0100038BH   LINE      CODE     ---       #141
      010003C1H   LINE      CODE     ---       #142
      010003EDH   LINE      CODE     ---       #143
      01000406H   LINE      CODE     ---       #144
      01000437H   LINE      CODE     ---       #146
      01000461H   LINE      CODE     ---       #147
      01000469H   LINE      CODE     ---       #148
      01000480H   LINE      CODE     ---       #149
      01000482H   LINE      CODE     ---       #150
      01000499H   LINE      CODE     ---       #151
      01000499H   LINE      CODE     ---       #152
      01000499H   LINE      CODE     ---       #154
      010004C6H   LINE      CODE     ---       #155
LX51 LINKER/LOCATER V4.66.66.0                                                        03/09/2017  11:29:19  PAGE 107


      010004FFH   LINE      CODE     ---       #156
      01000539H   LINE      CODE     ---       #157
      01000556H   LINE      CODE     ---       #158
      01000586H   LINE      CODE     ---       #159
      01000647H   LINE      CODE     ---       #160
      01000708H   LINE      CODE     ---       #162
      01000735H   LINE      CODE     ---       #163
      010007B4H   LINE      CODE     ---       #164
      01000834H   LINE      CODE     ---       #165
      01000837H   LINE      CODE     ---       #166
      010008BDH   LINE      CODE     ---       #167
      010008C3H   LINE      CODE     ---       #168
      010008C3H   LINE      CODE     ---       #169
      010008C3H   LINE      CODE     ---       #171
      010008E9H   LINE      CODE     ---       #172
      01000947H   LINE      CODE     ---       #173
      0100095EH   LINE      CODE     ---       #174
      010009BFH   LINE      CODE     ---       #175
      010009D6H   LINE      CODE     ---       #176
      010009D8H   LINE      CODE     ---       #177
      010009EFH   LINE      CODE     ---       #178
      01000A18H   LINE      CODE     ---       #179
      01000A18H   LINE      CODE     ---       #180
      01000A18H   LINE      CODE     ---       #181
      01000A18H   LINE      CODE     ---       #182
      01000A1DH   LINE      CODE     ---       #183
      01000A2DH   LINE      CODE     ---       #184
      01000A2DH   LINE      CODE     ---       #185
      01000A30H   LINE      CODE     ---       #186
      01000A45H   LINE      CODE     ---       #187
      01000A45H   LINE      CODE     ---       #189
      01000A60H   LINE      CODE     ---       #190
      01000A6BH   LINE      CODE     ---       #191
      01000A84H   LINE      CODE     ---       #192
      01000AC2H   LINE      CODE     ---       #193
      01000ADDH   LINE      CODE     ---       #194
      01000AFCH   LINE      CODE     ---       #195
      01000AFCH   LINE      CODE     ---       #196
      01000AFCH   LINE      CODE     ---       #197
      01000AFCH   LINE      CODE     ---       #198
      01000B07H   LINE      CODE     ---       #199
      01000B23H   LINE      CODE     ---       #200
      01000B64H   LINE      CODE     ---       #201
      01000B80H   LINE      CODE     ---       #202
      01000B9FH   LINE      CODE     ---       #203
      01000B9FH   LINE      CODE     ---       #204
      01000B9FH   LINE      CODE     ---       #205
      01000B9FH   LINE      CODE     ---       #206
      01000BA2H   LINE      CODE     ---       #207
      01000BAAH   LINE      CODE     ---       #208
      01000BC5H   LINE      CODE     ---       #209
      01000BDBH   LINE      CODE     ---       #210
      01000BDDH   LINE      CODE     ---       #211
      01000C0AH   LINE      CODE     ---       #212
      01000C0AH   LINE      CODE     ---       #213
      01000C20H   LINE      CODE     ---       #214
      01000C20H   LINE      CODE     ---       #215
      01000C28H   LINE      CODE     ---       #216
      01000C5AH   LINE      CODE     ---       #217
      01000C70H   LINE      CODE     ---       #218
      01000C72H   LINE      CODE     ---       #219
      01000C87H   LINE      CODE     ---       #220
      01000C87H   LINE      CODE     ---       #221
      01000C9DH   LINE      CODE     ---       #222
      01000C9DH   LINE      CODE     ---       #223
LX51 LINKER/LOCATER V4.66.66.0                                                        03/09/2017  11:29:19  PAGE 108


      01000C9DH   LINE      CODE     ---       #225
      01000CF6H   LINE      CODE     ---       #226
      01000D57H   LINE      CODE     ---       #227
      ---         BLOCKEND  ---      ---       LVL=0

      ---         MODULE    ---      ---       PAGEESC
      020006FAH   PUBLIC    XDATA    ---       EscMs
      020006F6H   PUBLIC    XDATA    FLOAT     MinVolt
      020006F2H   PUBLIC    XDATA    FLOAT     MaxCurr
      020006EEH   PUBLIC    XDATA    FLOAT     MaxTemp
      020006DAH   PUBLIC    XDATA    ---       ShowText3thFirmware
      020006C6H   PUBLIC    XDATA    ---       ShowTextMinVolt
      020006B2H   PUBLIC    XDATA    ---       ShowTextMaxCurr
      0200069EH   PUBLIC    XDATA    ---       ShowText3thHardware
      0200068AH   PUBLIC    XDATA    ---       ShowText3thSoftWare
      02000676H   PUBLIC    XDATA    ---       ShowTextMaxTemp
      01008A9CH   PUBLIC    CONST    ---       MenuItemParamEsc
      01006221H   PUBLIC    CODE     ---       _PageEsc3thAbout
      01006A33H   PUBLIC    CODE     ---       _PageEsc3thRst
      01006136H   PUBLIC    CODE     ---       _PageEsc2thRst
      01006045H   PUBLIC    CODE     ---       _PageEsc1thRst
      01006EA0H   PUBLIC    CODE     ---       _PageEscParam
      010048A9H   PUBLIC    CODE     ---       ParamEscDatProccess
      000000A2H   SFRSYM    DATA     BYTE      SPI0CKR
      00000080H   SFRSYM    DATA     BYTE      P0
      000000D0H.2 SFRSYM    DATA     BIT       PSW_OV
      000000B1H   SFRSYM    DATA     BYTE      XOSC0CN
      00000090H   SFRSYM    DATA     BYTE      P1
      000000A0H   SFRSYM    DATA     BYTE      P2
      000000B0H   SFRSYM    DATA     BYTE      P3
      000000BCH   SFRSYM    DATA     BYTE      ADC0CF
      000000C8H   SFRSYM    DATA     BIT       TMR2CN0_T2XCLK
      000000C7H   SFRSYM    DATA     BYTE      P4
      000000C0H.7 SFRSYM    DATA     BIT       SMB0CN0_MASTER
      000000F9H   SFRSYM    DATA     WORD      PCA0
      000000E6H   SFRSYM    DATA     BYTE      EIE1
      000000C0H.7 SFRSYM    DATA     BIT       SMB1CN0_MASTER
      000000C0H.1 SFRSYM    DATA     BIT       SMB0CN0_ACK
      000000D7H   SFRSYM    DATA     BYTE      USB0XCN
      000000E7H   SFRSYM    DATA     BYTE      EIE2
      000000C0H.1 SFRSYM    DATA     BIT       SMB1CN0_ACK
      0000008FH   SFRSYM    DATA     BYTE      PSCTL
      000000E4H   SFRSYM    DATA     BYTE      IT01CF
      000000C8H   SFRSYM    DATA     BIT       TMR5CN0_T5XCLK
      000000C0H.6 SFRSYM    DATA     BIT       SMB0CN0_TXMODE
      000000C0H.6 SFRSYM    DATA     BIT       SMB1CN0_TXMODE
      000000BFH   SFRSYM    DATA     BYTE      SFRPAGE
      000000A4H   SFRSYM    DATA     BYTE      P0MDOUT
      00000080H.5 SFRSYM    DATA     BIT       LCD_SDA
      000000A5H   SFRSYM    DATA     BYTE      P1MDOUT
      000000E8H.5 SFRSYM    DATA     BIT       ADC0CN0_ADINT
      000000CBH   SFRSYM    DATA     BYTE      TMR2RLH
      000000A6H   SFRSYM    DATA     BYTE      P2MDOUT
      000000A8H   SFRSYM    DATA     BYTE      IE
      00000093H   SFRSYM    DATA     BYTE      TMR3RLH
      000000A7H   SFRSYM    DATA     BYTE      P3MDOUT
      00000093H   SFRSYM    DATA     BYTE      TMR4RLH
      000000AEH   SFRSYM    DATA     BYTE      P4MDOUT
      000000F6H   SFRSYM    DATA     BYTE      EIP1
      000000CBH   SFRSYM    DATA     BYTE      TMR5RLH
      000000F7H   SFRSYM    DATA     BYTE      EIP2
      00000098H.2 SFRSYM    DATA     BIT       SCON0_RB8
      000000CAH   SFRSYM    DATA     BYTE      TMR2RLL
      000000FCH   SFRSYM    DATA     BYTE      PCA0CPH0
      00000092H   SFRSYM    DATA     BYTE      TMR3RLL
LX51 LINKER/LOCATER V4.66.66.0                                                        03/09/2017  11:29:19  PAGE 109


      000000EAH   SFRSYM    DATA     BYTE      PCA0CPH1
      00000098H.3 SFRSYM    DATA     BIT       SCON0_TB8
      000000F0H   SFRSYM    DATA     BIT       B_B0
      00000082H   SFRSYM    DATA     WORD      DP
      00000092H   SFRSYM    DATA     BYTE      TMR4RLL
      000000ECH   SFRSYM    DATA     BYTE      PCA0CPH2
      000000F0H.1 SFRSYM    DATA     BIT       B_B1
      000000C3H   SFRSYM    DATA     WORD      ADC0GT
      000000CAH   SFRSYM    DATA     BYTE      TMR5RLL
      000000EEH   SFRSYM    DATA     BYTE      PCA0CPH3
      00000080H.3 SFRSYM    DATA     BIT       LCD_SCK
      000000F0H.2 SFRSYM    DATA     BIT       B_B2
      000000FBH   SFRSYM    DATA     BYTE      PCA0CPL0
      000000FEH   SFRSYM    DATA     BYTE      PCA0CPH4
      00000085H   SFRSYM    DATA     BYTE      EMI0CF
      000000F0H.3 SFRSYM    DATA     BIT       B_B3
      000000D9H   SFRSYM    DATA     BYTE      PCA0MD
      000000DAH   SFRSYM    DATA     BYTE      PCA0CPM0
      000000E9H   SFRSYM    DATA     BYTE      PCA0CPL1
      000000F0H.4 SFRSYM    DATA     BIT       B_B4
      000000DBH   SFRSYM    DATA     BYTE      PCA0CPM1
      000000EBH   SFRSYM    DATA     BYTE      PCA0CPL2
      000000F0H.5 SFRSYM    DATA     BIT       B_B5
      000000DCH   SFRSYM    DATA     BYTE      PCA0CPM2
      000000EDH   SFRSYM    DATA     BYTE      PCA0CPL3
      000000B8H   SFRSYM    DATA     BYTE      IP
      000000F0H.6 SFRSYM    DATA     BIT       B_B6
      000000C5H   SFRSYM    DATA     WORD      ADC0LT
      000000DDH   SFRSYM    DATA     BYTE      PCA0CPM3
      000000FDH   SFRSYM    DATA     BYTE      PCA0CPL4
      00000098H.5 SFRSYM    DATA     BIT       SCON0_MCE
      000000F0H.7 SFRSYM    DATA     BIT       B_B7
      000000DEH   SFRSYM    DATA     BYTE      PCA0CPM4
      000000E1H   SFRSYM    DATA     BYTE      XBR0
      000000C1H   SFRSYM    DATA     BYTE      SMB0CF
      000000E2H   SFRSYM    DATA     BYTE      XBR1
      000000C1H   SFRSYM    DATA     BYTE      SMB1CF
      000000AFH   SFRSYM    DATA     BYTE      PFE0CN
      000000AAH   SFRSYM    DATA     BYTE      EMI0CN
      000000C0H.5 SFRSYM    DATA     BIT       SMB0CN0_STA
      000000E3H   SFRSYM    DATA     BYTE      XBR2
      000000C0H.5 SFRSYM    DATA     BIT       SMB1CN0_STA
      000000E0H   SFRSYM    DATA     BIT       ACC_ACC0
      000000D1H   SFRSYM    DATA     BYTE      REF0CN
      000000B2H   SFRSYM    DATA     BYTE      HFO0CN
      0000008EH   SFRSYM    DATA     BYTE      CKCON0
      000000E0H.1 SFRSYM    DATA     BIT       ACC_ACC1
      000000E4H   SFRSYM    DATA     BYTE      CKCON1
      000000C8H.2 SFRSYM    DATA     BIT       TMR2CN0_TR2
      000000E0H.2 SFRSYM    DATA     BIT       ACC_ACC2
      000000E0H.3 SFRSYM    DATA     BIT       ACC_ACC3
      00000081H   SFRSYM    DATA     BYTE      SP
      0000009DH   SFRSYM    DATA     BYTE      CMP0MD
      000000E0H.4 SFRSYM    DATA     BIT       ACC_ACC4
      00000086H   SFRSYM    DATA     BYTE      LFO0CN
      00000084H   SFRSYM    DATA     BYTE      EMI0TC
      0000009CH   SFRSYM    DATA     BYTE      CMP1MD
      000000D8H   SFRSYM    DATA     BIT       PCA0CN0_CCF0
      000000E0H.5 SFRSYM    DATA     BIT       ACC_ACC5
      000000D8H.1 SFRSYM    DATA     BIT       PCA0CN0_CCF1
      000000E0H.6 SFRSYM    DATA     BIT       ACC_ACC6
      000000CCH   SFRSYM    DATA     WORD      TMR2
      000000D8H.2 SFRSYM    DATA     BIT       PCA0CN0_CCF2
      000000E0H.7 SFRSYM    DATA     BIT       ACC_ACC7
      00000094H   SFRSYM    DATA     WORD      TMR3
LX51 LINKER/LOCATER V4.66.66.0                                                        03/09/2017  11:29:19  PAGE 110


      000000C8H.2 SFRSYM    DATA     BIT       TMR5CN0_TR5
      000000D8H.3 SFRSYM    DATA     BIT       PCA0CN0_CCF3
      00000094H   SFRSYM    DATA     WORD      TMR4
      000000ACH   SFRSYM    DATA     BYTE      SBCON1
      000000D8H.4 SFRSYM    DATA     BIT       PCA0CN0_CCF4
      000000CCH   SFRSYM    DATA     WORD      TMR5
      000000C0H.3 SFRSYM    DATA     BIT       SMB0CN0_ACKRQ
      000000FFH   SFRSYM    DATA     BYTE      VDM0CN
      000000F1H   SFRSYM    DATA     BYTE      P0MDIN
      000000C0H.3 SFRSYM    DATA     BIT       SMB1CN0_ACKRQ
      00000098H.4 SFRSYM    DATA     BIT       SCON0_REN
      000000F2H   SFRSYM    DATA     BYTE      P1MDIN
      000000F3H   SFRSYM    DATA     BYTE      P2MDIN
      000000C0H.4 SFRSYM    DATA     BIT       SMB0CN0_STO
      000000F4H   SFRSYM    DATA     BYTE      P3MDIN
      00000090H.3 SFRSYM    DATA     BIT       LCD_RST
      000000C0H.4 SFRSYM    DATA     BIT       SMB1CN0_STO
      000000B5H   SFRSYM    DATA     BYTE      SBRLH1
      000000F5H   SFRSYM    DATA     BYTE      P4MDIN
      000000D0H.3 SFRSYM    DATA     BIT       PSW_RS0
      000000D8H.7 SFRSYM    DATA     BIT       PCA0CN0_CF
      000000F8H.4 SFRSYM    DATA     BIT       SPI0CN0_RXOVRN
      000000D0H.4 SFRSYM    DATA     BIT       PSW_RS1
      000000B4H   SFRSYM    DATA     BYTE      SBRLL1
      000000E8H.7 SFRSYM    DATA     BIT       ADC0CN0_ADEN
      00000089H   SFRSYM    DATA     BYTE      TMOD
      00000088H   SFRSYM    DATA     BYTE      TCON
      000000D0H   SFRSYM    DATA     BIT       PSW_PARITY
      000000A8H.4 SFRSYM    DATA     BIT       IE_ES0
      0000009FH   SFRSYM    DATA     BYTE      CMP0MX
      000000A8H.1 SFRSYM    DATA     BIT       IE_ET0
      0000009EH   SFRSYM    DATA     BYTE      CMP1MX
      000000A8H.3 SFRSYM    DATA     BIT       IE_ET1
      000000D4H   SFRSYM    DATA     BYTE      P0SKIP
      000000C8H.1 SFRSYM    DATA     BIT       TMR2CN0_T2CSS
      000000A8H.5 SFRSYM    DATA     BIT       IE_ET2
      000000D5H   SFRSYM    DATA     BYTE      P1SKIP
      000000D6H   SFRSYM    DATA     BYTE      P2SKIP
      000000E8H   SFRSYM    DATA     BYTE      ADC0CN0
      000000A8H   SFRSYM    DATA     BIT       IE_EX0
      000000DFH   SFRSYM    DATA     BYTE      P3SKIP
      000000D8H.6 SFRSYM    DATA     BIT       PCA0CN0_CR
      000000A8H.2 SFRSYM    DATA     BIT       IE_EX1
      00000098H.7 SFRSYM    DATA     BIT       SCON0_SMODE
      000000A9H   SFRSYM    DATA     BYTE      CLKSEL
      000000F8H   SFRSYM    DATA     BIT       SPI0CN0_SPIEN
      000000F0H   SFRSYM    DATA     BYTE      B
      000000BEH   SFRSYM    DATA     BYTE      ADC0H
      000000E8H.6 SFRSYM    DATA     BIT       ADC0CN0_ADTM
      000000CAH   SFRSYM    DATA     WORD      TMR2RL
      000000BDH   SFRSYM    DATA     BYTE      ADC0L
      00000092H   SFRSYM    DATA     WORD      TMR3RL
      00000092H   SFRSYM    DATA     WORD      TMR4RL
      000000D8H   SFRSYM    DATA     BYTE      PCA0CN0
      000000E0H   SFRSYM    DATA     BYTE      ACC
      000000CAH   SFRSYM    DATA     WORD      TMR5RL
      000000FBH   SFRSYM    DATA     WORD      PCA0CP0
      00000080H.6 SFRSYM    DATA     BIT       LCD_CS
      000000E9H   SFRSYM    DATA     WORD      PCA0CP1
      000000EBH   SFRSYM    DATA     WORD      PCA0CP2
      000000EDH   SFRSYM    DATA     WORD      PCA0CP3
      0000008CH   SFRSYM    DATA     BYTE      TH0
      000000B8H.4 SFRSYM    DATA     BIT       IP_PS0
      000000FDH   SFRSYM    DATA     WORD      PCA0CP4
      0000008DH   SFRSYM    DATA     BYTE      TH1
LX51 LINKER/LOCATER V4.66.66.0                                                        03/09/2017  11:29:19  PAGE 111


      000000FAH   SFRSYM    DATA     BYTE      PCA0H
      000000B8H.1 SFRSYM    DATA     BIT       IP_PT0
      000000B8H.3 SFRSYM    DATA     BIT       IP_PT1
      000000C0H.2 SFRSYM    DATA     BIT       SMB0CN0_ARBLOST
      000000B8H.5 SFRSYM    DATA     BIT       IP_PT2
      0000008AH   SFRSYM    DATA     BYTE      TL0
      000000F8H.1 SFRSYM    DATA     BIT       SPI0CN0_TXBMT
      000000C0H.2 SFRSYM    DATA     BIT       SMB1CN0_ARBLOST
      000000D0H.5 SFRSYM    DATA     BIT       PSW_F0
      000000A8H.6 SFRSYM    DATA     BIT       IE_ESPI0
      0000008BH   SFRSYM    DATA     BYTE      TL1
      000000F9H   SFRSYM    DATA     BYTE      PCA0L
      000000C0H   SFRSYM    DATA     BIT       SMB0CN0_SI
      000000D0H.1 SFRSYM    DATA     BIT       PSW_F1
      00000080H   SFRSYM    DATA     BIT       P0_B0
      000000B8H   SFRSYM    DATA     BIT       IP_PX0
      000000C9H   SFRSYM    DATA     BYTE      REG01CN
      000000C0H   SFRSYM    DATA     BIT       SMB1CN0_SI
      00000090H   SFRSYM    DATA     BIT       P1_B0
      00000080H.1 SFRSYM    DATA     BIT       P0_B1
      000000B8H.2 SFRSYM    DATA     BIT       IP_PX1
      0000009BH   SFRSYM    DATA     BYTE      CMP0CN0
      00000088H.1 SFRSYM    DATA     BIT       TCON_IE0
      000000A0H   SFRSYM    DATA     BIT       P2_B0
      00000090H.1 SFRSYM    DATA     BIT       P1_B1
      00000080H.2 SFRSYM    DATA     BIT       P0_B2
      0000009AH   SFRSYM    DATA     BYTE      CMP1CN0
      00000088H.3 SFRSYM    DATA     BIT       TCON_IE1
      000000B0H   SFRSYM    DATA     BIT       P3_B0
      000000A0H.1 SFRSYM    DATA     BIT       P2_B1
      00000090H.2 SFRSYM    DATA     BIT       P1_B2
      00000080H.3 SFRSYM    DATA     BIT       P0_B3
      000000C0H   SFRSYM    DATA     BYTE      SMB0CN0
      000000B0H.1 SFRSYM    DATA     BIT       P3_B1
      000000A0H.2 SFRSYM    DATA     BIT       P2_B2
      00000090H.3 SFRSYM    DATA     BIT       P1_B3
      00000080H.4 SFRSYM    DATA     BIT       P0_B4
      000000C0H   SFRSYM    DATA     BYTE      SMB1CN0
      000000B0H.2 SFRSYM    DATA     BIT       P3_B2
      000000A0H.3 SFRSYM    DATA     BIT       P2_B3
      00000090H.4 SFRSYM    DATA     BIT       P1_B4
      00000080H.5 SFRSYM    DATA     BIT       P0_B5
      000000B0H.3 SFRSYM    DATA     BIT       P3_B3
      000000A0H.4 SFRSYM    DATA     BIT       P2_B4
      00000090H.5 SFRSYM    DATA     BIT       P1_B5
      00000080H.6 SFRSYM    DATA     BIT       P0_B6
      00000080H.2 SFRSYM    DATA     BIT       LCD_RS
      000000B0H.4 SFRSYM    DATA     BIT       P3_B4
      000000A0H.5 SFRSYM    DATA     BIT       P2_B5
      00000090H.6 SFRSYM    DATA     BIT       P1_B6
      00000080H.7 SFRSYM    DATA     BIT       P0_B7
      000000B0H.5 SFRSYM    DATA     BIT       P3_B5
      000000A0H.6 SFRSYM    DATA     BIT       P2_B6
      00000090H.7 SFRSYM    DATA     BIT       P1_B7
      000000B0H.6 SFRSYM    DATA     BIT       P3_B6
      000000A0H.7 SFRSYM    DATA     BIT       P2_B7
      000000B0H.7 SFRSYM    DATA     BIT       P3_B7
      00000083H   SFRSYM    DATA     BYTE      DPH
      000000C4H   SFRSYM    DATA     BYTE      ADC0GTH
      000000C8H.7 SFRSYM    DATA     BIT       TMR2CN0_TF2H
      000000C8H.3 SFRSYM    DATA     BIT       TMR2CN0_T2SPLIT
      000000D0H.6 SFRSYM    DATA     BIT       PSW_AC
      000000F8H   SFRSYM    DATA     BYTE      SPI0CN0
      000000B3H   SFRSYM    DATA     BYTE      HFO0CAL
      00000080H   SFRSYM    DATA     BIT       BtnEntGpio
LX51 LINKER/LOCATER V4.66.66.0                                                        03/09/2017  11:29:19  PAGE 112


      00000088H.5 SFRSYM    DATA     BIT       TCON_TF0
      00000098H   SFRSYM    DATA     BIT       SCON0_RI
      00000082H   SFRSYM    DATA     BYTE      DPL
      00000088H.7 SFRSYM    DATA     BIT       TCON_TF1
      00000099H   SFRSYM    DATA     BYTE      SBUF0
      00000087H   SFRSYM    DATA     BYTE      PCON0
      000000C3H   SFRSYM    DATA     BYTE      ADC0GTL
      000000C8H.6 SFRSYM    DATA     BIT       TMR2CN0_TF2L
      00000098H.1 SFRSYM    DATA     BIT       SCON0_TI
      000000E8H   SFRSYM    DATA     BIT       ADC0CN0_ADCM0
      000000D3H   SFRSYM    DATA     BYTE      SBUF1
      000000C6H   SFRSYM    DATA     BYTE      ADC0LTH
      00000088H   SFRSYM    DATA     BIT       TCON_IT0
      000000E8H.1 SFRSYM    DATA     BIT       ADC0CN0_ADCM1
      000000EFH   SFRSYM    DATA     BYTE      RSTSRC
      000000C8H.7 SFRSYM    DATA     BIT       TMR5CN0_TF5H
      000000C8H.3 SFRSYM    DATA     BIT       TMR5CN0_T5SPLIT
      00000088H.2 SFRSYM    DATA     BIT       TCON_IT1
      000000E8H.2 SFRSYM    DATA     BIT       ADC0CN0_ADCM2
      00000098H   SFRSYM    DATA     BYTE      SCON0
      000000E8H.3 SFRSYM    DATA     BIT       ADC0CN0_ADWINT
      000000B4H   SFRSYM    DATA     WORD      SBRL1
      000000E5H   SFRSYM    DATA     BYTE      SMOD1
      000000D2H   SFRSYM    DATA     BYTE      SCON1
      000000BAH   SFRSYM    DATA     BYTE      AMX0N
      000000E8H.4 SFRSYM    DATA     BIT       ADC0CN0_ADBUSY
      000000CEH   SFRSYM    DATA     BYTE      SMB0ADM
      000000C5H   SFRSYM    DATA     BYTE      ADC0LTL
      000000F8H.5 SFRSYM    DATA     BIT       SPI0CN0_MODF
      000000B8H.6 SFRSYM    DATA     BIT       IP_PSPI0
      000000CEH   SFRSYM    DATA     BYTE      SMB1ADM
      000000BBH   SFRSYM    DATA     BYTE      AMX0P
      000000C8H.6 SFRSYM    DATA     BIT       TMR5CN0_TF5L
      000000C8H   SFRSYM    DATA     BYTE      TMR2CN0
      00000091H   SFRSYM    DATA     BYTE      TMR3CN0
      00000080H.1 SFRSYM    DATA     BIT       BtnExtGpio
      00000091H   SFRSYM    DATA     BYTE      TMR4CN0
      000000C8H   SFRSYM    DATA     BYTE      TMR5CN0
      000000CFH   SFRSYM    DATA     BYTE      SMB0ADR
      00000088H.4 SFRSYM    DATA     BIT       TCON_TR0
      000000CFH   SFRSYM    DATA     BYTE      SMB1ADR
      000000C8H.4 SFRSYM    DATA     BIT       TMR2CN0_TF2CEN
      00000088H.6 SFRSYM    DATA     BIT       TCON_TR1
      000000C2H   SFRSYM    DATA     BYTE      SMB0DAT
      00000080H.4 SFRSYM    DATA     BIT       RC_OUT
      000000CDH   SFRSYM    DATA     BYTE      TMR2H
      000000A1H   SFRSYM    DATA     BYTE      SPI0CFG
      000000C2H   SFRSYM    DATA     BYTE      SMB1DAT
      00000095H   SFRSYM    DATA     BYTE      TMR3H
      00000095H   SFRSYM    DATA     BYTE      TMR4H
      000000CDH   SFRSYM    DATA     BYTE      TMR5H
      000000CCH   SFRSYM    DATA     BYTE      TMR2L
      00000090H.5 SFRSYM    DATA     BIT       BtnDwGpio
      000000F8H.7 SFRSYM    DATA     BIT       SPI0CN0_SPIF
      00000096H   SFRSYM    DATA     BYTE      USB0ADR
      00000094H   SFRSYM    DATA     BYTE      TMR3L
      000000A8H.7 SFRSYM    DATA     BIT       IE_EA
      00000094H   SFRSYM    DATA     BYTE      TMR4L
      00000097H   SFRSYM    DATA     BYTE      USB0DAT
      000000CCH   SFRSYM    DATA     BYTE      TMR5L
      000000B6H   SFRSYM    DATA     BYTE      FLSCL
      000000C8H.5 SFRSYM    DATA     BIT       TMR2CN0_TF2LEN
      000000F8H.6 SFRSYM    DATA     BIT       SPI0CN0_WCOL
      000000F8H.2 SFRSYM    DATA     BIT       SPI0CN0_NSSMD0
      000000D0H.7 SFRSYM    DATA     BIT       PSW_CY
LX51 LINKER/LOCATER V4.66.66.0                                                        03/09/2017  11:29:19  PAGE 113


      000000A3H   SFRSYM    DATA     BYTE      SPI0DAT
      000000F8H.3 SFRSYM    DATA     BIT       SPI0CN0_NSSMD1
      000000BDH   SFRSYM    DATA     WORD      ADC0
      000000B9H   SFRSYM    DATA     BYTE      SMBTC
      000000D0H   SFRSYM    DATA     BYTE      PSW
      000000C8H.5 SFRSYM    DATA     BIT       TMR5CN0_TF5LEN
      000000B7H   SFRSYM    DATA     BYTE      FLKEY
      00000090H.4 SFRSYM    DATA     BIT       BtnUpGpio

      010048A9H   BLOCK     CODE     ---       LVL=0
      010048A9H   LINE      CODE     ---       #25
      010048A9H   LINE      CODE     ---       #26
      010048E3H   LINE      CODE     ---       #27
      0100491DH   LINE      CODE     ---       #29
      01004978H   LINE      CODE     ---       #30
      010049B2H   LINE      CODE     ---       #32
      01004A0DH   LINE      CODE     ---       #33
      01004A47H   LINE      CODE     ---       #34
      ---         BLOCKEND  ---      ---       LVL=0

      01006EA0H   BLOCK     CODE     ---       LVL=0
      02000A00H   SYMBOL    XDATA    BYTE      event
      01006EA0H   LINE      CODE     ---       #36
      01006EA5H   LINE      CODE     ---       #37
      01006EAFH   LINE      CODE     ---       #38
      01006EB4H   LINE      CODE     ---       #39
      01006EBCH   LINE      CODE     ---       #40
      01006ECBH   LINE      CODE     ---       #41
      01006ED1H   LINE      CODE     ---       #42
      01006ED1H   LINE      CODE     ---       #43
      01006EE0H   LINE      CODE     ---       #44
      01006EE6H   LINE      CODE     ---       #45
      01006EE9H   LINE      CODE     ---       #46
      01006EE9H   LINE      CODE     ---       #48
      01006EECH   LINE      CODE     ---       #49
      01006F12H   LINE      CODE     ---       #51
      01006F1AH   LINE      CODE     ---       #52
      01006F1FH   LINE      CODE     ---       #53
      01006F1FH   LINE      CODE     ---       #54
      01006F21H   LINE      CODE     ---       #55
      ---         BLOCKEND  ---      ---       LVL=0

      01006045H   BLOCK     CODE     ---       LVL=0
      02000A01H   SYMBOL    XDATA    BYTE      event
      01006045H   LINE      CODE     ---       #57
      0100604AH   LINE      CODE     ---       #58
      01006054H   LINE      CODE     ---       #59
      01006059H   LINE      CODE     ---       #60
      0100606AH   LINE      CODE     ---       #61
      0100607BH   LINE      CODE     ---       #62
      0100608CH   LINE      CODE     ---       #63
      0100608FH   LINE      CODE     ---       #64
      0100608FH   LINE      CODE     ---       #66
      0100609AH   LINE      CODE     ---       #67
      010060B5H   LINE      CODE     ---       #68
      010060D0H   LINE      CODE     ---       #69
      010060EBH   LINE      CODE     ---       #70
      01006106H   LINE      CODE     ---       #71
      01006121H   LINE      CODE     ---       #72
      01006126H   LINE      CODE     ---       #73
      01006126H   LINE      CODE     ---       #74
      0100612EH   LINE      CODE     ---       #75
      01006133H   LINE      CODE     ---       #76
      01006133H   LINE      CODE     ---       #77
      01006135H   LINE      CODE     ---       #78
LX51 LINKER/LOCATER V4.66.66.0                                                        03/09/2017  11:29:19  PAGE 114


      ---         BLOCKEND  ---      ---       LVL=0

      01006136H   BLOCK     CODE     ---       LVL=0
      02000A02H   SYMBOL    XDATA    BYTE      event
      01006136H   LINE      CODE     ---       #79
      0100613BH   LINE      CODE     ---       #80
      01006145H   LINE      CODE     ---       #81
      0100614AH   LINE      CODE     ---       #82
      0100615BH   LINE      CODE     ---       #83
      0100616CH   LINE      CODE     ---       #84
      0100617DH   LINE      CODE     ---       #85
      01006180H   LINE      CODE     ---       #86
      01006180H   LINE      CODE     ---       #88
      0100618BH   LINE      CODE     ---       #89
      010061A6H   LINE      CODE     ---       #90
      010061C1H   LINE      CODE     ---       #91
      010061DCH   LINE      CODE     ---       #92
      010061F4H   LINE      CODE     ---       #93
      0100620CH   LINE      CODE     ---       #94
      01006211H   LINE      CODE     ---       #95
      01006211H   LINE      CODE     ---       #96
      01006219H   LINE      CODE     ---       #97
      0100621EH   LINE      CODE     ---       #98
      0100621EH   LINE      CODE     ---       #99
      01006220H   LINE      CODE     ---       #100
      ---         BLOCKEND  ---      ---       LVL=0

      01006A33H   BLOCK     CODE     ---       LVL=0
      02000A03H   SYMBOL    XDATA    BYTE      event
      01006A33H   LINE      CODE     ---       #102
      01006A38H   LINE      CODE     ---       #103
      01006A42H   LINE      CODE     ---       #104
      01006A47H   LINE      CODE     ---       #105
      01006A58H   LINE      CODE     ---       #106
      01006A69H   LINE      CODE     ---       #107
      01006A7AH   LINE      CODE     ---       #108
      01006A7DH   LINE      CODE     ---       #109
      01006A7DH   LINE      CODE     ---       #111
      01006A85H   LINE      CODE     ---       #112
      01006AA0H   LINE      CODE     ---       #113
      01006ABBH   LINE      CODE     ---       #114
      01006AC0H   LINE      CODE     ---       #115
      01006AC0H   LINE      CODE     ---       #116
      01006AC8H   LINE      CODE     ---       #117
      01006ACDH   LINE      CODE     ---       #118
      01006ACDH   LINE      CODE     ---       #119
      01006ACFH   LINE      CODE     ---       #120
      ---         BLOCKEND  ---      ---       LVL=0

      01006221H   BLOCK     CODE     ---       LVL=0
      02000A04H   SYMBOL    XDATA    BYTE      event
      01006221H   LINE      CODE     ---       #121
      01006226H   LINE      CODE     ---       #122
      01006233H   LINE      CODE     ---       #123
      01006259H   LINE      CODE     ---       #124
      0100627FH   LINE      CODE     ---       #125
      010062B5H   LINE      CODE     ---       #127
      010062BAH   LINE      CODE     ---       #128
      010062CBH   LINE      CODE     ---       #129
      010062DCH   LINE      CODE     ---       #130
      010062EDH   LINE      CODE     ---       #131
      010062F0H   LINE      CODE     ---       #132
      010062F0H   LINE      CODE     ---       #134
      01006300H   LINE      CODE     ---       #135
      01006305H   LINE      CODE     ---       #136
LX51 LINKER/LOCATER V4.66.66.0                                                        03/09/2017  11:29:19  PAGE 115


      01006305H   LINE      CODE     ---       #137
      01006307H   LINE      CODE     ---       #138
      ---         BLOCKEND  ---      ---       LVL=0

      ---         MODULE    ---      ---       PAGEESC1TH
      020005A8H   PUBLIC    XDATA    ---       ShowText1thActiveFw
      02000594H   PUBLIC    XDATA    ---       ShowText1thRotateDirection
      0200058EH   PUBLIC    XDATA    ---       Esc1thMs
      0200057AH   PUBLIC    XDATA    ---       ShowText1thArReStartTime
      02000566H   PUBLIC    XDATA    ---       ShowText1thBrakeType
      02000552H   PUBLIC    XDATA    ---       ShowText1thAirBecVoltage
      0200053EH   PUBLIC    XDATA    ---       ShowText1thGovParamP
      0200052AH   PUBLIC    XDATA    ---       ShowText1thGovParamI
      02000516H   PUBLIC    XDATA    ---       ShowText1thTiming
      02000502H   PUBLIC    XDATA    ---       ShowText1thFlightMode
      020004EEH   PUBLIC    XDATA    ---       ShowText1thStartUpTime
      020004DAH   PUBLIC    XDATA    ---       ShowText1thBrakeForce
      020004C6H   PUBLIC    XDATA    ---       ShowText1thCutType
      020004B2H   PUBLIC    XDATA    ---       ShowText1thArTime
      0200049EH   PUBLIC    XDATA    ---       ShowText1thAirLipoCells
      0200048AH   PUBLIC    XDATA    ---       ShowText1thAirCutVoltage
      010083EFH   PUBLIC    CONST    ---       MenuItemEsc1th
      01000D58H   PUBLIC    CODE     ---       Esc1thDatProccess
      01005A3AH   PUBLIC    CODE     ---       _PageEsc1th
      000000A2H   SFRSYM    DATA     BYTE      SPI0CKR
      00000080H   SFRSYM    DATA     BYTE      P0
      000000D0H.2 SFRSYM    DATA     BIT       PSW_OV
      000000B1H   SFRSYM    DATA     BYTE      XOSC0CN
      00000090H   SFRSYM    DATA     BYTE      P1
      000000A0H   SFRSYM    DATA     BYTE      P2
      000000B0H   SFRSYM    DATA     BYTE      P3
      000000BCH   SFRSYM    DATA     BYTE      ADC0CF
      000000C8H   SFRSYM    DATA     BIT       TMR2CN0_T2XCLK
      000000C7H   SFRSYM    DATA     BYTE      P4
      000000C0H.7 SFRSYM    DATA     BIT       SMB0CN0_MASTER
      000000F9H   SFRSYM    DATA     WORD      PCA0
      000000E6H   SFRSYM    DATA     BYTE      EIE1
      000000C0H.7 SFRSYM    DATA     BIT       SMB1CN0_MASTER
      000000C0H.1 SFRSYM    DATA     BIT       SMB0CN0_ACK
      000000D7H   SFRSYM    DATA     BYTE      USB0XCN
      000000E7H   SFRSYM    DATA     BYTE      EIE2
      000000C0H.1 SFRSYM    DATA     BIT       SMB1CN0_ACK
      0000008FH   SFRSYM    DATA     BYTE      PSCTL
      000000E4H   SFRSYM    DATA     BYTE      IT01CF
      000000C8H   SFRSYM    DATA     BIT       TMR5CN0_T5XCLK
      000000C0H.6 SFRSYM    DATA     BIT       SMB0CN0_TXMODE
      000000C0H.6 SFRSYM    DATA     BIT       SMB1CN0_TXMODE
      000000BFH   SFRSYM    DATA     BYTE      SFRPAGE
      000000A4H   SFRSYM    DATA     BYTE      P0MDOUT
      00000080H.5 SFRSYM    DATA     BIT       LCD_SDA
      000000A5H   SFRSYM    DATA     BYTE      P1MDOUT
      000000E8H.5 SFRSYM    DATA     BIT       ADC0CN0_ADINT
      000000CBH   SFRSYM    DATA     BYTE      TMR2RLH
      000000A6H   SFRSYM    DATA     BYTE      P2MDOUT
      000000A8H   SFRSYM    DATA     BYTE      IE
      00000093H   SFRSYM    DATA     BYTE      TMR3RLH
      000000A7H   SFRSYM    DATA     BYTE      P3MDOUT
      00000093H   SFRSYM    DATA     BYTE      TMR4RLH
      000000AEH   SFRSYM    DATA     BYTE      P4MDOUT
      000000F6H   SFRSYM    DATA     BYTE      EIP1
      000000CBH   SFRSYM    DATA     BYTE      TMR5RLH
      000000F7H   SFRSYM    DATA     BYTE      EIP2
      00000098H.2 SFRSYM    DATA     BIT       SCON0_RB8
      000000CAH   SFRSYM    DATA     BYTE      TMR2RLL
      000000FCH   SFRSYM    DATA     BYTE      PCA0CPH0
LX51 LINKER/LOCATER V4.66.66.0                                                        03/09/2017  11:29:19  PAGE 116


      00000092H   SFRSYM    DATA     BYTE      TMR3RLL
      000000EAH   SFRSYM    DATA     BYTE      PCA0CPH1
      00000098H.3 SFRSYM    DATA     BIT       SCON0_TB8
      000000F0H   SFRSYM    DATA     BIT       B_B0
      00000082H   SFRSYM    DATA     WORD      DP
      00000092H   SFRSYM    DATA     BYTE      TMR4RLL
      000000ECH   SFRSYM    DATA     BYTE      PCA0CPH2
      000000F0H.1 SFRSYM    DATA     BIT       B_B1
      000000C3H   SFRSYM    DATA     WORD      ADC0GT
      000000CAH   SFRSYM    DATA     BYTE      TMR5RLL
      000000EEH   SFRSYM    DATA     BYTE      PCA0CPH3
      00000080H.3 SFRSYM    DATA     BIT       LCD_SCK
      000000F0H.2 SFRSYM    DATA     BIT       B_B2
      000000FBH   SFRSYM    DATA     BYTE      PCA0CPL0
      000000FEH   SFRSYM    DATA     BYTE      PCA0CPH4
      00000085H   SFRSYM    DATA     BYTE      EMI0CF
      000000F0H.3 SFRSYM    DATA     BIT       B_B3
      000000D9H   SFRSYM    DATA     BYTE      PCA0MD
      000000DAH   SFRSYM    DATA     BYTE      PCA0CPM0
      000000E9H   SFRSYM    DATA     BYTE      PCA0CPL1
      000000F0H.4 SFRSYM    DATA     BIT       B_B4
      000000DBH   SFRSYM    DATA     BYTE      PCA0CPM1
      000000EBH   SFRSYM    DATA     BYTE      PCA0CPL2
      000000F0H.5 SFRSYM    DATA     BIT       B_B5
      000000DCH   SFRSYM    DATA     BYTE      PCA0CPM2
      000000EDH   SFRSYM    DATA     BYTE      PCA0CPL3
      000000B8H   SFRSYM    DATA     BYTE      IP
      000000F0H.6 SFRSYM    DATA     BIT       B_B6
      000000C5H   SFRSYM    DATA     WORD      ADC0LT
      000000DDH   SFRSYM    DATA     BYTE      PCA0CPM3
      000000FDH   SFRSYM    DATA     BYTE      PCA0CPL4
      00000098H.5 SFRSYM    DATA     BIT       SCON0_MCE
      000000F0H.7 SFRSYM    DATA     BIT       B_B7
      000000DEH   SFRSYM    DATA     BYTE      PCA0CPM4
      000000E1H   SFRSYM    DATA     BYTE      XBR0
      000000C1H   SFRSYM    DATA     BYTE      SMB0CF
      000000E2H   SFRSYM    DATA     BYTE      XBR1
      000000C1H   SFRSYM    DATA     BYTE      SMB1CF
      000000AFH   SFRSYM    DATA     BYTE      PFE0CN
      000000AAH   SFRSYM    DATA     BYTE      EMI0CN
      000000C0H.5 SFRSYM    DATA     BIT       SMB0CN0_STA
      000000E3H   SFRSYM    DATA     BYTE      XBR2
      000000C0H.5 SFRSYM    DATA     BIT       SMB1CN0_STA
      000000E0H   SFRSYM    DATA     BIT       ACC_ACC0
      000000D1H   SFRSYM    DATA     BYTE      REF0CN
      000000B2H   SFRSYM    DATA     BYTE      HFO0CN
      0000008EH   SFRSYM    DATA     BYTE      CKCON0
      000000E0H.1 SFRSYM    DATA     BIT       ACC_ACC1
      000000E4H   SFRSYM    DATA     BYTE      CKCON1
      000000C8H.2 SFRSYM    DATA     BIT       TMR2CN0_TR2
      000000E0H.2 SFRSYM    DATA     BIT       ACC_ACC2
      000000E0H.3 SFRSYM    DATA     BIT       ACC_ACC3
      00000081H   SFRSYM    DATA     BYTE      SP
      0000009DH   SFRSYM    DATA     BYTE      CMP0MD
      000000E0H.4 SFRSYM    DATA     BIT       ACC_ACC4
      00000086H   SFRSYM    DATA     BYTE      LFO0CN
      00000084H   SFRSYM    DATA     BYTE      EMI0TC
      0000009CH   SFRSYM    DATA     BYTE      CMP1MD
      000000D8H   SFRSYM    DATA     BIT       PCA0CN0_CCF0
      000000E0H.5 SFRSYM    DATA     BIT       ACC_ACC5
      000000D8H.1 SFRSYM    DATA     BIT       PCA0CN0_CCF1
      000000E0H.6 SFRSYM    DATA     BIT       ACC_ACC6
      000000CCH   SFRSYM    DATA     WORD      TMR2
      000000D8H.2 SFRSYM    DATA     BIT       PCA0CN0_CCF2
      000000E0H.7 SFRSYM    DATA     BIT       ACC_ACC7
LX51 LINKER/LOCATER V4.66.66.0                                                        03/09/2017  11:29:19  PAGE 117


      00000094H   SFRSYM    DATA     WORD      TMR3
      000000C8H.2 SFRSYM    DATA     BIT       TMR5CN0_TR5
      000000D8H.3 SFRSYM    DATA     BIT       PCA0CN0_CCF3
      00000094H   SFRSYM    DATA     WORD      TMR4
      000000ACH   SFRSYM    DATA     BYTE      SBCON1
      000000D8H.4 SFRSYM    DATA     BIT       PCA0CN0_CCF4
      000000CCH   SFRSYM    DATA     WORD      TMR5
      000000C0H.3 SFRSYM    DATA     BIT       SMB0CN0_ACKRQ
      000000FFH   SFRSYM    DATA     BYTE      VDM0CN
      000000F1H   SFRSYM    DATA     BYTE      P0MDIN
      000000C0H.3 SFRSYM    DATA     BIT       SMB1CN0_ACKRQ
      00000098H.4 SFRSYM    DATA     BIT       SCON0_REN
      000000F2H   SFRSYM    DATA     BYTE      P1MDIN
      000000F3H   SFRSYM    DATA     BYTE      P2MDIN
      000000C0H.4 SFRSYM    DATA     BIT       SMB0CN0_STO
      000000F4H   SFRSYM    DATA     BYTE      P3MDIN
      00000090H.3 SFRSYM    DATA     BIT       LCD_RST
      000000C0H.4 SFRSYM    DATA     BIT       SMB1CN0_STO
      000000B5H   SFRSYM    DATA     BYTE      SBRLH1
      000000F5H   SFRSYM    DATA     BYTE      P4MDIN
      000000D0H.3 SFRSYM    DATA     BIT       PSW_RS0
      000000D8H.7 SFRSYM    DATA     BIT       PCA0CN0_CF
      000000F8H.4 SFRSYM    DATA     BIT       SPI0CN0_RXOVRN
      000000D0H.4 SFRSYM    DATA     BIT       PSW_RS1
      000000B4H   SFRSYM    DATA     BYTE      SBRLL1
      000000E8H.7 SFRSYM    DATA     BIT       ADC0CN0_ADEN
      00000089H   SFRSYM    DATA     BYTE      TMOD
      00000088H   SFRSYM    DATA     BYTE      TCON
      000000D0H   SFRSYM    DATA     BIT       PSW_PARITY
      000000A8H.4 SFRSYM    DATA     BIT       IE_ES0
      0000009FH   SFRSYM    DATA     BYTE      CMP0MX
      000000A8H.1 SFRSYM    DATA     BIT       IE_ET0
      0000009EH   SFRSYM    DATA     BYTE      CMP1MX
      000000A8H.3 SFRSYM    DATA     BIT       IE_ET1
      000000D4H   SFRSYM    DATA     BYTE      P0SKIP
      000000C8H.1 SFRSYM    DATA     BIT       TMR2CN0_T2CSS
      000000A8H.5 SFRSYM    DATA     BIT       IE_ET2
      000000D5H   SFRSYM    DATA     BYTE      P1SKIP
      000000D6H   SFRSYM    DATA     BYTE      P2SKIP
      000000E8H   SFRSYM    DATA     BYTE      ADC0CN0
      000000A8H   SFRSYM    DATA     BIT       IE_EX0
      000000DFH   SFRSYM    DATA     BYTE      P3SKIP
      000000D8H.6 SFRSYM    DATA     BIT       PCA0CN0_CR
      000000A8H.2 SFRSYM    DATA     BIT       IE_EX1
      00000098H.7 SFRSYM    DATA     BIT       SCON0_SMODE
      000000A9H   SFRSYM    DATA     BYTE      CLKSEL
      000000F8H   SFRSYM    DATA     BIT       SPI0CN0_SPIEN
      000000F0H   SFRSYM    DATA     BYTE      B
      000000BEH   SFRSYM    DATA     BYTE      ADC0H
      000000E8H.6 SFRSYM    DATA     BIT       ADC0CN0_ADTM
      000000CAH   SFRSYM    DATA     WORD      TMR2RL
      000000BDH   SFRSYM    DATA     BYTE      ADC0L
      00000092H   SFRSYM    DATA     WORD      TMR3RL
      00000092H   SFRSYM    DATA     WORD      TMR4RL
      000000D8H   SFRSYM    DATA     BYTE      PCA0CN0
      000000E0H   SFRSYM    DATA     BYTE      ACC
      000000CAH   SFRSYM    DATA     WORD      TMR5RL
      000000FBH   SFRSYM    DATA     WORD      PCA0CP0
      00000080H.6 SFRSYM    DATA     BIT       LCD_CS
      000000E9H   SFRSYM    DATA     WORD      PCA0CP1
      000000EBH   SFRSYM    DATA     WORD      PCA0CP2
      000000EDH   SFRSYM    DATA     WORD      PCA0CP3
      0000008CH   SFRSYM    DATA     BYTE      TH0
      000000B8H.4 SFRSYM    DATA     BIT       IP_PS0
      000000FDH   SFRSYM    DATA     WORD      PCA0CP4
LX51 LINKER/LOCATER V4.66.66.0                                                        03/09/2017  11:29:19  PAGE 118


      0000008DH   SFRSYM    DATA     BYTE      TH1
      000000FAH   SFRSYM    DATA     BYTE      PCA0H
      000000B8H.1 SFRSYM    DATA     BIT       IP_PT0
      000000B8H.3 SFRSYM    DATA     BIT       IP_PT1
      000000C0H.2 SFRSYM    DATA     BIT       SMB0CN0_ARBLOST
      000000B8H.5 SFRSYM    DATA     BIT       IP_PT2
      0000008AH   SFRSYM    DATA     BYTE      TL0
      000000F8H.1 SFRSYM    DATA     BIT       SPI0CN0_TXBMT
      000000C0H.2 SFRSYM    DATA     BIT       SMB1CN0_ARBLOST
      000000D0H.5 SFRSYM    DATA     BIT       PSW_F0
      000000A8H.6 SFRSYM    DATA     BIT       IE_ESPI0
      0000008BH   SFRSYM    DATA     BYTE      TL1
      000000F9H   SFRSYM    DATA     BYTE      PCA0L
      000000C0H   SFRSYM    DATA     BIT       SMB0CN0_SI
      000000D0H.1 SFRSYM    DATA     BIT       PSW_F1
      00000080H   SFRSYM    DATA     BIT       P0_B0
      000000B8H   SFRSYM    DATA     BIT       IP_PX0
      000000C9H   SFRSYM    DATA     BYTE      REG01CN
      000000C0H   SFRSYM    DATA     BIT       SMB1CN0_SI
      00000090H   SFRSYM    DATA     BIT       P1_B0
      00000080H.1 SFRSYM    DATA     BIT       P0_B1
      000000B8H.2 SFRSYM    DATA     BIT       IP_PX1
      0000009BH   SFRSYM    DATA     BYTE      CMP0CN0
      00000088H.1 SFRSYM    DATA     BIT       TCON_IE0
      000000A0H   SFRSYM    DATA     BIT       P2_B0
      00000090H.1 SFRSYM    DATA     BIT       P1_B1
      00000080H.2 SFRSYM    DATA     BIT       P0_B2
      0000009AH   SFRSYM    DATA     BYTE      CMP1CN0
      00000088H.3 SFRSYM    DATA     BIT       TCON_IE1
      000000B0H   SFRSYM    DATA     BIT       P3_B0
      000000A0H.1 SFRSYM    DATA     BIT       P2_B1
      00000090H.2 SFRSYM    DATA     BIT       P1_B2
      00000080H.3 SFRSYM    DATA     BIT       P0_B3
      000000C0H   SFRSYM    DATA     BYTE      SMB0CN0
      000000B0H.1 SFRSYM    DATA     BIT       P3_B1
      000000A0H.2 SFRSYM    DATA     BIT       P2_B2
      00000090H.3 SFRSYM    DATA     BIT       P1_B3
      00000080H.4 SFRSYM    DATA     BIT       P0_B4
      000000C0H   SFRSYM    DATA     BYTE      SMB1CN0
      000000B0H.2 SFRSYM    DATA     BIT       P3_B2
      000000A0H.3 SFRSYM    DATA     BIT       P2_B3
      00000090H.4 SFRSYM    DATA     BIT       P1_B4
      00000080H.5 SFRSYM    DATA     BIT       P0_B5
      000000B0H.3 SFRSYM    DATA     BIT       P3_B3
      000000A0H.4 SFRSYM    DATA     BIT       P2_B4
      00000090H.5 SFRSYM    DATA     BIT       P1_B5
      00000080H.6 SFRSYM    DATA     BIT       P0_B6
      00000080H.2 SFRSYM    DATA     BIT       LCD_RS
      000000B0H.4 SFRSYM    DATA     BIT       P3_B4
      000000A0H.5 SFRSYM    DATA     BIT       P2_B5
      00000090H.6 SFRSYM    DATA     BIT       P1_B6
      00000080H.7 SFRSYM    DATA     BIT       P0_B7
      000000B0H.5 SFRSYM    DATA     BIT       P3_B5
      000000A0H.6 SFRSYM    DATA     BIT       P2_B6
      00000090H.7 SFRSYM    DATA     BIT       P1_B7
      000000B0H.6 SFRSYM    DATA     BIT       P3_B6
      000000A0H.7 SFRSYM    DATA     BIT       P2_B7
      000000B0H.7 SFRSYM    DATA     BIT       P3_B7
      00000083H   SFRSYM    DATA     BYTE      DPH
      000000C4H   SFRSYM    DATA     BYTE      ADC0GTH
      000000C8H.7 SFRSYM    DATA     BIT       TMR2CN0_TF2H
      000000C8H.3 SFRSYM    DATA     BIT       TMR2CN0_T2SPLIT
      000000D0H.6 SFRSYM    DATA     BIT       PSW_AC
      000000F8H   SFRSYM    DATA     BYTE      SPI0CN0
      000000B3H   SFRSYM    DATA     BYTE      HFO0CAL
LX51 LINKER/LOCATER V4.66.66.0                                                        03/09/2017  11:29:19  PAGE 119


      00000080H   SFRSYM    DATA     BIT       BtnEntGpio
      00000088H.5 SFRSYM    DATA     BIT       TCON_TF0
      00000098H   SFRSYM    DATA     BIT       SCON0_RI
      00000082H   SFRSYM    DATA     BYTE      DPL
      00000088H.7 SFRSYM    DATA     BIT       TCON_TF1
      00000099H   SFRSYM    DATA     BYTE      SBUF0
      00000087H   SFRSYM    DATA     BYTE      PCON0
      000000C3H   SFRSYM    DATA     BYTE      ADC0GTL
      000000C8H.6 SFRSYM    DATA     BIT       TMR2CN0_TF2L
      00000098H.1 SFRSYM    DATA     BIT       SCON0_TI
      000000E8H   SFRSYM    DATA     BIT       ADC0CN0_ADCM0
      000000D3H   SFRSYM    DATA     BYTE      SBUF1
      000000C6H   SFRSYM    DATA     BYTE      ADC0LTH
      00000088H   SFRSYM    DATA     BIT       TCON_IT0
      000000E8H.1 SFRSYM    DATA     BIT       ADC0CN0_ADCM1
      000000EFH   SFRSYM    DATA     BYTE      RSTSRC
      000000C8H.7 SFRSYM    DATA     BIT       TMR5CN0_TF5H
      000000C8H.3 SFRSYM    DATA     BIT       TMR5CN0_T5SPLIT
      00000088H.2 SFRSYM    DATA     BIT       TCON_IT1
      000000E8H.2 SFRSYM    DATA     BIT       ADC0CN0_ADCM2
      00000098H   SFRSYM    DATA     BYTE      SCON0
      000000E8H.3 SFRSYM    DATA     BIT       ADC0CN0_ADWINT
      000000B4H   SFRSYM    DATA     WORD      SBRL1
      000000E5H   SFRSYM    DATA     BYTE      SMOD1
      000000D2H   SFRSYM    DATA     BYTE      SCON1
      000000BAH   SFRSYM    DATA     BYTE      AMX0N
      000000E8H.4 SFRSYM    DATA     BIT       ADC0CN0_ADBUSY
      000000CEH   SFRSYM    DATA     BYTE      SMB0ADM
      000000C5H   SFRSYM    DATA     BYTE      ADC0LTL
      000000F8H.5 SFRSYM    DATA     BIT       SPI0CN0_MODF
      000000B8H.6 SFRSYM    DATA     BIT       IP_PSPI0
      000000CEH   SFRSYM    DATA     BYTE      SMB1ADM
      000000BBH   SFRSYM    DATA     BYTE      AMX0P
      000000C8H.6 SFRSYM    DATA     BIT       TMR5CN0_TF5L
      000000C8H   SFRSYM    DATA     BYTE      TMR2CN0
      00000091H   SFRSYM    DATA     BYTE      TMR3CN0
      00000080H.1 SFRSYM    DATA     BIT       BtnExtGpio
      00000091H   SFRSYM    DATA     BYTE      TMR4CN0
      000000C8H   SFRSYM    DATA     BYTE      TMR5CN0
      000000CFH   SFRSYM    DATA     BYTE      SMB0ADR
      00000088H.4 SFRSYM    DATA     BIT       TCON_TR0
      000000CFH   SFRSYM    DATA     BYTE      SMB1ADR
      000000C8H.4 SFRSYM    DATA     BIT       TMR2CN0_TF2CEN
      00000088H.6 SFRSYM    DATA     BIT       TCON_TR1
      000000C2H   SFRSYM    DATA     BYTE      SMB0DAT
      00000080H.4 SFRSYM    DATA     BIT       RC_OUT
      000000CDH   SFRSYM    DATA     BYTE      TMR2H
      000000A1H   SFRSYM    DATA     BYTE      SPI0CFG
      000000C2H   SFRSYM    DATA     BYTE      SMB1DAT
      00000095H   SFRSYM    DATA     BYTE      TMR3H
      00000095H   SFRSYM    DATA     BYTE      TMR4H
      000000CDH   SFRSYM    DATA     BYTE      TMR5H
      000000CCH   SFRSYM    DATA     BYTE      TMR2L
      00000090H.5 SFRSYM    DATA     BIT       BtnDwGpio
      000000F8H.7 SFRSYM    DATA     BIT       SPI0CN0_SPIF
      00000096H   SFRSYM    DATA     BYTE      USB0ADR
      00000094H   SFRSYM    DATA     BYTE      TMR3L
      000000A8H.7 SFRSYM    DATA     BIT       IE_EA
      00000094H   SFRSYM    DATA     BYTE      TMR4L
      00000097H   SFRSYM    DATA     BYTE      USB0DAT
      000000CCH   SFRSYM    DATA     BYTE      TMR5L
      000000B6H   SFRSYM    DATA     BYTE      FLSCL
      000000C8H.5 SFRSYM    DATA     BIT       TMR2CN0_TF2LEN
      000000F8H.6 SFRSYM    DATA     BIT       SPI0CN0_WCOL
      000000F8H.2 SFRSYM    DATA     BIT       SPI0CN0_NSSMD0
LX51 LINKER/LOCATER V4.66.66.0                                                        03/09/2017  11:29:19  PAGE 120


      000000D0H.7 SFRSYM    DATA     BIT       PSW_CY
      000000A3H   SFRSYM    DATA     BYTE      SPI0DAT
      000000F8H.3 SFRSYM    DATA     BIT       SPI0CN0_NSSMD1
      000000BDH   SFRSYM    DATA     WORD      ADC0
      000000B9H   SFRSYM    DATA     BYTE      SMBTC
      000000D0H   SFRSYM    DATA     BYTE      PSW
      000000C8H.5 SFRSYM    DATA     BIT       TMR5CN0_TF5LEN
      000000B7H   SFRSYM    DATA     BYTE      FLKEY
      00000090H.4 SFRSYM    DATA     BIT       BtnUpGpio

      01005A3AH   BLOCK     CODE     ---       LVL=0
      02000A05H   SYMBOL    XDATA    BYTE      event
      01005A3AH   LINE      CODE     ---       #46
      01005A3FH   LINE      CODE     ---       #47
      01005A49H   LINE      CODE     ---       #48
      01005A4EH   LINE      CODE     ---       #49
      01005A56H   LINE      CODE     ---       #50
      01005A65H   LINE      CODE     ---       #51
      01005A6BH   LINE      CODE     ---       #52
      01005A6BH   LINE      CODE     ---       #53
      01005A7AH   LINE      CODE     ---       #54
      01005A80H   LINE      CODE     ---       #55
      01005A83H   LINE      CODE     ---       #56
      01005A83H   LINE      CODE     ---       #58
      01005A86H   LINE      CODE     ---       #59
      01005AACH   LINE      CODE     ---       #61
      01005AB4H   LINE      CODE     ---       #62
      01005AD8H   LINE      CODE     ---       #63
      01005AFCH   LINE      CODE     ---       #64
      01005AFEH   LINE      CODE     ---       #65
      01005B04H   LINE      CODE     ---       #66
      01005B12H   LINE      CODE     ---       #67
      01005B12H   LINE      CODE     ---       #68
      01005B12H   LINE      CODE     ---       #69
      01005B1AH   LINE      CODE     ---       #70
      01005B23H   LINE      CODE     ---       #71
      01005B28H   LINE      CODE     ---       #72
      01005B36H   LINE      CODE     ---       #73
      01005B38H   LINE      CODE     ---       #74
      01005B3DH   LINE      CODE     ---       #75
      01005B3DH   LINE      CODE     ---       #76
      01005B3DH   LINE      CODE     ---       #77
      01005B3FH   LINE      CODE     ---       #78
      ---         BLOCKEND  ---      ---       LVL=0

      01000D58H   BLOCK     CODE     ---       LVL=0
      01000D58H   BLOCK     CODE     NEAR LAB  LVL=1
      02000A06H   SYMBOL    XDATA    BYTE      i
      ---         BLOCKEND  ---      ---       LVL=1
      01000D58H   LINE      CODE     ---       #80
      01000D58H   LINE      CODE     ---       #83
      01000D72H   LINE      CODE     ---       #84
      01000D7BH   LINE      CODE     ---       #85
      01000D89H   LINE      CODE     ---       #86
      01000D8BH   LINE      CODE     ---       #87
      01000D99H   LINE      CODE     ---       #88
      01000DA7H   LINE      CODE     ---       #90
      01000DB7H   LINE      CODE     ---       #91
      01000DE3H   LINE      CODE     ---       #92
      01000DEBH   LINE      CODE     ---       #94
      01000DEEH   LINE      CODE     ---       #95
      01000DF1H   LINE      CODE     ---       #96
      01000DF3H   LINE      CODE     ---       #97
      01000DF3H   LINE      CODE     ---       #98
      01000DF3H   LINE      CODE     ---       #100
LX51 LINKER/LOCATER V4.66.66.0                                                        03/09/2017  11:29:19  PAGE 121


      01000E01H   LINE      CODE     ---       #101
      01000E27H   LINE      CODE     ---       #102
      01000E38H   LINE      CODE     ---       #103
      01000E5EH   LINE      CODE     ---       #104
      01000E6EH   LINE      CODE     ---       #105
      01000E94H   LINE      CODE     ---       #106
      01000EA4H   LINE      CODE     ---       #107
      01000ECAH   LINE      CODE     ---       #108
      01000ECAH   LINE      CODE     ---       #110
      01000ED8H   LINE      CODE     ---       #111
      01000EFEH   LINE      CODE     ---       #112
      01000F00H   LINE      CODE     ---       #113
      01000F36H   LINE      CODE     ---       #114
      01000F36H   LINE      CODE     ---       #116
      01000F44H   LINE      CODE     ---       #117
      01000F6AH   LINE      CODE     ---       #118
      01000F7AH   LINE      CODE     ---       #119
      01000FA0H   LINE      CODE     ---       #120
      01000FA0H   LINE      CODE     ---       #122
      01000FAEH   LINE      CODE     ---       #123
      01000FD4H   LINE      CODE     ---       #124
      01000FD7H   LINE      CODE     ---       #125
      01000FE5H   LINE      CODE     ---       #126
      01001030H   LINE      CODE     ---       #127
      01001032H   LINE      CODE     ---       #128
      0100107DH   LINE      CODE     ---       #129
      0100107DH   LINE      CODE     ---       #130
      0100107DH   LINE      CODE     ---       #132
      0100108BH   LINE      CODE     ---       #133
      010010D6H   LINE      CODE     ---       #134
      010010D8H   LINE      CODE     ---       #135
      01001123H   LINE      CODE     ---       #136
      01001123H   LINE      CODE     ---       #138
      01001131H   LINE      CODE     ---       #139
      0100116FH   LINE      CODE     ---       #140
      01001171H   LINE      CODE     ---       #141
      010011AFH   LINE      CODE     ---       #142
      010011AFH   LINE      CODE     ---       #144
      010011BDH   LINE      CODE     ---       #145
      010011F3H   LINE      CODE     ---       #146
      010011F5H   LINE      CODE     ---       #147
      0100122BH   LINE      CODE     ---       #148
      0100122BH   LINE      CODE     ---       #150
      01001239H   LINE      CODE     ---       #151
      0100126FH   LINE      CODE     ---       #152
      01001271H   LINE      CODE     ---       #153
      010012A7H   LINE      CODE     ---       #154
      010012A7H   LINE      CODE     ---       #156
      010012B5H   LINE      CODE     ---       #157
      010012F3H   LINE      CODE     ---       #158
      010012F5H   LINE      CODE     ---       #159
      01001333H   LINE      CODE     ---       #160
      01001333H   LINE      CODE     ---       #162
      01001341H   LINE      CODE     ---       #163
      0100138FH   LINE      CODE     ---       #164
      01001391H   LINE      CODE     ---       #165
      010013DFH   LINE      CODE     ---       #166
      010013DFH   LINE      CODE     ---       #168
      010013EDH   LINE      CODE     ---       #169
      01001413H   LINE      CODE     ---       #170
      01001424H   LINE      CODE     ---       #171
      0100144AH   LINE      CODE     ---       #172
      0100145AH   LINE      CODE     ---       #173
      01001480H   LINE      CODE     ---       #174
      01001490H   LINE      CODE     ---       #175
LX51 LINKER/LOCATER V4.66.66.0                                                        03/09/2017  11:29:19  PAGE 122


      010014B6H   LINE      CODE     ---       #176
      010014B6H   LINE      CODE     ---       #178
      010014C4H   LINE      CODE     ---       #179
      010014FAH   LINE      CODE     ---       #180
      010014FCH   LINE      CODE     ---       #181
      01001532H   LINE      CODE     ---       #182
      01001532H   LINE      CODE     ---       #184
      01001540H   LINE      CODE     ---       #185
      01001566H   LINE      CODE     ---       #186
      01001577H   LINE      CODE     ---       #187
      0100159DH   LINE      CODE     ---       #188
      010015AEH   LINE      CODE     ---       #189
      010015D4H   LINE      CODE     ---       #190
      010015E4H   LINE      CODE     ---       #191
      0100160AH   LINE      CODE     ---       #192
      0100161AH   LINE      CODE     ---       #193
      01001640H   LINE      CODE     ---       #194
      01001640H   LINE      CODE     ---       #196
      0100164EH   LINE      CODE     ---       #197
      01001674H   LINE      CODE     ---       #198
      01001684H   LINE      CODE     ---       #199
      010016AAH   LINE      CODE     ---       #200
      010016AAH   LINE      CODE     ---       #202
      010016B8H   LINE      CODE     ---       #203
      010016DEH   LINE      CODE     ---       #204
      010016EDH   LINE      CODE     ---       #205
      01001713H   LINE      CODE     ---       #206
      01001713H   LINE      CODE     ---       #207
      ---         BLOCKEND  ---      ---       LVL=0

      ---         MODULE    ---      ---       PAGEESC2TH
      02000670H   PUBLIC    XDATA    ---       Esc2thMs
      0200065CH   PUBLIC    XDATA    ---       ShowText2thMaxBrake
      02000648H   PUBLIC    XDATA    ---       ShowText2thLipoCells
      02000634H   PUBLIC    XDATA    ---       ShowText2thMaxReverse
      02000620H   PUBLIC    XDATA    ---       ShowText2thCutVoltage
      0200060CH   PUBLIC    XDATA    ---       ShowText2thPunch
      020005F8H   PUBLIC    XDATA    ---       ShowText2thEscThermal
      020005E4H   PUBLIC    XDATA    ---       ShowText2thDragBrake
      020005D0H   PUBLIC    XDATA    ---       ShowText2thBecVoltage
      020005BCH   PUBLIC    XDATA    ---       ShowText2thRunMode
      01008645H   PUBLIC    CONST    ---       MenuItemEsc2th
      01002084H   PUBLIC    CODE     ---       Esc2thDatPreproccess
      01005B40H   PUBLIC    CODE     ---       _PageEsc2th
      000000A2H   SFRSYM    DATA     BYTE      SPI0CKR
      00000080H   SFRSYM    DATA     BYTE      P0
      000000D0H.2 SFRSYM    DATA     BIT       PSW_OV
      000000B1H   SFRSYM    DATA     BYTE      XOSC0CN
      00000090H   SFRSYM    DATA     BYTE      P1
      000000A0H   SFRSYM    DATA     BYTE      P2
      000000B0H   SFRSYM    DATA     BYTE      P3
      000000BCH   SFRSYM    DATA     BYTE      ADC0CF
      000000C8H   SFRSYM    DATA     BIT       TMR2CN0_T2XCLK
      000000C7H   SFRSYM    DATA     BYTE      P4
      000000C0H.7 SFRSYM    DATA     BIT       SMB0CN0_MASTER
      000000F9H   SFRSYM    DATA     WORD      PCA0
      000000E6H   SFRSYM    DATA     BYTE      EIE1
      000000C0H.7 SFRSYM    DATA     BIT       SMB1CN0_MASTER
      000000C0H.1 SFRSYM    DATA     BIT       SMB0CN0_ACK
      000000D7H   SFRSYM    DATA     BYTE      USB0XCN
      000000E7H   SFRSYM    DATA     BYTE      EIE2
      000000C0H.1 SFRSYM    DATA     BIT       SMB1CN0_ACK
      0000008FH   SFRSYM    DATA     BYTE      PSCTL
      000000E4H   SFRSYM    DATA     BYTE      IT01CF
      000000C8H   SFRSYM    DATA     BIT       TMR5CN0_T5XCLK
LX51 LINKER/LOCATER V4.66.66.0                                                        03/09/2017  11:29:19  PAGE 123


      000000C0H.6 SFRSYM    DATA     BIT       SMB0CN0_TXMODE
      000000C0H.6 SFRSYM    DATA     BIT       SMB1CN0_TXMODE
      000000BFH   SFRSYM    DATA     BYTE      SFRPAGE
      000000A4H   SFRSYM    DATA     BYTE      P0MDOUT
      00000080H.5 SFRSYM    DATA     BIT       LCD_SDA
      000000A5H   SFRSYM    DATA     BYTE      P1MDOUT
      000000E8H.5 SFRSYM    DATA     BIT       ADC0CN0_ADINT
      000000CBH   SFRSYM    DATA     BYTE      TMR2RLH
      000000A6H   SFRSYM    DATA     BYTE      P2MDOUT
      000000A8H   SFRSYM    DATA     BYTE      IE
      00000093H   SFRSYM    DATA     BYTE      TMR3RLH
      000000A7H   SFRSYM    DATA     BYTE      P3MDOUT
      00000093H   SFRSYM    DATA     BYTE      TMR4RLH
      000000AEH   SFRSYM    DATA     BYTE      P4MDOUT
      000000F6H   SFRSYM    DATA     BYTE      EIP1
      000000CBH   SFRSYM    DATA     BYTE      TMR5RLH
      000000F7H   SFRSYM    DATA     BYTE      EIP2
      00000098H.2 SFRSYM    DATA     BIT       SCON0_RB8
      000000CAH   SFRSYM    DATA     BYTE      TMR2RLL
      000000FCH   SFRSYM    DATA     BYTE      PCA0CPH0
      00000092H   SFRSYM    DATA     BYTE      TMR3RLL
      000000EAH   SFRSYM    DATA     BYTE      PCA0CPH1
      00000098H.3 SFRSYM    DATA     BIT       SCON0_TB8
      000000F0H   SFRSYM    DATA     BIT       B_B0
      00000082H   SFRSYM    DATA     WORD      DP
      00000092H   SFRSYM    DATA     BYTE      TMR4RLL
      000000ECH   SFRSYM    DATA     BYTE      PCA0CPH2
      000000F0H.1 SFRSYM    DATA     BIT       B_B1
      000000C3H   SFRSYM    DATA     WORD      ADC0GT
      000000CAH   SFRSYM    DATA     BYTE      TMR5RLL
      000000EEH   SFRSYM    DATA     BYTE      PCA0CPH3
      00000080H.3 SFRSYM    DATA     BIT       LCD_SCK
      000000F0H.2 SFRSYM    DATA     BIT       B_B2
      000000FBH   SFRSYM    DATA     BYTE      PCA0CPL0
      000000FEH   SFRSYM    DATA     BYTE      PCA0CPH4
      00000085H   SFRSYM    DATA     BYTE      EMI0CF
      000000F0H.3 SFRSYM    DATA     BIT       B_B3
      000000D9H   SFRSYM    DATA     BYTE      PCA0MD
      000000DAH   SFRSYM    DATA     BYTE      PCA0CPM0
      000000E9H   SFRSYM    DATA     BYTE      PCA0CPL1
      000000F0H.4 SFRSYM    DATA     BIT       B_B4
      000000DBH   SFRSYM    DATA     BYTE      PCA0CPM1
      000000EBH   SFRSYM    DATA     BYTE      PCA0CPL2
      000000F0H.5 SFRSYM    DATA     BIT       B_B5
      000000DCH   SFRSYM    DATA     BYTE      PCA0CPM2
      000000EDH   SFRSYM    DATA     BYTE      PCA0CPL3
      000000B8H   SFRSYM    DATA     BYTE      IP
      000000F0H.6 SFRSYM    DATA     BIT       B_B6
      000000C5H   SFRSYM    DATA     WORD      ADC0LT
      000000DDH   SFRSYM    DATA     BYTE      PCA0CPM3
      000000FDH   SFRSYM    DATA     BYTE      PCA0CPL4
      00000098H.5 SFRSYM    DATA     BIT       SCON0_MCE
      000000F0H.7 SFRSYM    DATA     BIT       B_B7
      000000DEH   SFRSYM    DATA     BYTE      PCA0CPM4
      000000E1H   SFRSYM    DATA     BYTE      XBR0
      000000C1H   SFRSYM    DATA     BYTE      SMB0CF
      000000E2H   SFRSYM    DATA     BYTE      XBR1
      000000C1H   SFRSYM    DATA     BYTE      SMB1CF
      000000AFH   SFRSYM    DATA     BYTE      PFE0CN
      000000AAH   SFRSYM    DATA     BYTE      EMI0CN
      000000C0H.5 SFRSYM    DATA     BIT       SMB0CN0_STA
      000000E3H   SFRSYM    DATA     BYTE      XBR2
      000000C0H.5 SFRSYM    DATA     BIT       SMB1CN0_STA
      000000E0H   SFRSYM    DATA     BIT       ACC_ACC0
      000000D1H   SFRSYM    DATA     BYTE      REF0CN
LX51 LINKER/LOCATER V4.66.66.0                                                        03/09/2017  11:29:19  PAGE 124


      000000B2H   SFRSYM    DATA     BYTE      HFO0CN
      0000008EH   SFRSYM    DATA     BYTE      CKCON0
      000000E0H.1 SFRSYM    DATA     BIT       ACC_ACC1
      000000E4H   SFRSYM    DATA     BYTE      CKCON1
      000000C8H.2 SFRSYM    DATA     BIT       TMR2CN0_TR2
      000000E0H.2 SFRSYM    DATA     BIT       ACC_ACC2
      000000E0H.3 SFRSYM    DATA     BIT       ACC_ACC3
      00000081H   SFRSYM    DATA     BYTE      SP
      0000009DH   SFRSYM    DATA     BYTE      CMP0MD
      000000E0H.4 SFRSYM    DATA     BIT       ACC_ACC4
      00000086H   SFRSYM    DATA     BYTE      LFO0CN
      00000084H   SFRSYM    DATA     BYTE      EMI0TC
      0000009CH   SFRSYM    DATA     BYTE      CMP1MD
      000000D8H   SFRSYM    DATA     BIT       PCA0CN0_CCF0
      000000E0H.5 SFRSYM    DATA     BIT       ACC_ACC5
      000000D8H.1 SFRSYM    DATA     BIT       PCA0CN0_CCF1
      000000E0H.6 SFRSYM    DATA     BIT       ACC_ACC6
      000000CCH   SFRSYM    DATA     WORD      TMR2
      000000D8H.2 SFRSYM    DATA     BIT       PCA0CN0_CCF2
      000000E0H.7 SFRSYM    DATA     BIT       ACC_ACC7
      00000094H   SFRSYM    DATA     WORD      TMR3
      000000C8H.2 SFRSYM    DATA     BIT       TMR5CN0_TR5
      000000D8H.3 SFRSYM    DATA     BIT       PCA0CN0_CCF3
      00000094H   SFRSYM    DATA     WORD      TMR4
      000000ACH   SFRSYM    DATA     BYTE      SBCON1
      000000D8H.4 SFRSYM    DATA     BIT       PCA0CN0_CCF4
      000000CCH   SFRSYM    DATA     WORD      TMR5
      000000C0H.3 SFRSYM    DATA     BIT       SMB0CN0_ACKRQ
      000000FFH   SFRSYM    DATA     BYTE      VDM0CN
      000000F1H   SFRSYM    DATA     BYTE      P0MDIN
      000000C0H.3 SFRSYM    DATA     BIT       SMB1CN0_ACKRQ
      00000098H.4 SFRSYM    DATA     BIT       SCON0_REN
      000000F2H   SFRSYM    DATA     BYTE      P1MDIN
      000000F3H   SFRSYM    DATA     BYTE      P2MDIN
      000000C0H.4 SFRSYM    DATA     BIT       SMB0CN0_STO
      000000F4H   SFRSYM    DATA     BYTE      P3MDIN
      00000090H.3 SFRSYM    DATA     BIT       LCD_RST
      000000C0H.4 SFRSYM    DATA     BIT       SMB1CN0_STO
      000000B5H   SFRSYM    DATA     BYTE      SBRLH1
      000000F5H   SFRSYM    DATA     BYTE      P4MDIN
      000000D0H.3 SFRSYM    DATA     BIT       PSW_RS0
      000000D8H.7 SFRSYM    DATA     BIT       PCA0CN0_CF
      000000F8H.4 SFRSYM    DATA     BIT       SPI0CN0_RXOVRN
      000000D0H.4 SFRSYM    DATA     BIT       PSW_RS1
      000000B4H   SFRSYM    DATA     BYTE      SBRLL1
      000000E8H.7 SFRSYM    DATA     BIT       ADC0CN0_ADEN
      00000089H   SFRSYM    DATA     BYTE      TMOD
      00000088H   SFRSYM    DATA     BYTE      TCON
      000000D0H   SFRSYM    DATA     BIT       PSW_PARITY
      000000A8H.4 SFRSYM    DATA     BIT       IE_ES0
      0000009FH   SFRSYM    DATA     BYTE      CMP0MX
      000000A8H.1 SFRSYM    DATA     BIT       IE_ET0
      0000009EH   SFRSYM    DATA     BYTE      CMP1MX
      000000A8H.3 SFRSYM    DATA     BIT       IE_ET1
      000000D4H   SFRSYM    DATA     BYTE      P0SKIP
      000000C8H.1 SFRSYM    DATA     BIT       TMR2CN0_T2CSS
      000000A8H.5 SFRSYM    DATA     BIT       IE_ET2
      000000D5H   SFRSYM    DATA     BYTE      P1SKIP
      000000D6H   SFRSYM    DATA     BYTE      P2SKIP
      000000E8H   SFRSYM    DATA     BYTE      ADC0CN0
      000000A8H   SFRSYM    DATA     BIT       IE_EX0
      000000DFH   SFRSYM    DATA     BYTE      P3SKIP
      000000D8H.6 SFRSYM    DATA     BIT       PCA0CN0_CR
      000000A8H.2 SFRSYM    DATA     BIT       IE_EX1
      00000098H.7 SFRSYM    DATA     BIT       SCON0_SMODE
LX51 LINKER/LOCATER V4.66.66.0                                                        03/09/2017  11:29:19  PAGE 125


      000000A9H   SFRSYM    DATA     BYTE      CLKSEL
      000000F8H   SFRSYM    DATA     BIT       SPI0CN0_SPIEN
      000000F0H   SFRSYM    DATA     BYTE      B
      000000BEH   SFRSYM    DATA     BYTE      ADC0H
      000000E8H.6 SFRSYM    DATA     BIT       ADC0CN0_ADTM
      000000CAH   SFRSYM    DATA     WORD      TMR2RL
      000000BDH   SFRSYM    DATA     BYTE      ADC0L
      00000092H   SFRSYM    DATA     WORD      TMR3RL
      00000092H   SFRSYM    DATA     WORD      TMR4RL
      000000D8H   SFRSYM    DATA     BYTE      PCA0CN0
      000000E0H   SFRSYM    DATA     BYTE      ACC
      000000CAH   SFRSYM    DATA     WORD      TMR5RL
      000000FBH   SFRSYM    DATA     WORD      PCA0CP0
      00000080H.6 SFRSYM    DATA     BIT       LCD_CS
      000000E9H   SFRSYM    DATA     WORD      PCA0CP1
      000000EBH   SFRSYM    DATA     WORD      PCA0CP2
      000000EDH   SFRSYM    DATA     WORD      PCA0CP3
      0000008CH   SFRSYM    DATA     BYTE      TH0
      000000B8H.4 SFRSYM    DATA     BIT       IP_PS0
      000000FDH   SFRSYM    DATA     WORD      PCA0CP4
      0000008DH   SFRSYM    DATA     BYTE      TH1
      000000FAH   SFRSYM    DATA     BYTE      PCA0H
      000000B8H.1 SFRSYM    DATA     BIT       IP_PT0
      000000B8H.3 SFRSYM    DATA     BIT       IP_PT1
      000000C0H.2 SFRSYM    DATA     BIT       SMB0CN0_ARBLOST
      000000B8H.5 SFRSYM    DATA     BIT       IP_PT2
      0000008AH   SFRSYM    DATA     BYTE      TL0
      000000F8H.1 SFRSYM    DATA     BIT       SPI0CN0_TXBMT
      000000C0H.2 SFRSYM    DATA     BIT       SMB1CN0_ARBLOST
      000000D0H.5 SFRSYM    DATA     BIT       PSW_F0
      000000A8H.6 SFRSYM    DATA     BIT       IE_ESPI0
      0000008BH   SFRSYM    DATA     BYTE      TL1
      000000F9H   SFRSYM    DATA     BYTE      PCA0L
      000000C0H   SFRSYM    DATA     BIT       SMB0CN0_SI
      000000D0H.1 SFRSYM    DATA     BIT       PSW_F1
      00000080H   SFRSYM    DATA     BIT       P0_B0
      000000B8H   SFRSYM    DATA     BIT       IP_PX0
      000000C9H   SFRSYM    DATA     BYTE      REG01CN
      000000C0H   SFRSYM    DATA     BIT       SMB1CN0_SI
      00000090H   SFRSYM    DATA     BIT       P1_B0
      00000080H.1 SFRSYM    DATA     BIT       P0_B1
      000000B8H.2 SFRSYM    DATA     BIT       IP_PX1
      0000009BH   SFRSYM    DATA     BYTE      CMP0CN0
      00000088H.1 SFRSYM    DATA     BIT       TCON_IE0
      000000A0H   SFRSYM    DATA     BIT       P2_B0
      00000090H.1 SFRSYM    DATA     BIT       P1_B1
      00000080H.2 SFRSYM    DATA     BIT       P0_B2
      0000009AH   SFRSYM    DATA     BYTE      CMP1CN0
      00000088H.3 SFRSYM    DATA     BIT       TCON_IE1
      000000B0H   SFRSYM    DATA     BIT       P3_B0
      000000A0H.1 SFRSYM    DATA     BIT       P2_B1
      00000090H.2 SFRSYM    DATA     BIT       P1_B2
      00000080H.3 SFRSYM    DATA     BIT       P0_B3
      000000C0H   SFRSYM    DATA     BYTE      SMB0CN0
      000000B0H.1 SFRSYM    DATA     BIT       P3_B1
      000000A0H.2 SFRSYM    DATA     BIT       P2_B2
      00000090H.3 SFRSYM    DATA     BIT       P1_B3
      00000080H.4 SFRSYM    DATA     BIT       P0_B4
      000000C0H   SFRSYM    DATA     BYTE      SMB1CN0
      000000B0H.2 SFRSYM    DATA     BIT       P3_B2
      000000A0H.3 SFRSYM    DATA     BIT       P2_B3
      00000090H.4 SFRSYM    DATA     BIT       P1_B4
      00000080H.5 SFRSYM    DATA     BIT       P0_B5
      000000B0H.3 SFRSYM    DATA     BIT       P3_B3
      000000A0H.4 SFRSYM    DATA     BIT       P2_B4
LX51 LINKER/LOCATER V4.66.66.0                                                        03/09/2017  11:29:19  PAGE 126


      00000090H.5 SFRSYM    DATA     BIT       P1_B5
      00000080H.6 SFRSYM    DATA     BIT       P0_B6
      00000080H.2 SFRSYM    DATA     BIT       LCD_RS
      000000B0H.4 SFRSYM    DATA     BIT       P3_B4
      000000A0H.5 SFRSYM    DATA     BIT       P2_B5
      00000090H.6 SFRSYM    DATA     BIT       P1_B6
      00000080H.7 SFRSYM    DATA     BIT       P0_B7
      000000B0H.5 SFRSYM    DATA     BIT       P3_B5
      000000A0H.6 SFRSYM    DATA     BIT       P2_B6
      00000090H.7 SFRSYM    DATA     BIT       P1_B7
      000000B0H.6 SFRSYM    DATA     BIT       P3_B6
      000000A0H.7 SFRSYM    DATA     BIT       P2_B7
      000000B0H.7 SFRSYM    DATA     BIT       P3_B7
      00000083H   SFRSYM    DATA     BYTE      DPH
      000000C4H   SFRSYM    DATA     BYTE      ADC0GTH
      000000C8H.7 SFRSYM    DATA     BIT       TMR2CN0_TF2H
      000000C8H.3 SFRSYM    DATA     BIT       TMR2CN0_T2SPLIT
      000000D0H.6 SFRSYM    DATA     BIT       PSW_AC
      000000F8H   SFRSYM    DATA     BYTE      SPI0CN0
      000000B3H   SFRSYM    DATA     BYTE      HFO0CAL
      00000080H   SFRSYM    DATA     BIT       BtnEntGpio
      00000088H.5 SFRSYM    DATA     BIT       TCON_TF0
      00000098H   SFRSYM    DATA     BIT       SCON0_RI
      00000082H   SFRSYM    DATA     BYTE      DPL
      00000088H.7 SFRSYM    DATA     BIT       TCON_TF1
      00000099H   SFRSYM    DATA     BYTE      SBUF0
      00000087H   SFRSYM    DATA     BYTE      PCON0
      000000C3H   SFRSYM    DATA     BYTE      ADC0GTL
      000000C8H.6 SFRSYM    DATA     BIT       TMR2CN0_TF2L
      00000098H.1 SFRSYM    DATA     BIT       SCON0_TI
      000000E8H   SFRSYM    DATA     BIT       ADC0CN0_ADCM0
      000000D3H   SFRSYM    DATA     BYTE      SBUF1
      000000C6H   SFRSYM    DATA     BYTE      ADC0LTH
      00000088H   SFRSYM    DATA     BIT       TCON_IT0
      000000E8H.1 SFRSYM    DATA     BIT       ADC0CN0_ADCM1
      000000EFH   SFRSYM    DATA     BYTE      RSTSRC
      000000C8H.7 SFRSYM    DATA     BIT       TMR5CN0_TF5H
      000000C8H.3 SFRSYM    DATA     BIT       TMR5CN0_T5SPLIT
      00000088H.2 SFRSYM    DATA     BIT       TCON_IT1
      000000E8H.2 SFRSYM    DATA     BIT       ADC0CN0_ADCM2
      00000098H   SFRSYM    DATA     BYTE      SCON0
      000000E8H.3 SFRSYM    DATA     BIT       ADC0CN0_ADWINT
      000000B4H   SFRSYM    DATA     WORD      SBRL1
      000000E5H   SFRSYM    DATA     BYTE      SMOD1
      000000D2H   SFRSYM    DATA     BYTE      SCON1
      000000BAH   SFRSYM    DATA     BYTE      AMX0N
      000000E8H.4 SFRSYM    DATA     BIT       ADC0CN0_ADBUSY
      000000CEH   SFRSYM    DATA     BYTE      SMB0ADM
      000000C5H   SFRSYM    DATA     BYTE      ADC0LTL
      000000F8H.5 SFRSYM    DATA     BIT       SPI0CN0_MODF
      000000B8H.6 SFRSYM    DATA     BIT       IP_PSPI0
      000000CEH   SFRSYM    DATA     BYTE      SMB1ADM
      000000BBH   SFRSYM    DATA     BYTE      AMX0P
      000000C8H.6 SFRSYM    DATA     BIT       TMR5CN0_TF5L
      000000C8H   SFRSYM    DATA     BYTE      TMR2CN0
      00000091H   SFRSYM    DATA     BYTE      TMR3CN0
      00000080H.1 SFRSYM    DATA     BIT       BtnExtGpio
      00000091H   SFRSYM    DATA     BYTE      TMR4CN0
      000000C8H   SFRSYM    DATA     BYTE      TMR5CN0
      000000CFH   SFRSYM    DATA     BYTE      SMB0ADR
      00000088H.4 SFRSYM    DATA     BIT       TCON_TR0
      000000CFH   SFRSYM    DATA     BYTE      SMB1ADR
      000000C8H.4 SFRSYM    DATA     BIT       TMR2CN0_TF2CEN
      00000088H.6 SFRSYM    DATA     BIT       TCON_TR1
      000000C2H   SFRSYM    DATA     BYTE      SMB0DAT
LX51 LINKER/LOCATER V4.66.66.0                                                        03/09/2017  11:29:19  PAGE 127


      00000080H.4 SFRSYM    DATA     BIT       RC_OUT
      000000CDH   SFRSYM    DATA     BYTE      TMR2H
      000000A1H   SFRSYM    DATA     BYTE      SPI0CFG
      000000C2H   SFRSYM    DATA     BYTE      SMB1DAT
      00000095H   SFRSYM    DATA     BYTE      TMR3H
      00000095H   SFRSYM    DATA     BYTE      TMR4H
      000000CDH   SFRSYM    DATA     BYTE      TMR5H
      000000CCH   SFRSYM    DATA     BYTE      TMR2L
      00000090H.5 SFRSYM    DATA     BIT       BtnDwGpio
      000000F8H.7 SFRSYM    DATA     BIT       SPI0CN0_SPIF
      00000096H   SFRSYM    DATA     BYTE      USB0ADR
      00000094H   SFRSYM    DATA     BYTE      TMR3L
      000000A8H.7 SFRSYM    DATA     BIT       IE_EA
      00000094H   SFRSYM    DATA     BYTE      TMR4L
      00000097H   SFRSYM    DATA     BYTE      USB0DAT
      000000CCH   SFRSYM    DATA     BYTE      TMR5L
      000000B6H   SFRSYM    DATA     BYTE      FLSCL
      000000C8H.5 SFRSYM    DATA     BIT       TMR2CN0_TF2LEN
      000000F8H.6 SFRSYM    DATA     BIT       SPI0CN0_WCOL
      000000F8H.2 SFRSYM    DATA     BIT       SPI0CN0_NSSMD0
      000000D0H.7 SFRSYM    DATA     BIT       PSW_CY
      000000A3H   SFRSYM    DATA     BYTE      SPI0DAT
      000000F8H.3 SFRSYM    DATA     BIT       SPI0CN0_NSSMD1
      000000BDH   SFRSYM    DATA     WORD      ADC0
      000000B9H   SFRSYM    DATA     BYTE      SMBTC
      000000D0H   SFRSYM    DATA     BYTE      PSW
      000000C8H.5 SFRSYM    DATA     BIT       TMR5CN0_TF5LEN
      000000B7H   SFRSYM    DATA     BYTE      FLKEY
      00000090H.4 SFRSYM    DATA     BIT       BtnUpGpio

      01005B40H   BLOCK     CODE     ---       LVL=0
      02000A07H   SYMBOL    XDATA    BYTE      event
      01005B40H   LINE      CODE     ---       #35
      01005B45H   LINE      CODE     ---       #36
      01005B4FH   LINE      CODE     ---       #37
      01005B54H   LINE      CODE     ---       #38
      01005B5CH   LINE      CODE     ---       #39
      01005B6BH   LINE      CODE     ---       #40
      01005B71H   LINE      CODE     ---       #41
      01005B71H   LINE      CODE     ---       #42
      01005B80H   LINE      CODE     ---       #43
      01005B86H   LINE      CODE     ---       #44
      01005B89H   LINE      CODE     ---       #45
      01005B89H   LINE      CODE     ---       #47
      01005B8CH   LINE      CODE     ---       #48
      01005BB2H   LINE      CODE     ---       #50
      01005BBAH   LINE      CODE     ---       #51
      01005BDDH   LINE      CODE     ---       #52
      01005C00H   LINE      CODE     ---       #53
      01005C02H   LINE      CODE     ---       #54
      01005C08H   LINE      CODE     ---       #55
      01005C16H   LINE      CODE     ---       #56
      01005C16H   LINE      CODE     ---       #57
      01005C16H   LINE      CODE     ---       #58
      01005C1EH   LINE      CODE     ---       #59
      01005C27H   LINE      CODE     ---       #60
      01005C2CH   LINE      CODE     ---       #61
      01005C3AH   LINE      CODE     ---       #62
      01005C3CH   LINE      CODE     ---       #63
      01005C41H   LINE      CODE     ---       #64
      01005C41H   LINE      CODE     ---       #65
      01005C41H   LINE      CODE     ---       #66
      01005C43H   LINE      CODE     ---       #67
      ---         BLOCKEND  ---      ---       LVL=0

LX51 LINKER/LOCATER V4.66.66.0                                                        03/09/2017  11:29:19  PAGE 128


      01002084H   BLOCK     CODE     ---       LVL=0
      01002084H   BLOCK     CODE     NEAR LAB  LVL=1
      02000A08H   SYMBOL    XDATA    BYTE      i
      ---         BLOCKEND  ---      ---       LVL=1
      01002084H   LINE      CODE     ---       #69
      01002084H   LINE      CODE     ---       #72
      0100209EH   LINE      CODE     ---       #73
      010020A7H   LINE      CODE     ---       #74
      010020B5H   LINE      CODE     ---       #75
      010020B7H   LINE      CODE     ---       #76
      010020C5H   LINE      CODE     ---       #77
      010020D3H   LINE      CODE     ---       #79
      010020E3H   LINE      CODE     ---       #80
      0100210FH   LINE      CODE     ---       #81
      01002117H   LINE      CODE     ---       #83
      0100211AH   LINE      CODE     ---       #84
      0100211DH   LINE      CODE     ---       #85
      0100211FH   LINE      CODE     ---       #86
      0100211FH   LINE      CODE     ---       #87
      0100211FH   LINE      CODE     ---       #89
      0100212DH   LINE      CODE     ---       #90
      01002153H   LINE      CODE     ---       #91
      01002163H   LINE      CODE     ---       #92
      01002189H   LINE      CODE     ---       #93
      01002189H   LINE      CODE     ---       #95
      01002197H   LINE      CODE     ---       #96
      010021BDH   LINE      CODE     ---       #97
      010021BFH   LINE      CODE     ---       #98
      010021F5H   LINE      CODE     ---       #99
      010021F5H   LINE      CODE     ---       #101
      01002203H   LINE      CODE     ---       #102
      01002229H   LINE      CODE     ---       #103
      0100222CH   LINE      CODE     ---       #104
      0100223AH   LINE      CODE     ---       #105
      01002285H   LINE      CODE     ---       #106
      01002287H   LINE      CODE     ---       #107
      010022D2H   LINE      CODE     ---       #108
      010022D2H   LINE      CODE     ---       #109
      010022D2H   LINE      CODE     ---       #111
      010022E0H   LINE      CODE     ---       #112
      01002306H   LINE      CODE     ---       #113
      01002316H   LINE      CODE     ---       #114
      0100233CH   LINE      CODE     ---       #115
      0100233CH   LINE      CODE     ---       #117
      0100234AH   LINE      CODE     ---       #118
      01002370H   LINE      CODE     ---       #119
      01002380H   LINE      CODE     ---       #120
      010023A6H   LINE      CODE     ---       #121
      010023A6H   LINE      CODE     ---       #123
      010023B4H   LINE      CODE     ---       #124
      010023DAH   LINE      CODE     ---       #125
      010023DDH   LINE      CODE     ---       #126
      010023EBH   LINE      CODE     ---       #127
      01002428H   LINE      CODE     ---       #128
      0100242AH   LINE      CODE     ---       #129
      01002467H   LINE      CODE     ---       #130
      01002467H   LINE      CODE     ---       #131
      01002467H   LINE      CODE     ---       #133
      01002475H   LINE      CODE     ---       #134
      0100249BH   LINE      CODE     ---       #135
      010024ABH   LINE      CODE     ---       #136
      010024D1H   LINE      CODE     ---       #137
      010024D1H   LINE      CODE     ---       #139
      010024DFH   LINE      CODE     ---       #140
      01002515H   LINE      CODE     ---       #141
LX51 LINKER/LOCATER V4.66.66.0                                                        03/09/2017  11:29:19  PAGE 129


      01002517H   LINE      CODE     ---       #142
      0100254DH   LINE      CODE     ---       #143
      0100254DH   LINE      CODE     ---       #145
      0100255BH   LINE      CODE     ---       #146
      01002598H   LINE      CODE     ---       #147
      01002599H   LINE      CODE     ---       #148
      010025D6H   LINE      CODE     ---       #149
      010025D6H   LINE      CODE     ---       #150
      ---         BLOCKEND  ---      ---       LVL=0

      ---         MODULE    ---      ---       PAGEESC3TH
      0200076AH   PUBLIC    XDATA    ---       ShowText3thStartMode
      02000764H   PUBLIC    XDATA    ---       Esc3thMs
      02000750H   PUBLIC    XDATA    ---       ShowText3thBatteryType
      0200073CH   PUBLIC    XDATA    ---       ShowText3thTimingMode
      02000728H   PUBLIC    XDATA    ---       ShowText3thCutOffType
      02000714H   PUBLIC    XDATA    ---       ShowText3thBrake
      02000700H   PUBLIC    XDATA    ---       ShowText3thCutOffVoltage
      01008943H   PUBLIC    CONST    ---       MenuItemEsc3th
      01002A5AH   PUBLIC    CODE     ---       Esc3thDatProccess
      01005C44H   PUBLIC    CODE     ---       _PageEsc3th
      000000A2H   SFRSYM    DATA     BYTE      SPI0CKR
      00000080H   SFRSYM    DATA     BYTE      P0
      000000D0H.2 SFRSYM    DATA     BIT       PSW_OV
      000000B1H   SFRSYM    DATA     BYTE      XOSC0CN
      00000090H   SFRSYM    DATA     BYTE      P1
      000000A0H   SFRSYM    DATA     BYTE      P2
      000000B0H   SFRSYM    DATA     BYTE      P3
      000000BCH   SFRSYM    DATA     BYTE      ADC0CF
      000000C8H   SFRSYM    DATA     BIT       TMR2CN0_T2XCLK
      000000C7H   SFRSYM    DATA     BYTE      P4
      000000C0H.7 SFRSYM    DATA     BIT       SMB0CN0_MASTER
      000000F9H   SFRSYM    DATA     WORD      PCA0
      000000E6H   SFRSYM    DATA     BYTE      EIE1
      000000C0H.7 SFRSYM    DATA     BIT       SMB1CN0_MASTER
      000000C0H.1 SFRSYM    DATA     BIT       SMB0CN0_ACK
      000000D7H   SFRSYM    DATA     BYTE      USB0XCN
      000000E7H   SFRSYM    DATA     BYTE      EIE2
      000000C0H.1 SFRSYM    DATA     BIT       SMB1CN0_ACK
      0000008FH   SFRSYM    DATA     BYTE      PSCTL
      000000E4H   SFRSYM    DATA     BYTE      IT01CF
      000000C8H   SFRSYM    DATA     BIT       TMR5CN0_T5XCLK
      000000C0H.6 SFRSYM    DATA     BIT       SMB0CN0_TXMODE
      000000C0H.6 SFRSYM    DATA     BIT       SMB1CN0_TXMODE
      000000BFH   SFRSYM    DATA     BYTE      SFRPAGE
      000000A4H   SFRSYM    DATA     BYTE      P0MDOUT
      00000080H.5 SFRSYM    DATA     BIT       LCD_SDA
      000000A5H   SFRSYM    DATA     BYTE      P1MDOUT
      000000E8H.5 SFRSYM    DATA     BIT       ADC0CN0_ADINT
      000000CBH   SFRSYM    DATA     BYTE      TMR2RLH
      000000A6H   SFRSYM    DATA     BYTE      P2MDOUT
      000000A8H   SFRSYM    DATA     BYTE      IE
      00000093H   SFRSYM    DATA     BYTE      TMR3RLH
      000000A7H   SFRSYM    DATA     BYTE      P3MDOUT
      00000093H   SFRSYM    DATA     BYTE      TMR4RLH
      000000AEH   SFRSYM    DATA     BYTE      P4MDOUT
      000000F6H   SFRSYM    DATA     BYTE      EIP1
      000000CBH   SFRSYM    DATA     BYTE      TMR5RLH
      000000F7H   SFRSYM    DATA     BYTE      EIP2
      00000098H.2 SFRSYM    DATA     BIT       SCON0_RB8
      000000CAH   SFRSYM    DATA     BYTE      TMR2RLL
      000000FCH   SFRSYM    DATA     BYTE      PCA0CPH0
      00000092H   SFRSYM    DATA     BYTE      TMR3RLL
      000000EAH   SFRSYM    DATA     BYTE      PCA0CPH1
      00000098H.3 SFRSYM    DATA     BIT       SCON0_TB8
LX51 LINKER/LOCATER V4.66.66.0                                                        03/09/2017  11:29:19  PAGE 130


      000000F0H   SFRSYM    DATA     BIT       B_B0
      00000082H   SFRSYM    DATA     WORD      DP
      00000092H   SFRSYM    DATA     BYTE      TMR4RLL
      000000ECH   SFRSYM    DATA     BYTE      PCA0CPH2
      000000F0H.1 SFRSYM    DATA     BIT       B_B1
      000000C3H   SFRSYM    DATA     WORD      ADC0GT
      000000CAH   SFRSYM    DATA     BYTE      TMR5RLL
      000000EEH   SFRSYM    DATA     BYTE      PCA0CPH3
      00000080H.3 SFRSYM    DATA     BIT       LCD_SCK
      000000F0H.2 SFRSYM    DATA     BIT       B_B2
      000000FBH   SFRSYM    DATA     BYTE      PCA0CPL0
      000000FEH   SFRSYM    DATA     BYTE      PCA0CPH4
      00000085H   SFRSYM    DATA     BYTE      EMI0CF
      000000F0H.3 SFRSYM    DATA     BIT       B_B3
      000000D9H   SFRSYM    DATA     BYTE      PCA0MD
      000000DAH   SFRSYM    DATA     BYTE      PCA0CPM0
      000000E9H   SFRSYM    DATA     BYTE      PCA0CPL1
      000000F0H.4 SFRSYM    DATA     BIT       B_B4
      000000DBH   SFRSYM    DATA     BYTE      PCA0CPM1
      000000EBH   SFRSYM    DATA     BYTE      PCA0CPL2
      000000F0H.5 SFRSYM    DATA     BIT       B_B5
      000000DCH   SFRSYM    DATA     BYTE      PCA0CPM2
      000000EDH   SFRSYM    DATA     BYTE      PCA0CPL3
      000000B8H   SFRSYM    DATA     BYTE      IP
      000000F0H.6 SFRSYM    DATA     BIT       B_B6
      000000C5H   SFRSYM    DATA     WORD      ADC0LT
      000000DDH   SFRSYM    DATA     BYTE      PCA0CPM3
      000000FDH   SFRSYM    DATA     BYTE      PCA0CPL4
      00000098H.5 SFRSYM    DATA     BIT       SCON0_MCE
      000000F0H.7 SFRSYM    DATA     BIT       B_B7
      000000DEH   SFRSYM    DATA     BYTE      PCA0CPM4
      000000E1H   SFRSYM    DATA     BYTE      XBR0
      000000C1H   SFRSYM    DATA     BYTE      SMB0CF
      000000E2H   SFRSYM    DATA     BYTE      XBR1
      000000C1H   SFRSYM    DATA     BYTE      SMB1CF
      000000AFH   SFRSYM    DATA     BYTE      PFE0CN
      000000AAH   SFRSYM    DATA     BYTE      EMI0CN
      000000C0H.5 SFRSYM    DATA     BIT       SMB0CN0_STA
      000000E3H   SFRSYM    DATA     BYTE      XBR2
      000000C0H.5 SFRSYM    DATA     BIT       SMB1CN0_STA
      000000E0H   SFRSYM    DATA     BIT       ACC_ACC0
      000000D1H   SFRSYM    DATA     BYTE      REF0CN
      000000B2H   SFRSYM    DATA     BYTE      HFO0CN
      0000008EH   SFRSYM    DATA     BYTE      CKCON0
      000000E0H.1 SFRSYM    DATA     BIT       ACC_ACC1
      000000E4H   SFRSYM    DATA     BYTE      CKCON1
      000000C8H.2 SFRSYM    DATA     BIT       TMR2CN0_TR2
      000000E0H.2 SFRSYM    DATA     BIT       ACC_ACC2
      000000E0H.3 SFRSYM    DATA     BIT       ACC_ACC3
      00000081H   SFRSYM    DATA     BYTE      SP
      0000009DH   SFRSYM    DATA     BYTE      CMP0MD
      000000E0H.4 SFRSYM    DATA     BIT       ACC_ACC4
      00000086H   SFRSYM    DATA     BYTE      LFO0CN
      00000084H   SFRSYM    DATA     BYTE      EMI0TC
      0000009CH   SFRSYM    DATA     BYTE      CMP1MD
      000000D8H   SFRSYM    DATA     BIT       PCA0CN0_CCF0
      000000E0H.5 SFRSYM    DATA     BIT       ACC_ACC5
      000000D8H.1 SFRSYM    DATA     BIT       PCA0CN0_CCF1
      000000E0H.6 SFRSYM    DATA     BIT       ACC_ACC6
      000000CCH   SFRSYM    DATA     WORD      TMR2
      000000D8H.2 SFRSYM    DATA     BIT       PCA0CN0_CCF2
      000000E0H.7 SFRSYM    DATA     BIT       ACC_ACC7
      00000094H   SFRSYM    DATA     WORD      TMR3
      000000C8H.2 SFRSYM    DATA     BIT       TMR5CN0_TR5
      000000D8H.3 SFRSYM    DATA     BIT       PCA0CN0_CCF3
LX51 LINKER/LOCATER V4.66.66.0                                                        03/09/2017  11:29:19  PAGE 131


      00000094H   SFRSYM    DATA     WORD      TMR4
      000000ACH   SFRSYM    DATA     BYTE      SBCON1
      000000D8H.4 SFRSYM    DATA     BIT       PCA0CN0_CCF4
      000000CCH   SFRSYM    DATA     WORD      TMR5
      000000C0H.3 SFRSYM    DATA     BIT       SMB0CN0_ACKRQ
      000000FFH   SFRSYM    DATA     BYTE      VDM0CN
      000000F1H   SFRSYM    DATA     BYTE      P0MDIN
      000000C0H.3 SFRSYM    DATA     BIT       SMB1CN0_ACKRQ
      00000098H.4 SFRSYM    DATA     BIT       SCON0_REN
      000000F2H   SFRSYM    DATA     BYTE      P1MDIN
      000000F3H   SFRSYM    DATA     BYTE      P2MDIN
      000000C0H.4 SFRSYM    DATA     BIT       SMB0CN0_STO
      000000F4H   SFRSYM    DATA     BYTE      P3MDIN
      00000090H.3 SFRSYM    DATA     BIT       LCD_RST
      000000C0H.4 SFRSYM    DATA     BIT       SMB1CN0_STO
      000000B5H   SFRSYM    DATA     BYTE      SBRLH1
      000000F5H   SFRSYM    DATA     BYTE      P4MDIN
      000000D0H.3 SFRSYM    DATA     BIT       PSW_RS0
      000000D8H.7 SFRSYM    DATA     BIT       PCA0CN0_CF
      000000F8H.4 SFRSYM    DATA     BIT       SPI0CN0_RXOVRN
      000000D0H.4 SFRSYM    DATA     BIT       PSW_RS1
      000000B4H   SFRSYM    DATA     BYTE      SBRLL1
      000000E8H.7 SFRSYM    DATA     BIT       ADC0CN0_ADEN
      00000089H   SFRSYM    DATA     BYTE      TMOD
      00000088H   SFRSYM    DATA     BYTE      TCON
      000000D0H   SFRSYM    DATA     BIT       PSW_PARITY
      000000A8H.4 SFRSYM    DATA     BIT       IE_ES0
      0000009FH   SFRSYM    DATA     BYTE      CMP0MX
      000000A8H.1 SFRSYM    DATA     BIT       IE_ET0
      0000009EH   SFRSYM    DATA     BYTE      CMP1MX
      000000A8H.3 SFRSYM    DATA     BIT       IE_ET1
      000000D4H   SFRSYM    DATA     BYTE      P0SKIP
      000000C8H.1 SFRSYM    DATA     BIT       TMR2CN0_T2CSS
      000000A8H.5 SFRSYM    DATA     BIT       IE_ET2
      000000D5H   SFRSYM    DATA     BYTE      P1SKIP
      000000D6H   SFRSYM    DATA     BYTE      P2SKIP
      000000E8H   SFRSYM    DATA     BYTE      ADC0CN0
      000000A8H   SFRSYM    DATA     BIT       IE_EX0
      000000DFH   SFRSYM    DATA     BYTE      P3SKIP
      000000D8H.6 SFRSYM    DATA     BIT       PCA0CN0_CR
      000000A8H.2 SFRSYM    DATA     BIT       IE_EX1
      00000098H.7 SFRSYM    DATA     BIT       SCON0_SMODE
      000000A9H   SFRSYM    DATA     BYTE      CLKSEL
      000000F8H   SFRSYM    DATA     BIT       SPI0CN0_SPIEN
      000000F0H   SFRSYM    DATA     BYTE      B
      000000BEH   SFRSYM    DATA     BYTE      ADC0H
      000000E8H.6 SFRSYM    DATA     BIT       ADC0CN0_ADTM
      000000CAH   SFRSYM    DATA     WORD      TMR2RL
      000000BDH   SFRSYM    DATA     BYTE      ADC0L
      00000092H   SFRSYM    DATA     WORD      TMR3RL
      00000092H   SFRSYM    DATA     WORD      TMR4RL
      000000D8H   SFRSYM    DATA     BYTE      PCA0CN0
      000000E0H   SFRSYM    DATA     BYTE      ACC
      000000CAH   SFRSYM    DATA     WORD      TMR5RL
      000000FBH   SFRSYM    DATA     WORD      PCA0CP0
      00000080H.6 SFRSYM    DATA     BIT       LCD_CS
      000000E9H   SFRSYM    DATA     WORD      PCA0CP1
      000000EBH   SFRSYM    DATA     WORD      PCA0CP2
      000000EDH   SFRSYM    DATA     WORD      PCA0CP3
      0000008CH   SFRSYM    DATA     BYTE      TH0
      000000B8H.4 SFRSYM    DATA     BIT       IP_PS0
      000000FDH   SFRSYM    DATA     WORD      PCA0CP4
      0000008DH   SFRSYM    DATA     BYTE      TH1
      000000FAH   SFRSYM    DATA     BYTE      PCA0H
      000000B8H.1 SFRSYM    DATA     BIT       IP_PT0
LX51 LINKER/LOCATER V4.66.66.0                                                        03/09/2017  11:29:19  PAGE 132


      000000B8H.3 SFRSYM    DATA     BIT       IP_PT1
      000000C0H.2 SFRSYM    DATA     BIT       SMB0CN0_ARBLOST
      000000B8H.5 SFRSYM    DATA     BIT       IP_PT2
      0000008AH   SFRSYM    DATA     BYTE      TL0
      000000F8H.1 SFRSYM    DATA     BIT       SPI0CN0_TXBMT
      000000C0H.2 SFRSYM    DATA     BIT       SMB1CN0_ARBLOST
      000000D0H.5 SFRSYM    DATA     BIT       PSW_F0
      000000A8H.6 SFRSYM    DATA     BIT       IE_ESPI0
      0000008BH   SFRSYM    DATA     BYTE      TL1
      000000F9H   SFRSYM    DATA     BYTE      PCA0L
      000000C0H   SFRSYM    DATA     BIT       SMB0CN0_SI
      000000D0H.1 SFRSYM    DATA     BIT       PSW_F1
      00000080H   SFRSYM    DATA     BIT       P0_B0
      000000B8H   SFRSYM    DATA     BIT       IP_PX0
      000000C9H   SFRSYM    DATA     BYTE      REG01CN
      000000C0H   SFRSYM    DATA     BIT       SMB1CN0_SI
      00000090H   SFRSYM    DATA     BIT       P1_B0
      00000080H.1 SFRSYM    DATA     BIT       P0_B1
      000000B8H.2 SFRSYM    DATA     BIT       IP_PX1
      0000009BH   SFRSYM    DATA     BYTE      CMP0CN0
      00000088H.1 SFRSYM    DATA     BIT       TCON_IE0
      000000A0H   SFRSYM    DATA     BIT       P2_B0
      00000090H.1 SFRSYM    DATA     BIT       P1_B1
      00000080H.2 SFRSYM    DATA     BIT       P0_B2
      0000009AH   SFRSYM    DATA     BYTE      CMP1CN0
      00000088H.3 SFRSYM    DATA     BIT       TCON_IE1
      000000B0H   SFRSYM    DATA     BIT       P3_B0
      000000A0H.1 SFRSYM    DATA     BIT       P2_B1
      00000090H.2 SFRSYM    DATA     BIT       P1_B2
      00000080H.3 SFRSYM    DATA     BIT       P0_B3
      000000C0H   SFRSYM    DATA     BYTE      SMB0CN0
      000000B0H.1 SFRSYM    DATA     BIT       P3_B1
      000000A0H.2 SFRSYM    DATA     BIT       P2_B2
      00000090H.3 SFRSYM    DATA     BIT       P1_B3
      00000080H.4 SFRSYM    DATA     BIT       P0_B4
      000000C0H   SFRSYM    DATA     BYTE      SMB1CN0
      000000B0H.2 SFRSYM    DATA     BIT       P3_B2
      000000A0H.3 SFRSYM    DATA     BIT       P2_B3
      00000090H.4 SFRSYM    DATA     BIT       P1_B4
      00000080H.5 SFRSYM    DATA     BIT       P0_B5
      000000B0H.3 SFRSYM    DATA     BIT       P3_B3
      000000A0H.4 SFRSYM    DATA     BIT       P2_B4
      00000090H.5 SFRSYM    DATA     BIT       P1_B5
      00000080H.6 SFRSYM    DATA     BIT       P0_B6
      00000080H.2 SFRSYM    DATA     BIT       LCD_RS
      000000B0H.4 SFRSYM    DATA     BIT       P3_B4
      000000A0H.5 SFRSYM    DATA     BIT       P2_B5
      00000090H.6 SFRSYM    DATA     BIT       P1_B6
      00000080H.7 SFRSYM    DATA     BIT       P0_B7
      000000B0H.5 SFRSYM    DATA     BIT       P3_B5
      000000A0H.6 SFRSYM    DATA     BIT       P2_B6
      00000090H.7 SFRSYM    DATA     BIT       P1_B7
      000000B0H.6 SFRSYM    DATA     BIT       P3_B6
      000000A0H.7 SFRSYM    DATA     BIT       P2_B7
      000000B0H.7 SFRSYM    DATA     BIT       P3_B7
      00000083H   SFRSYM    DATA     BYTE      DPH
      000000C4H   SFRSYM    DATA     BYTE      ADC0GTH
      000000C8H.7 SFRSYM    DATA     BIT       TMR2CN0_TF2H
      000000C8H.3 SFRSYM    DATA     BIT       TMR2CN0_T2SPLIT
      000000D0H.6 SFRSYM    DATA     BIT       PSW_AC
      000000F8H   SFRSYM    DATA     BYTE      SPI0CN0
      000000B3H   SFRSYM    DATA     BYTE      HFO0CAL
      00000080H   SFRSYM    DATA     BIT       BtnEntGpio
      00000088H.5 SFRSYM    DATA     BIT       TCON_TF0
      00000098H   SFRSYM    DATA     BIT       SCON0_RI
LX51 LINKER/LOCATER V4.66.66.0                                                        03/09/2017  11:29:19  PAGE 133


      00000082H   SFRSYM    DATA     BYTE      DPL
      00000088H.7 SFRSYM    DATA     BIT       TCON_TF1
      00000099H   SFRSYM    DATA     BYTE      SBUF0
      00000087H   SFRSYM    DATA     BYTE      PCON0
      000000C3H   SFRSYM    DATA     BYTE      ADC0GTL
      000000C8H.6 SFRSYM    DATA     BIT       TMR2CN0_TF2L
      00000098H.1 SFRSYM    DATA     BIT       SCON0_TI
      000000E8H   SFRSYM    DATA     BIT       ADC0CN0_ADCM0
      000000D3H   SFRSYM    DATA     BYTE      SBUF1
      000000C6H   SFRSYM    DATA     BYTE      ADC0LTH
      00000088H   SFRSYM    DATA     BIT       TCON_IT0
      000000E8H.1 SFRSYM    DATA     BIT       ADC0CN0_ADCM1
      000000EFH   SFRSYM    DATA     BYTE      RSTSRC
      000000C8H.7 SFRSYM    DATA     BIT       TMR5CN0_TF5H
      000000C8H.3 SFRSYM    DATA     BIT       TMR5CN0_T5SPLIT
      00000088H.2 SFRSYM    DATA     BIT       TCON_IT1
      000000E8H.2 SFRSYM    DATA     BIT       ADC0CN0_ADCM2
      00000098H   SFRSYM    DATA     BYTE      SCON0
      000000E8H.3 SFRSYM    DATA     BIT       ADC0CN0_ADWINT
      000000B4H   SFRSYM    DATA     WORD      SBRL1
      000000E5H   SFRSYM    DATA     BYTE      SMOD1
      000000D2H   SFRSYM    DATA     BYTE      SCON1
      000000BAH   SFRSYM    DATA     BYTE      AMX0N
      000000E8H.4 SFRSYM    DATA     BIT       ADC0CN0_ADBUSY
      000000CEH   SFRSYM    DATA     BYTE      SMB0ADM
      000000C5H   SFRSYM    DATA     BYTE      ADC0LTL
      000000F8H.5 SFRSYM    DATA     BIT       SPI0CN0_MODF
      000000B8H.6 SFRSYM    DATA     BIT       IP_PSPI0
      000000CEH   SFRSYM    DATA     BYTE      SMB1ADM
      000000BBH   SFRSYM    DATA     BYTE      AMX0P
      000000C8H.6 SFRSYM    DATA     BIT       TMR5CN0_TF5L
      000000C8H   SFRSYM    DATA     BYTE      TMR2CN0
      00000091H   SFRSYM    DATA     BYTE      TMR3CN0
      00000080H.1 SFRSYM    DATA     BIT       BtnExtGpio
      00000091H   SFRSYM    DATA     BYTE      TMR4CN0
      000000C8H   SFRSYM    DATA     BYTE      TMR5CN0
      000000CFH   SFRSYM    DATA     BYTE      SMB0ADR
      00000088H.4 SFRSYM    DATA     BIT       TCON_TR0
      000000CFH   SFRSYM    DATA     BYTE      SMB1ADR
      000000C8H.4 SFRSYM    DATA     BIT       TMR2CN0_TF2CEN
      00000088H.6 SFRSYM    DATA     BIT       TCON_TR1
      000000C2H   SFRSYM    DATA     BYTE      SMB0DAT
      00000080H.4 SFRSYM    DATA     BIT       RC_OUT
      000000CDH   SFRSYM    DATA     BYTE      TMR2H
      000000A1H   SFRSYM    DATA     BYTE      SPI0CFG
      000000C2H   SFRSYM    DATA     BYTE      SMB1DAT
      00000095H   SFRSYM    DATA     BYTE      TMR3H
      00000095H   SFRSYM    DATA     BYTE      TMR4H
      000000CDH   SFRSYM    DATA     BYTE      TMR5H
      000000CCH   SFRSYM    DATA     BYTE      TMR2L
      00000090H.5 SFRSYM    DATA     BIT       BtnDwGpio
      000000F8H.7 SFRSYM    DATA     BIT       SPI0CN0_SPIF
      00000096H   SFRSYM    DATA     BYTE      USB0ADR
      00000094H   SFRSYM    DATA     BYTE      TMR3L
      000000A8H.7 SFRSYM    DATA     BIT       IE_EA
      00000094H   SFRSYM    DATA     BYTE      TMR4L
      00000097H   SFRSYM    DATA     BYTE      USB0DAT
      000000CCH   SFRSYM    DATA     BYTE      TMR5L
      000000B6H   SFRSYM    DATA     BYTE      FLSCL
      000000C8H.5 SFRSYM    DATA     BIT       TMR2CN0_TF2LEN
      000000F8H.6 SFRSYM    DATA     BIT       SPI0CN0_WCOL
      000000F8H.2 SFRSYM    DATA     BIT       SPI0CN0_NSSMD0
      000000D0H.7 SFRSYM    DATA     BIT       PSW_CY
      000000A3H   SFRSYM    DATA     BYTE      SPI0DAT
      000000F8H.3 SFRSYM    DATA     BIT       SPI0CN0_NSSMD1
LX51 LINKER/LOCATER V4.66.66.0                                                        03/09/2017  11:29:19  PAGE 134


      000000BDH   SFRSYM    DATA     WORD      ADC0
      000000B9H   SFRSYM    DATA     BYTE      SMBTC
      000000D0H   SFRSYM    DATA     BYTE      PSW
      000000C8H.5 SFRSYM    DATA     BIT       TMR5CN0_TF5LEN
      000000B7H   SFRSYM    DATA     BYTE      FLKEY
      00000090H.4 SFRSYM    DATA     BIT       BtnUpGpio

      01005C44H   BLOCK     CODE     ---       LVL=0
      02000A09H   SYMBOL    XDATA    BYTE      event
      01005C44H   LINE      CODE     ---       #27
      01005C49H   LINE      CODE     ---       #28
      01005C53H   LINE      CODE     ---       #29
      01005C58H   LINE      CODE     ---       #30
      01005C60H   LINE      CODE     ---       #31
      01005C6FH   LINE      CODE     ---       #32
      01005C75H   LINE      CODE     ---       #33
      01005C75H   LINE      CODE     ---       #34
      01005C84H   LINE      CODE     ---       #35
      01005C8AH   LINE      CODE     ---       #36
      01005C8DH   LINE      CODE     ---       #37
      01005C8DH   LINE      CODE     ---       #39
      01005C90H   LINE      CODE     ---       #40
      01005CB6H   LINE      CODE     ---       #42
      01005CBEH   LINE      CODE     ---       #43
      01005CE1H   LINE      CODE     ---       #44
      01005D04H   LINE      CODE     ---       #45
      01005D06H   LINE      CODE     ---       #46
      01005D0CH   LINE      CODE     ---       #47
      01005D1AH   LINE      CODE     ---       #48
      01005D1AH   LINE      CODE     ---       #49
      01005D1AH   LINE      CODE     ---       #50
      01005D22H   LINE      CODE     ---       #51
      01005D2BH   LINE      CODE     ---       #52
      01005D30H   LINE      CODE     ---       #53
      01005D3EH   LINE      CODE     ---       #54
      01005D40H   LINE      CODE     ---       #55
      01005D45H   LINE      CODE     ---       #56
      01005D45H   LINE      CODE     ---       #57
      01005D45H   LINE      CODE     ---       #58
      01005D47H   LINE      CODE     ---       #59
      ---         BLOCKEND  ---      ---       LVL=0

      01002A5AH   BLOCK     CODE     ---       LVL=0
      01002A5AH   BLOCK     CODE     NEAR LAB  LVL=1
      02000A0AH   SYMBOL    XDATA    BYTE      i
      ---         BLOCKEND  ---      ---       LVL=1
      01002A5AH   LINE      CODE     ---       #61
      01002A5AH   LINE      CODE     ---       #64
      01002A74H   LINE      CODE     ---       #65
      01002A7DH   LINE      CODE     ---       #66
      01002A8BH   LINE      CODE     ---       #67
      01002A8DH   LINE      CODE     ---       #68
      01002A9BH   LINE      CODE     ---       #69
      01002AA9H   LINE      CODE     ---       #71
      01002AB9H   LINE      CODE     ---       #72
      01002AE5H   LINE      CODE     ---       #73
      01002AEDH   LINE      CODE     ---       #75
      01002AF0H   LINE      CODE     ---       #76
      01002AF3H   LINE      CODE     ---       #77
      01002AF5H   LINE      CODE     ---       #78
      01002AF5H   LINE      CODE     ---       #79
      01002AF5H   LINE      CODE     ---       #81
      01002B03H   LINE      CODE     ---       #82
      01002B29H   LINE      CODE     ---       #83
      01002B39H   LINE      CODE     ---       #84
LX51 LINKER/LOCATER V4.66.66.0                                                        03/09/2017  11:29:19  PAGE 135


      01002B5FH   LINE      CODE     ---       #85
      01002B5FH   LINE      CODE     ---       #87
      01002B6DH   LINE      CODE     ---       #88
      01002B93H   LINE      CODE     ---       #89
      01002BA3H   LINE      CODE     ---       #90
      01002BC9H   LINE      CODE     ---       #91
      01002BC9H   LINE      CODE     ---       #93
      01002BD7H   LINE      CODE     ---       #94
      01002BFDH   LINE      CODE     ---       #95
      01002C0DH   LINE      CODE     ---       #96
      01002C33H   LINE      CODE     ---       #97
      01002C33H   LINE      CODE     ---       #99
      01002C41H   LINE      CODE     ---       #100
      01002C67H   LINE      CODE     ---       #101
      01002C77H   LINE      CODE     ---       #102
      01002C9DH   LINE      CODE     ---       #103
      01002CADH   LINE      CODE     ---       #104
      01002CD3H   LINE      CODE     ---       #105
      01002CD3H   LINE      CODE     ---       #107
      01002CE1H   LINE      CODE     ---       #108
      01002D07H   LINE      CODE     ---       #109
      01002D17H   LINE      CODE     ---       #110
      01002D3DH   LINE      CODE     ---       #111
      01002D4DH   LINE      CODE     ---       #112
      01002D73H   LINE      CODE     ---       #113
      01002D73H   LINE      CODE     ---       #115
      01002D81H   LINE      CODE     ---       #116
      01002DA7H   LINE      CODE     ---       #117
      01002DB6H   LINE      CODE     ---       #118
      01002DDCH   LINE      CODE     ---       #119
      01002DEBH   LINE      CODE     ---       #120
      01002E11H   LINE      CODE     ---       #121
      01002E11H   LINE      CODE     ---       #122
      ---         BLOCKEND  ---      ---       LVL=0

      ---         MODULE    ---      ---       PAGELIPOCELLS
      02000990H   PUBLIC    XDATA    ---       LipoCellsEscMs
      01002E12H   PUBLIC    CODE     ---       _PageBatVolt
      000000A2H   SFRSYM    DATA     BYTE      SPI0CKR
      00000080H   SFRSYM    DATA     BYTE      P0
      000000D0H.2 SFRSYM    DATA     BIT       PSW_OV
      000000B1H   SFRSYM    DATA     BYTE      XOSC0CN
      00000090H   SFRSYM    DATA     BYTE      P1
      000000A0H   SFRSYM    DATA     BYTE      P2
      000000B0H   SFRSYM    DATA     BYTE      P3
      000000BCH   SFRSYM    DATA     BYTE      ADC0CF
      000000C8H   SFRSYM    DATA     BIT       TMR2CN0_T2XCLK
      000000C7H   SFRSYM    DATA     BYTE      P4
      000000C0H.7 SFRSYM    DATA     BIT       SMB0CN0_MASTER
      000000F9H   SFRSYM    DATA     WORD      PCA0
      000000E6H   SFRSYM    DATA     BYTE      EIE1
      000000C0H.7 SFRSYM    DATA     BIT       SMB1CN0_MASTER
      000000C0H.1 SFRSYM    DATA     BIT       SMB0CN0_ACK
      000000D7H   SFRSYM    DATA     BYTE      USB0XCN
      000000E7H   SFRSYM    DATA     BYTE      EIE2
      000000C0H.1 SFRSYM    DATA     BIT       SMB1CN0_ACK
      0000008FH   SFRSYM    DATA     BYTE      PSCTL
      000000E4H   SFRSYM    DATA     BYTE      IT01CF
      000000C8H   SFRSYM    DATA     BIT       TMR5CN0_T5XCLK
      000000C0H.6 SFRSYM    DATA     BIT       SMB0CN0_TXMODE
      000000C0H.6 SFRSYM    DATA     BIT       SMB1CN0_TXMODE
      000000BFH   SFRSYM    DATA     BYTE      SFRPAGE
      000000A4H   SFRSYM    DATA     BYTE      P0MDOUT
      00000080H.5 SFRSYM    DATA     BIT       LCD_SDA
      000000A5H   SFRSYM    DATA     BYTE      P1MDOUT
LX51 LINKER/LOCATER V4.66.66.0                                                        03/09/2017  11:29:19  PAGE 136


      000000E8H.5 SFRSYM    DATA     BIT       ADC0CN0_ADINT
      000000CBH   SFRSYM    DATA     BYTE      TMR2RLH
      000000A6H   SFRSYM    DATA     BYTE      P2MDOUT
      000000A8H   SFRSYM    DATA     BYTE      IE
      00000093H   SFRSYM    DATA     BYTE      TMR3RLH
      000000A7H   SFRSYM    DATA     BYTE      P3MDOUT
      00000093H   SFRSYM    DATA     BYTE      TMR4RLH
      000000AEH   SFRSYM    DATA     BYTE      P4MDOUT
      000000F6H   SFRSYM    DATA     BYTE      EIP1
      000000CBH   SFRSYM    DATA     BYTE      TMR5RLH
      000000F7H   SFRSYM    DATA     BYTE      EIP2
      00000098H.2 SFRSYM    DATA     BIT       SCON0_RB8
      000000CAH   SFRSYM    DATA     BYTE      TMR2RLL
      000000FCH   SFRSYM    DATA     BYTE      PCA0CPH0
      00000092H   SFRSYM    DATA     BYTE      TMR3RLL
      000000EAH   SFRSYM    DATA     BYTE      PCA0CPH1
      00000098H.3 SFRSYM    DATA     BIT       SCON0_TB8
      000000F0H   SFRSYM    DATA     BIT       B_B0
      00000082H   SFRSYM    DATA     WORD      DP
      00000092H   SFRSYM    DATA     BYTE      TMR4RLL
      000000ECH   SFRSYM    DATA     BYTE      PCA0CPH2
      000000F0H.1 SFRSYM    DATA     BIT       B_B1
      000000C3H   SFRSYM    DATA     WORD      ADC0GT
      000000CAH   SFRSYM    DATA     BYTE      TMR5RLL
      000000EEH   SFRSYM    DATA     BYTE      PCA0CPH3
      00000080H.3 SFRSYM    DATA     BIT       LCD_SCK
      000000F0H.2 SFRSYM    DATA     BIT       B_B2
      000000FBH   SFRSYM    DATA     BYTE      PCA0CPL0
      000000FEH   SFRSYM    DATA     BYTE      PCA0CPH4
      00000085H   SFRSYM    DATA     BYTE      EMI0CF
      000000F0H.3 SFRSYM    DATA     BIT       B_B3
      000000D9H   SFRSYM    DATA     BYTE      PCA0MD
      000000DAH   SFRSYM    DATA     BYTE      PCA0CPM0
      000000E9H   SFRSYM    DATA     BYTE      PCA0CPL1
      000000F0H.4 SFRSYM    DATA     BIT       B_B4
      000000DBH   SFRSYM    DATA     BYTE      PCA0CPM1
      000000EBH   SFRSYM    DATA     BYTE      PCA0CPL2
      000000F0H.5 SFRSYM    DATA     BIT       B_B5
      000000DCH   SFRSYM    DATA     BYTE      PCA0CPM2
      000000EDH   SFRSYM    DATA     BYTE      PCA0CPL3
      000000B8H   SFRSYM    DATA     BYTE      IP
      000000F0H.6 SFRSYM    DATA     BIT       B_B6
      000000C5H   SFRSYM    DATA     WORD      ADC0LT
      000000DDH   SFRSYM    DATA     BYTE      PCA0CPM3
      000000FDH   SFRSYM    DATA     BYTE      PCA0CPL4
      00000098H.5 SFRSYM    DATA     BIT       SCON0_MCE
      000000F0H.7 SFRSYM    DATA     BIT       B_B7
      000000DEH   SFRSYM    DATA     BYTE      PCA0CPM4
      000000E1H   SFRSYM    DATA     BYTE      XBR0
      000000C1H   SFRSYM    DATA     BYTE      SMB0CF
      000000E2H   SFRSYM    DATA     BYTE      XBR1
      000000C1H   SFRSYM    DATA     BYTE      SMB1CF
      000000AFH   SFRSYM    DATA     BYTE      PFE0CN
      000000AAH   SFRSYM    DATA     BYTE      EMI0CN
      000000C0H.5 SFRSYM    DATA     BIT       SMB0CN0_STA
      000000E3H   SFRSYM    DATA     BYTE      XBR2
      000000C0H.5 SFRSYM    DATA     BIT       SMB1CN0_STA
      000000E0H   SFRSYM    DATA     BIT       ACC_ACC0
      000000D1H   SFRSYM    DATA     BYTE      REF0CN
      000000B2H   SFRSYM    DATA     BYTE      HFO0CN
      0000008EH   SFRSYM    DATA     BYTE      CKCON0
      000000E0H.1 SFRSYM    DATA     BIT       ACC_ACC1
      000000E4H   SFRSYM    DATA     BYTE      CKCON1
      000000C8H.2 SFRSYM    DATA     BIT       TMR2CN0_TR2
      000000E0H.2 SFRSYM    DATA     BIT       ACC_ACC2
LX51 LINKER/LOCATER V4.66.66.0                                                        03/09/2017  11:29:19  PAGE 137


      000000E0H.3 SFRSYM    DATA     BIT       ACC_ACC3
      00000081H   SFRSYM    DATA     BYTE      SP
      0000009DH   SFRSYM    DATA     BYTE      CMP0MD
      000000E0H.4 SFRSYM    DATA     BIT       ACC_ACC4
      00000086H   SFRSYM    DATA     BYTE      LFO0CN
      00000084H   SFRSYM    DATA     BYTE      EMI0TC
      0000009CH   SFRSYM    DATA     BYTE      CMP1MD
      000000D8H   SFRSYM    DATA     BIT       PCA0CN0_CCF0
      000000E0H.5 SFRSYM    DATA     BIT       ACC_ACC5
      000000D8H.1 SFRSYM    DATA     BIT       PCA0CN0_CCF1
      000000E0H.6 SFRSYM    DATA     BIT       ACC_ACC6
      000000CCH   SFRSYM    DATA     WORD      TMR2
      000000D8H.2 SFRSYM    DATA     BIT       PCA0CN0_CCF2
      000000E0H.7 SFRSYM    DATA     BIT       ACC_ACC7
      00000094H   SFRSYM    DATA     WORD      TMR3
      000000C8H.2 SFRSYM    DATA     BIT       TMR5CN0_TR5
      000000D8H.3 SFRSYM    DATA     BIT       PCA0CN0_CCF3
      00000094H   SFRSYM    DATA     WORD      TMR4
      000000ACH   SFRSYM    DATA     BYTE      SBCON1
      000000D8H.4 SFRSYM    DATA     BIT       PCA0CN0_CCF4
      000000CCH   SFRSYM    DATA     WORD      TMR5
      000000C0H.3 SFRSYM    DATA     BIT       SMB0CN0_ACKRQ
      000000FFH   SFRSYM    DATA     BYTE      VDM0CN
      000000F1H   SFRSYM    DATA     BYTE      P0MDIN
      000000C0H.3 SFRSYM    DATA     BIT       SMB1CN0_ACKRQ
      00000098H.4 SFRSYM    DATA     BIT       SCON0_REN
      000000F2H   SFRSYM    DATA     BYTE      P1MDIN
      000000F3H   SFRSYM    DATA     BYTE      P2MDIN
      000000C0H.4 SFRSYM    DATA     BIT       SMB0CN0_STO
      000000F4H   SFRSYM    DATA     BYTE      P3MDIN
      00000090H.3 SFRSYM    DATA     BIT       LCD_RST
      000000C0H.4 SFRSYM    DATA     BIT       SMB1CN0_STO
      000000B5H   SFRSYM    DATA     BYTE      SBRLH1
      000000F5H   SFRSYM    DATA     BYTE      P4MDIN
      000000D0H.3 SFRSYM    DATA     BIT       PSW_RS0
      000000D8H.7 SFRSYM    DATA     BIT       PCA0CN0_CF
      000000F8H.4 SFRSYM    DATA     BIT       SPI0CN0_RXOVRN
      000000D0H.4 SFRSYM    DATA     BIT       PSW_RS1
      000000B4H   SFRSYM    DATA     BYTE      SBRLL1
      000000E8H.7 SFRSYM    DATA     BIT       ADC0CN0_ADEN
      00000089H   SFRSYM    DATA     BYTE      TMOD
      00000088H   SFRSYM    DATA     BYTE      TCON
      000000D0H   SFRSYM    DATA     BIT       PSW_PARITY
      000000A8H.4 SFRSYM    DATA     BIT       IE_ES0
      0000009FH   SFRSYM    DATA     BYTE      CMP0MX
      000000A8H.1 SFRSYM    DATA     BIT       IE_ET0
      0000009EH   SFRSYM    DATA     BYTE      CMP1MX
      000000A8H.3 SFRSYM    DATA     BIT       IE_ET1
      000000D4H   SFRSYM    DATA     BYTE      P0SKIP
      000000C8H.1 SFRSYM    DATA     BIT       TMR2CN0_T2CSS
      000000A8H.5 SFRSYM    DATA     BIT       IE_ET2
      000000D5H   SFRSYM    DATA     BYTE      P1SKIP
      000000D6H   SFRSYM    DATA     BYTE      P2SKIP
      000000E8H   SFRSYM    DATA     BYTE      ADC0CN0
      000000A8H   SFRSYM    DATA     BIT       IE_EX0
      000000DFH   SFRSYM    DATA     BYTE      P3SKIP
      000000D8H.6 SFRSYM    DATA     BIT       PCA0CN0_CR
      000000A8H.2 SFRSYM    DATA     BIT       IE_EX1
      00000098H.7 SFRSYM    DATA     BIT       SCON0_SMODE
      000000A9H   SFRSYM    DATA     BYTE      CLKSEL
      000000F8H   SFRSYM    DATA     BIT       SPI0CN0_SPIEN
      000000F0H   SFRSYM    DATA     BYTE      B
      000000BEH   SFRSYM    DATA     BYTE      ADC0H
      000000E8H.6 SFRSYM    DATA     BIT       ADC0CN0_ADTM
      000000CAH   SFRSYM    DATA     WORD      TMR2RL
LX51 LINKER/LOCATER V4.66.66.0                                                        03/09/2017  11:29:19  PAGE 138


      000000BDH   SFRSYM    DATA     BYTE      ADC0L
      00000092H   SFRSYM    DATA     WORD      TMR3RL
      00000092H   SFRSYM    DATA     WORD      TMR4RL
      000000D8H   SFRSYM    DATA     BYTE      PCA0CN0
      000000E0H   SFRSYM    DATA     BYTE      ACC
      000000CAH   SFRSYM    DATA     WORD      TMR5RL
      000000FBH   SFRSYM    DATA     WORD      PCA0CP0
      00000080H.6 SFRSYM    DATA     BIT       LCD_CS
      000000E9H   SFRSYM    DATA     WORD      PCA0CP1
      000000EBH   SFRSYM    DATA     WORD      PCA0CP2
      000000EDH   SFRSYM    DATA     WORD      PCA0CP3
      0000008CH   SFRSYM    DATA     BYTE      TH0
      000000B8H.4 SFRSYM    DATA     BIT       IP_PS0
      000000FDH   SFRSYM    DATA     WORD      PCA0CP4
      0000008DH   SFRSYM    DATA     BYTE      TH1
      000000FAH   SFRSYM    DATA     BYTE      PCA0H
      000000B8H.1 SFRSYM    DATA     BIT       IP_PT0
      000000B8H.3 SFRSYM    DATA     BIT       IP_PT1
      000000C0H.2 SFRSYM    DATA     BIT       SMB0CN0_ARBLOST
      000000B8H.5 SFRSYM    DATA     BIT       IP_PT2
      0000008AH   SFRSYM    DATA     BYTE      TL0
      000000F8H.1 SFRSYM    DATA     BIT       SPI0CN0_TXBMT
      000000C0H.2 SFRSYM    DATA     BIT       SMB1CN0_ARBLOST
      000000D0H.5 SFRSYM    DATA     BIT       PSW_F0
      000000A8H.6 SFRSYM    DATA     BIT       IE_ESPI0
      0000008BH   SFRSYM    DATA     BYTE      TL1
      000000F9H   SFRSYM    DATA     BYTE      PCA0L
      000000C0H   SFRSYM    DATA     BIT       SMB0CN0_SI
      000000D0H.1 SFRSYM    DATA     BIT       PSW_F1
      00000080H   SFRSYM    DATA     BIT       P0_B0
      000000B8H   SFRSYM    DATA     BIT       IP_PX0
      000000C9H   SFRSYM    DATA     BYTE      REG01CN
      000000C0H   SFRSYM    DATA     BIT       SMB1CN0_SI
      00000090H   SFRSYM    DATA     BIT       P1_B0
      00000080H.1 SFRSYM    DATA     BIT       P0_B1
      000000B8H.2 SFRSYM    DATA     BIT       IP_PX1
      0000009BH   SFRSYM    DATA     BYTE      CMP0CN0
      00000088H.1 SFRSYM    DATA     BIT       TCON_IE0
      000000A0H   SFRSYM    DATA     BIT       P2_B0
      00000090H.1 SFRSYM    DATA     BIT       P1_B1
      00000080H.2 SFRSYM    DATA     BIT       P0_B2
      0000009AH   SFRSYM    DATA     BYTE      CMP1CN0
      00000088H.3 SFRSYM    DATA     BIT       TCON_IE1
      000000B0H   SFRSYM    DATA     BIT       P3_B0
      000000A0H.1 SFRSYM    DATA     BIT       P2_B1
      00000090H.2 SFRSYM    DATA     BIT       P1_B2
      00000080H.3 SFRSYM    DATA     BIT       P0_B3
      000000C0H   SFRSYM    DATA     BYTE      SMB0CN0
      000000B0H.1 SFRSYM    DATA     BIT       P3_B1
      000000A0H.2 SFRSYM    DATA     BIT       P2_B2
      00000090H.3 SFRSYM    DATA     BIT       P1_B3
      00000080H.4 SFRSYM    DATA     BIT       P0_B4
      000000C0H   SFRSYM    DATA     BYTE      SMB1CN0
      000000B0H.2 SFRSYM    DATA     BIT       P3_B2
      000000A0H.3 SFRSYM    DATA     BIT       P2_B3
      00000090H.4 SFRSYM    DATA     BIT       P1_B4
      00000080H.5 SFRSYM    DATA     BIT       P0_B5
      000000B0H.3 SFRSYM    DATA     BIT       P3_B3
      000000A0H.4 SFRSYM    DATA     BIT       P2_B4
      00000090H.5 SFRSYM    DATA     BIT       P1_B5
      00000080H.6 SFRSYM    DATA     BIT       P0_B6
      00000080H.2 SFRSYM    DATA     BIT       LCD_RS
      000000B0H.4 SFRSYM    DATA     BIT       P3_B4
      000000A0H.5 SFRSYM    DATA     BIT       P2_B5
      00000090H.6 SFRSYM    DATA     BIT       P1_B6
LX51 LINKER/LOCATER V4.66.66.0                                                        03/09/2017  11:29:19  PAGE 139


      00000080H.7 SFRSYM    DATA     BIT       P0_B7
      000000B0H.5 SFRSYM    DATA     BIT       P3_B5
      000000A0H.6 SFRSYM    DATA     BIT       P2_B6
      00000090H.7 SFRSYM    DATA     BIT       P1_B7
      000000B0H.6 SFRSYM    DATA     BIT       P3_B6
      000000A0H.7 SFRSYM    DATA     BIT       P2_B7
      000000B0H.7 SFRSYM    DATA     BIT       P3_B7
      00000083H   SFRSYM    DATA     BYTE      DPH
      000000C4H   SFRSYM    DATA     BYTE      ADC0GTH
      000000C8H.7 SFRSYM    DATA     BIT       TMR2CN0_TF2H
      000000C8H.3 SFRSYM    DATA     BIT       TMR2CN0_T2SPLIT
      000000D0H.6 SFRSYM    DATA     BIT       PSW_AC
      000000F8H   SFRSYM    DATA     BYTE      SPI0CN0
      000000B3H   SFRSYM    DATA     BYTE      HFO0CAL
      00000080H   SFRSYM    DATA     BIT       BtnEntGpio
      00000088H.5 SFRSYM    DATA     BIT       TCON_TF0
      00000098H   SFRSYM    DATA     BIT       SCON0_RI
      00000082H   SFRSYM    DATA     BYTE      DPL
      00000088H.7 SFRSYM    DATA     BIT       TCON_TF1
      00000099H   SFRSYM    DATA     BYTE      SBUF0
      00000087H   SFRSYM    DATA     BYTE      PCON0
      000000C3H   SFRSYM    DATA     BYTE      ADC0GTL
      000000C8H.6 SFRSYM    DATA     BIT       TMR2CN0_TF2L
      00000098H.1 SFRSYM    DATA     BIT       SCON0_TI
      000000E8H   SFRSYM    DATA     BIT       ADC0CN0_ADCM0
      000000D3H   SFRSYM    DATA     BYTE      SBUF1
      000000C6H   SFRSYM    DATA     BYTE      ADC0LTH
      00000088H   SFRSYM    DATA     BIT       TCON_IT0
      000000E8H.1 SFRSYM    DATA     BIT       ADC0CN0_ADCM1
      000000EFH   SFRSYM    DATA     BYTE      RSTSRC
      000000C8H.7 SFRSYM    DATA     BIT       TMR5CN0_TF5H
      000000C8H.3 SFRSYM    DATA     BIT       TMR5CN0_T5SPLIT
      00000088H.2 SFRSYM    DATA     BIT       TCON_IT1
      000000E8H.2 SFRSYM    DATA     BIT       ADC0CN0_ADCM2
      00000098H   SFRSYM    DATA     BYTE      SCON0
      000000E8H.3 SFRSYM    DATA     BIT       ADC0CN0_ADWINT
      000000B4H   SFRSYM    DATA     WORD      SBRL1
      000000E5H   SFRSYM    DATA     BYTE      SMOD1
      000000D2H   SFRSYM    DATA     BYTE      SCON1
      000000BAH   SFRSYM    DATA     BYTE      AMX0N
      000000E8H.4 SFRSYM    DATA     BIT       ADC0CN0_ADBUSY
      000000CEH   SFRSYM    DATA     BYTE      SMB0ADM
      000000C5H   SFRSYM    DATA     BYTE      ADC0LTL
      000000F8H.5 SFRSYM    DATA     BIT       SPI0CN0_MODF
      000000B8H.6 SFRSYM    DATA     BIT       IP_PSPI0
      000000CEH   SFRSYM    DATA     BYTE      SMB1ADM
      000000BBH   SFRSYM    DATA     BYTE      AMX0P
      000000C8H.6 SFRSYM    DATA     BIT       TMR5CN0_TF5L
      000000C8H   SFRSYM    DATA     BYTE      TMR2CN0
      00000091H   SFRSYM    DATA     BYTE      TMR3CN0
      00000080H.1 SFRSYM    DATA     BIT       BtnExtGpio
      00000091H   SFRSYM    DATA     BYTE      TMR4CN0
      000000C8H   SFRSYM    DATA     BYTE      TMR5CN0
      000000CFH   SFRSYM    DATA     BYTE      SMB0ADR
      00000088H.4 SFRSYM    DATA     BIT       TCON_TR0
      000000CFH   SFRSYM    DATA     BYTE      SMB1ADR
      000000C8H.4 SFRSYM    DATA     BIT       TMR2CN0_TF2CEN
      00000088H.6 SFRSYM    DATA     BIT       TCON_TR1
      000000C2H   SFRSYM    DATA     BYTE      SMB0DAT
      00000080H.4 SFRSYM    DATA     BIT       RC_OUT
      000000CDH   SFRSYM    DATA     BYTE      TMR2H
      000000A1H   SFRSYM    DATA     BYTE      SPI0CFG
      000000C2H   SFRSYM    DATA     BYTE      SMB1DAT
      00000095H   SFRSYM    DATA     BYTE      TMR3H
      00000095H   SFRSYM    DATA     BYTE      TMR4H
LX51 LINKER/LOCATER V4.66.66.0                                                        03/09/2017  11:29:19  PAGE 140


      000000CDH   SFRSYM    DATA     BYTE      TMR5H
      000000CCH   SFRSYM    DATA     BYTE      TMR2L
      00000090H.5 SFRSYM    DATA     BIT       BtnDwGpio
      000000F8H.7 SFRSYM    DATA     BIT       SPI0CN0_SPIF
      00000096H   SFRSYM    DATA     BYTE      USB0ADR
      00000094H   SFRSYM    DATA     BYTE      TMR3L
      000000A8H.7 SFRSYM    DATA     BIT       IE_EA
      00000094H   SFRSYM    DATA     BYTE      TMR4L
      00000097H   SFRSYM    DATA     BYTE      USB0DAT
      000000CCH   SFRSYM    DATA     BYTE      TMR5L
      000000B6H   SFRSYM    DATA     BYTE      FLSCL
      000000C8H.5 SFRSYM    DATA     BIT       TMR2CN0_TF2LEN
      000000F8H.6 SFRSYM    DATA     BIT       SPI0CN0_WCOL
      000000F8H.2 SFRSYM    DATA     BIT       SPI0CN0_NSSMD0
      000000D0H.7 SFRSYM    DATA     BIT       PSW_CY
      000000A3H   SFRSYM    DATA     BYTE      SPI0DAT
      000000F8H.3 SFRSYM    DATA     BIT       SPI0CN0_NSSMD1
      000000BDH   SFRSYM    DATA     WORD      ADC0
      000000B9H   SFRSYM    DATA     BYTE      SMBTC
      000000D0H   SFRSYM    DATA     BYTE      PSW
      000000C8H.5 SFRSYM    DATA     BIT       TMR5CN0_TF5LEN
      000000B7H   SFRSYM    DATA     BYTE      FLKEY
      00000090H.4 SFRSYM    DATA     BIT       BtnUpGpio

      01002E12H   BLOCK     CODE     ---       LVL=0
      02000A0BH   SYMBOL    XDATA    BYTE      event
      01002E12H   LINE      CODE     ---       #6
      01002E17H   LINE      CODE     ---       #7
      01002E17H   LINE      CODE     ---       #8
      01002E21H   LINE      CODE     ---       #9
      01002E26H   LINE      CODE     ---       #10
      01002E2EH   LINE      CODE     ---       #11
      01002E3DH   LINE      CODE     ---       #12
      01002E42H   LINE      CODE     ---       #13
      01002E48H   LINE      CODE     ---       #14
      01002E48H   LINE      CODE     ---       #15
      01002E4EH   LINE      CODE     ---       #16
      01002E51H   LINE      CODE     ---       #17
      01002E5CH   LINE      CODE     ---       #18
      01002E64H   LINE      CODE     ---       #19
      01002E69H   LINE      CODE     ---       #20
      01002E77H   LINE      CODE     ---       #21
      01002E77H   LINE      CODE     ---       #22
      01002E77H   LINE      CODE     ---       #24
      01002E82H   LINE      CODE     ---       #25
      01002E8BH   LINE      CODE     ---       #26
      01002EABH   LINE      CODE     ---       #28
      01002EB7H   LINE      CODE     ---       #29
      01002EC8H   LINE      CODE     ---       #30
      01002ED8H   LINE      CODE     ---       #31
      01002EE9H   LINE      CODE     ---       #32
      01002EE9H   LINE      CODE     ---       #33
      01002F01H   LINE      CODE     ---       #34
      01002F01H   LINE      CODE     ---       #36
      01002F0DH   LINE      CODE     ---       #37
      01002F2FH   LINE      CODE     ---       #38
      01002F51H   LINE      CODE     ---       #39
      01002F73H   LINE      CODE     ---       #40
      01002F95H   LINE      CODE     ---       #41
      01002FA6H   LINE      CODE     ---       #42
      01002FA6H   LINE      CODE     ---       #44
      01002FB2H   LINE      CODE     ---       #45
      0100301AH   LINE      CODE     ---       #46
      01003082H   LINE      CODE     ---       #47
      010030EAH   LINE      CODE     ---       #48
LX51 LINKER/LOCATER V4.66.66.0                                                        03/09/2017  11:29:19  PAGE 141


      01003152H   LINE      CODE     ---       #49
      01003187H   LINE      CODE     ---       #50
      01003187H   LINE      CODE     ---       #52
      0100318CH   LINE      CODE     ---       #53
      0100318FH   LINE      CODE     ---       #54
      01003195H   LINE      CODE     ---       #55
      01003195H   LINE      CODE     ---       #57
      010031A5H   LINE      CODE     ---       #58
      010031AAH   LINE      CODE     ---       #59
      010031AAH   LINE      CODE     ---       #60
      010031ACH   LINE      CODE     ---       #61
      ---         BLOCKEND  ---      ---       LVL=0

      ---         MODULE    ---      ---       PAGESTABILIZER
      02000996H   PUBLIC    XDATA    ---       AutoFlyMs
      010087E4H   PUBLIC    CONST    ---       MenuItemAutoFly
      010087DBH   PUBLIC    CONST    ---       PageOptionWingType
      010087CFH   PUBLIC    CONST    ---       PageOptionMountingDir
      010054FEH   PUBLIC    CODE     ---       _PageAutoFly
      000000A2H   SFRSYM    DATA     BYTE      SPI0CKR
      00000080H   SFRSYM    DATA     BYTE      P0
      000000D0H.2 SFRSYM    DATA     BIT       PSW_OV
      000000B1H   SFRSYM    DATA     BYTE      XOSC0CN
      00000090H   SFRSYM    DATA     BYTE      P1
      000000A0H   SFRSYM    DATA     BYTE      P2
      000000B0H   SFRSYM    DATA     BYTE      P3
      000000BCH   SFRSYM    DATA     BYTE      ADC0CF
      000000C8H   SFRSYM    DATA     BIT       TMR2CN0_T2XCLK
      000000C7H   SFRSYM    DATA     BYTE      P4
      000000C0H.7 SFRSYM    DATA     BIT       SMB0CN0_MASTER
      000000F9H   SFRSYM    DATA     WORD      PCA0
      000000E6H   SFRSYM    DATA     BYTE      EIE1
      000000C0H.7 SFRSYM    DATA     BIT       SMB1CN0_MASTER
      000000C0H.1 SFRSYM    DATA     BIT       SMB0CN0_ACK
      000000D7H   SFRSYM    DATA     BYTE      USB0XCN
      000000E7H   SFRSYM    DATA     BYTE      EIE2
      000000C0H.1 SFRSYM    DATA     BIT       SMB1CN0_ACK
      0000008FH   SFRSYM    DATA     BYTE      PSCTL
      000000E4H   SFRSYM    DATA     BYTE      IT01CF
      000000C8H   SFRSYM    DATA     BIT       TMR5CN0_T5XCLK
      000000C0H.6 SFRSYM    DATA     BIT       SMB0CN0_TXMODE
      000000C0H.6 SFRSYM    DATA     BIT       SMB1CN0_TXMODE
      000000BFH   SFRSYM    DATA     BYTE      SFRPAGE
      000000A4H   SFRSYM    DATA     BYTE      P0MDOUT
      00000080H.5 SFRSYM    DATA     BIT       LCD_SDA
      000000A5H   SFRSYM    DATA     BYTE      P1MDOUT
      000000E8H.5 SFRSYM    DATA     BIT       ADC0CN0_ADINT
      000000CBH   SFRSYM    DATA     BYTE      TMR2RLH
      000000A6H   SFRSYM    DATA     BYTE      P2MDOUT
      000000A8H   SFRSYM    DATA     BYTE      IE
      00000093H   SFRSYM    DATA     BYTE      TMR3RLH
      000000A7H   SFRSYM    DATA     BYTE      P3MDOUT
      00000093H   SFRSYM    DATA     BYTE      TMR4RLH
      000000AEH   SFRSYM    DATA     BYTE      P4MDOUT
      000000F6H   SFRSYM    DATA     BYTE      EIP1
      000000CBH   SFRSYM    DATA     BYTE      TMR5RLH
      000000F7H   SFRSYM    DATA     BYTE      EIP2
      00000098H.2 SFRSYM    DATA     BIT       SCON0_RB8
      000000CAH   SFRSYM    DATA     BYTE      TMR2RLL
      000000FCH   SFRSYM    DATA     BYTE      PCA0CPH0
      00000092H   SFRSYM    DATA     BYTE      TMR3RLL
      000000EAH   SFRSYM    DATA     BYTE      PCA0CPH1
      00000098H.3 SFRSYM    DATA     BIT       SCON0_TB8
      000000F0H   SFRSYM    DATA     BIT       B_B0
      00000082H   SFRSYM    DATA     WORD      DP
LX51 LINKER/LOCATER V4.66.66.0                                                        03/09/2017  11:29:19  PAGE 142


      00000092H   SFRSYM    DATA     BYTE      TMR4RLL
      000000ECH   SFRSYM    DATA     BYTE      PCA0CPH2
      000000F0H.1 SFRSYM    DATA     BIT       B_B1
      000000C3H   SFRSYM    DATA     WORD      ADC0GT
      000000CAH   SFRSYM    DATA     BYTE      TMR5RLL
      000000EEH   SFRSYM    DATA     BYTE      PCA0CPH3
      00000080H.3 SFRSYM    DATA     BIT       LCD_SCK
      000000F0H.2 SFRSYM    DATA     BIT       B_B2
      000000FBH   SFRSYM    DATA     BYTE      PCA0CPL0
      000000FEH   SFRSYM    DATA     BYTE      PCA0CPH4
      00000085H   SFRSYM    DATA     BYTE      EMI0CF
      000000F0H.3 SFRSYM    DATA     BIT       B_B3
      000000D9H   SFRSYM    DATA     BYTE      PCA0MD
      000000DAH   SFRSYM    DATA     BYTE      PCA0CPM0
      000000E9H   SFRSYM    DATA     BYTE      PCA0CPL1
      000000F0H.4 SFRSYM    DATA     BIT       B_B4
      000000DBH   SFRSYM    DATA     BYTE      PCA0CPM1
      000000EBH   SFRSYM    DATA     BYTE      PCA0CPL2
      000000F0H.5 SFRSYM    DATA     BIT       B_B5
      000000DCH   SFRSYM    DATA     BYTE      PCA0CPM2
      000000EDH   SFRSYM    DATA     BYTE      PCA0CPL3
      000000B8H   SFRSYM    DATA     BYTE      IP
      000000F0H.6 SFRSYM    DATA     BIT       B_B6
      000000C5H   SFRSYM    DATA     WORD      ADC0LT
      000000DDH   SFRSYM    DATA     BYTE      PCA0CPM3
      000000FDH   SFRSYM    DATA     BYTE      PCA0CPL4
      00000098H.5 SFRSYM    DATA     BIT       SCON0_MCE
      000000F0H.7 SFRSYM    DATA     BIT       B_B7
      000000DEH   SFRSYM    DATA     BYTE      PCA0CPM4
      000000E1H   SFRSYM    DATA     BYTE      XBR0
      000000C1H   SFRSYM    DATA     BYTE      SMB0CF
      000000E2H   SFRSYM    DATA     BYTE      XBR1
      000000C1H   SFRSYM    DATA     BYTE      SMB1CF
      000000AFH   SFRSYM    DATA     BYTE      PFE0CN
      000000AAH   SFRSYM    DATA     BYTE      EMI0CN
      000000C0H.5 SFRSYM    DATA     BIT       SMB0CN0_STA
      000000E3H   SFRSYM    DATA     BYTE      XBR2
      000000C0H.5 SFRSYM    DATA     BIT       SMB1CN0_STA
      000000E0H   SFRSYM    DATA     BIT       ACC_ACC0
      000000D1H   SFRSYM    DATA     BYTE      REF0CN
      000000B2H   SFRSYM    DATA     BYTE      HFO0CN
      0000008EH   SFRSYM    DATA     BYTE      CKCON0
      000000E0H.1 SFRSYM    DATA     BIT       ACC_ACC1
      000000E4H   SFRSYM    DATA     BYTE      CKCON1
      000000C8H.2 SFRSYM    DATA     BIT       TMR2CN0_TR2
      000000E0H.2 SFRSYM    DATA     BIT       ACC_ACC2
      000000E0H.3 SFRSYM    DATA     BIT       ACC_ACC3
      00000081H   SFRSYM    DATA     BYTE      SP
      0000009DH   SFRSYM    DATA     BYTE      CMP0MD
      000000E0H.4 SFRSYM    DATA     BIT       ACC_ACC4
      00000086H   SFRSYM    DATA     BYTE      LFO0CN
      00000084H   SFRSYM    DATA     BYTE      EMI0TC
      0000009CH   SFRSYM    DATA     BYTE      CMP1MD
      000000D8H   SFRSYM    DATA     BIT       PCA0CN0_CCF0
      000000E0H.5 SFRSYM    DATA     BIT       ACC_ACC5
      000000D8H.1 SFRSYM    DATA     BIT       PCA0CN0_CCF1
      000000E0H.6 SFRSYM    DATA     BIT       ACC_ACC6
      000000CCH   SFRSYM    DATA     WORD      TMR2
      000000D8H.2 SFRSYM    DATA     BIT       PCA0CN0_CCF2
      000000E0H.7 SFRSYM    DATA     BIT       ACC_ACC7
      00000094H   SFRSYM    DATA     WORD      TMR3
      000000C8H.2 SFRSYM    DATA     BIT       TMR5CN0_TR5
      000000D8H.3 SFRSYM    DATA     BIT       PCA0CN0_CCF3
      00000094H   SFRSYM    DATA     WORD      TMR4
      000000ACH   SFRSYM    DATA     BYTE      SBCON1
LX51 LINKER/LOCATER V4.66.66.0                                                        03/09/2017  11:29:19  PAGE 143


      000000D8H.4 SFRSYM    DATA     BIT       PCA0CN0_CCF4
      000000CCH   SFRSYM    DATA     WORD      TMR5
      000000C0H.3 SFRSYM    DATA     BIT       SMB0CN0_ACKRQ
      000000FFH   SFRSYM    DATA     BYTE      VDM0CN
      000000F1H   SFRSYM    DATA     BYTE      P0MDIN
      000000C0H.3 SFRSYM    DATA     BIT       SMB1CN0_ACKRQ
      00000098H.4 SFRSYM    DATA     BIT       SCON0_REN
      000000F2H   SFRSYM    DATA     BYTE      P1MDIN
      000000F3H   SFRSYM    DATA     BYTE      P2MDIN
      000000C0H.4 SFRSYM    DATA     BIT       SMB0CN0_STO
      000000F4H   SFRSYM    DATA     BYTE      P3MDIN
      00000090H.3 SFRSYM    DATA     BIT       LCD_RST
      000000C0H.4 SFRSYM    DATA     BIT       SMB1CN0_STO
      000000B5H   SFRSYM    DATA     BYTE      SBRLH1
      000000F5H   SFRSYM    DATA     BYTE      P4MDIN
      000000D0H.3 SFRSYM    DATA     BIT       PSW_RS0
      000000D8H.7 SFRSYM    DATA     BIT       PCA0CN0_CF
      000000F8H.4 SFRSYM    DATA     BIT       SPI0CN0_RXOVRN
      000000D0H.4 SFRSYM    DATA     BIT       PSW_RS1
      000000B4H   SFRSYM    DATA     BYTE      SBRLL1
      000000E8H.7 SFRSYM    DATA     BIT       ADC0CN0_ADEN
      00000089H   SFRSYM    DATA     BYTE      TMOD
      00000088H   SFRSYM    DATA     BYTE      TCON
      000000D0H   SFRSYM    DATA     BIT       PSW_PARITY
      000000A8H.4 SFRSYM    DATA     BIT       IE_ES0
      0000009FH   SFRSYM    DATA     BYTE      CMP0MX
      000000A8H.1 SFRSYM    DATA     BIT       IE_ET0
      0000009EH   SFRSYM    DATA     BYTE      CMP1MX
      000000A8H.3 SFRSYM    DATA     BIT       IE_ET1
      000000D4H   SFRSYM    DATA     BYTE      P0SKIP
      000000C8H.1 SFRSYM    DATA     BIT       TMR2CN0_T2CSS
      000000A8H.5 SFRSYM    DATA     BIT       IE_ET2
      000000D5H   SFRSYM    DATA     BYTE      P1SKIP
      000000D6H   SFRSYM    DATA     BYTE      P2SKIP
      000000E8H   SFRSYM    DATA     BYTE      ADC0CN0
      000000A8H   SFRSYM    DATA     BIT       IE_EX0
      000000DFH   SFRSYM    DATA     BYTE      P3SKIP
      000000D8H.6 SFRSYM    DATA     BIT       PCA0CN0_CR
      000000A8H.2 SFRSYM    DATA     BIT       IE_EX1
      00000098H.7 SFRSYM    DATA     BIT       SCON0_SMODE
      000000A9H   SFRSYM    DATA     BYTE      CLKSEL
      000000F8H   SFRSYM    DATA     BIT       SPI0CN0_SPIEN
      000000F0H   SFRSYM    DATA     BYTE      B
      000000BEH   SFRSYM    DATA     BYTE      ADC0H
      000000E8H.6 SFRSYM    DATA     BIT       ADC0CN0_ADTM
      000000CAH   SFRSYM    DATA     WORD      TMR2RL
      000000BDH   SFRSYM    DATA     BYTE      ADC0L
      00000092H   SFRSYM    DATA     WORD      TMR3RL
      00000092H   SFRSYM    DATA     WORD      TMR4RL
      000000D8H   SFRSYM    DATA     BYTE      PCA0CN0
      000000E0H   SFRSYM    DATA     BYTE      ACC
      000000CAH   SFRSYM    DATA     WORD      TMR5RL
      000000FBH   SFRSYM    DATA     WORD      PCA0CP0
      00000080H.6 SFRSYM    DATA     BIT       LCD_CS
      000000E9H   SFRSYM    DATA     WORD      PCA0CP1
      000000EBH   SFRSYM    DATA     WORD      PCA0CP2
      000000EDH   SFRSYM    DATA     WORD      PCA0CP3
      0000008CH   SFRSYM    DATA     BYTE      TH0
      000000B8H.4 SFRSYM    DATA     BIT       IP_PS0
      000000FDH   SFRSYM    DATA     WORD      PCA0CP4
      0000008DH   SFRSYM    DATA     BYTE      TH1
      000000FAH   SFRSYM    DATA     BYTE      PCA0H
      000000B8H.1 SFRSYM    DATA     BIT       IP_PT0
      000000B8H.3 SFRSYM    DATA     BIT       IP_PT1
      000000C0H.2 SFRSYM    DATA     BIT       SMB0CN0_ARBLOST
LX51 LINKER/LOCATER V4.66.66.0                                                        03/09/2017  11:29:19  PAGE 144


      000000B8H.5 SFRSYM    DATA     BIT       IP_PT2
      0000008AH   SFRSYM    DATA     BYTE      TL0
      000000F8H.1 SFRSYM    DATA     BIT       SPI0CN0_TXBMT
      000000C0H.2 SFRSYM    DATA     BIT       SMB1CN0_ARBLOST
      000000D0H.5 SFRSYM    DATA     BIT       PSW_F0
      000000A8H.6 SFRSYM    DATA     BIT       IE_ESPI0
      0000008BH   SFRSYM    DATA     BYTE      TL1
      000000F9H   SFRSYM    DATA     BYTE      PCA0L
      000000C0H   SFRSYM    DATA     BIT       SMB0CN0_SI
      000000D0H.1 SFRSYM    DATA     BIT       PSW_F1
      00000080H   SFRSYM    DATA     BIT       P0_B0
      000000B8H   SFRSYM    DATA     BIT       IP_PX0
      000000C9H   SFRSYM    DATA     BYTE      REG01CN
      000000C0H   SFRSYM    DATA     BIT       SMB1CN0_SI
      00000090H   SFRSYM    DATA     BIT       P1_B0
      00000080H.1 SFRSYM    DATA     BIT       P0_B1
      000000B8H.2 SFRSYM    DATA     BIT       IP_PX1
      0000009BH   SFRSYM    DATA     BYTE      CMP0CN0
      00000088H.1 SFRSYM    DATA     BIT       TCON_IE0
      000000A0H   SFRSYM    DATA     BIT       P2_B0
      00000090H.1 SFRSYM    DATA     BIT       P1_B1
      00000080H.2 SFRSYM    DATA     BIT       P0_B2
      0000009AH   SFRSYM    DATA     BYTE      CMP1CN0
      00000088H.3 SFRSYM    DATA     BIT       TCON_IE1
      000000B0H   SFRSYM    DATA     BIT       P3_B0
      000000A0H.1 SFRSYM    DATA     BIT       P2_B1
      00000090H.2 SFRSYM    DATA     BIT       P1_B2
      00000080H.3 SFRSYM    DATA     BIT       P0_B3
      000000C0H   SFRSYM    DATA     BYTE      SMB0CN0
      000000B0H.1 SFRSYM    DATA     BIT       P3_B1
      000000A0H.2 SFRSYM    DATA     BIT       P2_B2
      00000090H.3 SFRSYM    DATA     BIT       P1_B3
      00000080H.4 SFRSYM    DATA     BIT       P0_B4
      000000C0H   SFRSYM    DATA     BYTE      SMB1CN0
      000000B0H.2 SFRSYM    DATA     BIT       P3_B2
      000000A0H.3 SFRSYM    DATA     BIT       P2_B3
      00000090H.4 SFRSYM    DATA     BIT       P1_B4
      00000080H.5 SFRSYM    DATA     BIT       P0_B5
      000000B0H.3 SFRSYM    DATA     BIT       P3_B3
      000000A0H.4 SFRSYM    DATA     BIT       P2_B4
      00000090H.5 SFRSYM    DATA     BIT       P1_B5
      00000080H.6 SFRSYM    DATA     BIT       P0_B6
      00000080H.2 SFRSYM    DATA     BIT       LCD_RS
      000000B0H.4 SFRSYM    DATA     BIT       P3_B4
      000000A0H.5 SFRSYM    DATA     BIT       P2_B5
      00000090H.6 SFRSYM    DATA     BIT       P1_B6
      00000080H.7 SFRSYM    DATA     BIT       P0_B7
      000000B0H.5 SFRSYM    DATA     BIT       P3_B5
      000000A0H.6 SFRSYM    DATA     BIT       P2_B6
      00000090H.7 SFRSYM    DATA     BIT       P1_B7
      000000B0H.6 SFRSYM    DATA     BIT       P3_B6
      000000A0H.7 SFRSYM    DATA     BIT       P2_B7
      000000B0H.7 SFRSYM    DATA     BIT       P3_B7
      00000083H   SFRSYM    DATA     BYTE      DPH
      000000C4H   SFRSYM    DATA     BYTE      ADC0GTH
      000000C8H.7 SFRSYM    DATA     BIT       TMR2CN0_TF2H
      000000C8H.3 SFRSYM    DATA     BIT       TMR2CN0_T2SPLIT
      000000D0H.6 SFRSYM    DATA     BIT       PSW_AC
      000000F8H   SFRSYM    DATA     BYTE      SPI0CN0
      000000B3H   SFRSYM    DATA     BYTE      HFO0CAL
      00000080H   SFRSYM    DATA     BIT       BtnEntGpio
      00000088H.5 SFRSYM    DATA     BIT       TCON_TF0
      00000098H   SFRSYM    DATA     BIT       SCON0_RI
      00000082H   SFRSYM    DATA     BYTE      DPL
      00000088H.7 SFRSYM    DATA     BIT       TCON_TF1
LX51 LINKER/LOCATER V4.66.66.0                                                        03/09/2017  11:29:19  PAGE 145


      00000099H   SFRSYM    DATA     BYTE      SBUF0
      00000087H   SFRSYM    DATA     BYTE      PCON0
      000000C3H   SFRSYM    DATA     BYTE      ADC0GTL
      000000C8H.6 SFRSYM    DATA     BIT       TMR2CN0_TF2L
      00000098H.1 SFRSYM    DATA     BIT       SCON0_TI
      000000E8H   SFRSYM    DATA     BIT       ADC0CN0_ADCM0
      000000D3H   SFRSYM    DATA     BYTE      SBUF1
      000000C6H   SFRSYM    DATA     BYTE      ADC0LTH
      00000088H   SFRSYM    DATA     BIT       TCON_IT0
      000000E8H.1 SFRSYM    DATA     BIT       ADC0CN0_ADCM1
      000000EFH   SFRSYM    DATA     BYTE      RSTSRC
      000000C8H.7 SFRSYM    DATA     BIT       TMR5CN0_TF5H
      000000C8H.3 SFRSYM    DATA     BIT       TMR5CN0_T5SPLIT
      00000088H.2 SFRSYM    DATA     BIT       TCON_IT1
      000000E8H.2 SFRSYM    DATA     BIT       ADC0CN0_ADCM2
      00000098H   SFRSYM    DATA     BYTE      SCON0
      000000E8H.3 SFRSYM    DATA     BIT       ADC0CN0_ADWINT
      000000B4H   SFRSYM    DATA     WORD      SBRL1
      000000E5H   SFRSYM    DATA     BYTE      SMOD1
      000000D2H   SFRSYM    DATA     BYTE      SCON1
      000000BAH   SFRSYM    DATA     BYTE      AMX0N
      000000E8H.4 SFRSYM    DATA     BIT       ADC0CN0_ADBUSY
      000000CEH   SFRSYM    DATA     BYTE      SMB0ADM
      000000C5H   SFRSYM    DATA     BYTE      ADC0LTL
      000000F8H.5 SFRSYM    DATA     BIT       SPI0CN0_MODF
      000000B8H.6 SFRSYM    DATA     BIT       IP_PSPI0
      000000CEH   SFRSYM    DATA     BYTE      SMB1ADM
      000000BBH   SFRSYM    DATA     BYTE      AMX0P
      000000C8H.6 SFRSYM    DATA     BIT       TMR5CN0_TF5L
      000000C8H   SFRSYM    DATA     BYTE      TMR2CN0
      00000091H   SFRSYM    DATA     BYTE      TMR3CN0
      00000080H.1 SFRSYM    DATA     BIT       BtnExtGpio
      00000091H   SFRSYM    DATA     BYTE      TMR4CN0
      000000C8H   SFRSYM    DATA     BYTE      TMR5CN0
      000000CFH   SFRSYM    DATA     BYTE      SMB0ADR
      00000088H.4 SFRSYM    DATA     BIT       TCON_TR0
      000000CFH   SFRSYM    DATA     BYTE      SMB1ADR
      000000C8H.4 SFRSYM    DATA     BIT       TMR2CN0_TF2CEN
      00000088H.6 SFRSYM    DATA     BIT       TCON_TR1
      000000C2H   SFRSYM    DATA     BYTE      SMB0DAT
      00000080H.4 SFRSYM    DATA     BIT       RC_OUT
      000000CDH   SFRSYM    DATA     BYTE      TMR2H
      000000A1H   SFRSYM    DATA     BYTE      SPI0CFG
      000000C2H   SFRSYM    DATA     BYTE      SMB1DAT
      00000095H   SFRSYM    DATA     BYTE      TMR3H
      00000095H   SFRSYM    DATA     BYTE      TMR4H
      000000CDH   SFRSYM    DATA     BYTE      TMR5H
      000000CCH   SFRSYM    DATA     BYTE      TMR2L
      00000090H.5 SFRSYM    DATA     BIT       BtnDwGpio
      000000F8H.7 SFRSYM    DATA     BIT       SPI0CN0_SPIF
      00000096H   SFRSYM    DATA     BYTE      USB0ADR
      00000094H   SFRSYM    DATA     BYTE      TMR3L
      000000A8H.7 SFRSYM    DATA     BIT       IE_EA
      00000094H   SFRSYM    DATA     BYTE      TMR4L
      00000097H   SFRSYM    DATA     BYTE      USB0DAT
      000000CCH   SFRSYM    DATA     BYTE      TMR5L
      000000B6H   SFRSYM    DATA     BYTE      FLSCL
      000000C8H.5 SFRSYM    DATA     BIT       TMR2CN0_TF2LEN
      000000F8H.6 SFRSYM    DATA     BIT       SPI0CN0_WCOL
      000000F8H.2 SFRSYM    DATA     BIT       SPI0CN0_NSSMD0
      000000D0H.7 SFRSYM    DATA     BIT       PSW_CY
      000000A3H   SFRSYM    DATA     BYTE      SPI0DAT
      000000F8H.3 SFRSYM    DATA     BIT       SPI0CN0_NSSMD1
      000000BDH   SFRSYM    DATA     WORD      ADC0
      000000B9H   SFRSYM    DATA     BYTE      SMBTC
LX51 LINKER/LOCATER V4.66.66.0                                                        03/09/2017  11:29:19  PAGE 146


      000000D0H   SFRSYM    DATA     BYTE      PSW
      000000C8H.5 SFRSYM    DATA     BIT       TMR5CN0_TF5LEN
      000000B7H   SFRSYM    DATA     BYTE      FLKEY
      00000090H.4 SFRSYM    DATA     BIT       BtnUpGpio

      010054FEH   BLOCK     CODE     ---       LVL=0
      02000A0CH   SYMBOL    XDATA    BYTE      event
      010054FEH   LINE      CODE     ---       #25
      01005503H   LINE      CODE     ---       #26
      0100550DH   LINE      CODE     ---       #27
      01005512H   LINE      CODE     ---       #28
      0100551AH   LINE      CODE     ---       #29
      01005529H   LINE      CODE     ---       #30
      0100552FH   LINE      CODE     ---       #31
      0100552FH   LINE      CODE     ---       #32
      0100553EH   LINE      CODE     ---       #33
      01005544H   LINE      CODE     ---       #34
      01005547H   LINE      CODE     ---       #35
      01005547H   LINE      CODE     ---       #37
      01005552H   LINE      CODE     ---       #38
      01005578H   LINE      CODE     ---       #40
      01005580H   LINE      CODE     ---       #41
      010055A3H   LINE      CODE     ---       #42
      010055C6H   LINE      CODE     ---       #43
      010055C8H   LINE      CODE     ---       #44
      010055CEH   LINE      CODE     ---       #45
      010055DCH   LINE      CODE     ---       #46
      010055DCH   LINE      CODE     ---       #47
      010055DCH   LINE      CODE     ---       #49
      010055E4H   LINE      CODE     ---       #50
      010055EDH   LINE      CODE     ---       #51
      010055F2H   LINE      CODE     ---       #52
      01005600H   LINE      CODE     ---       #53
      01005602H   LINE      CODE     ---       #54
      01005607H   LINE      CODE     ---       #55
      01005607H   LINE      CODE     ---       #56
      01005607H   LINE      CODE     ---       #58
      01005609H   LINE      CODE     ---       #59
      ---         BLOCKEND  ---      ---       LVL=0

      ---         MODULE    ---      ---       PAGESTABILIZERBUILD
      00000040H   PUBLIC    DATA     WORD      PageStablizerBindTickCnt
      02000A0EH   PUBLIC    XDATA    BYTE      IdxStatue
      0000003FH   PUBLIC    DATA     BYTE      PageStablizerBindTickOverFlow
      01004540H   PUBLIC    CODE     ---       _PageStablizerBuild
      000000A2H   SFRSYM    DATA     BYTE      SPI0CKR
      00000080H   SFRSYM    DATA     BYTE      P0
      000000D0H.2 SFRSYM    DATA     BIT       PSW_OV
      000000B1H   SFRSYM    DATA     BYTE      XOSC0CN
      00000090H   SFRSYM    DATA     BYTE      P1
      000000A0H   SFRSYM    DATA     BYTE      P2
      000000B0H   SFRSYM    DATA     BYTE      P3
      000000BCH   SFRSYM    DATA     BYTE      ADC0CF
      000000C8H   SFRSYM    DATA     BIT       TMR2CN0_T2XCLK
      000000C7H   SFRSYM    DATA     BYTE      P4
      000000C0H.7 SFRSYM    DATA     BIT       SMB0CN0_MASTER
      000000F9H   SFRSYM    DATA     WORD      PCA0
      000000E6H   SFRSYM    DATA     BYTE      EIE1
      000000C0H.7 SFRSYM    DATA     BIT       SMB1CN0_MASTER
      000000C0H.1 SFRSYM    DATA     BIT       SMB0CN0_ACK
      000000D7H   SFRSYM    DATA     BYTE      USB0XCN
      000000E7H   SFRSYM    DATA     BYTE      EIE2
      000000C0H.1 SFRSYM    DATA     BIT       SMB1CN0_ACK
      0000008FH   SFRSYM    DATA     BYTE      PSCTL
      000000E4H   SFRSYM    DATA     BYTE      IT01CF
LX51 LINKER/LOCATER V4.66.66.0                                                        03/09/2017  11:29:19  PAGE 147


      000000C8H   SFRSYM    DATA     BIT       TMR5CN0_T5XCLK
      000000C0H.6 SFRSYM    DATA     BIT       SMB0CN0_TXMODE
      000000C0H.6 SFRSYM    DATA     BIT       SMB1CN0_TXMODE
      000000BFH   SFRSYM    DATA     BYTE      SFRPAGE
      000000A4H   SFRSYM    DATA     BYTE      P0MDOUT
      00000080H.5 SFRSYM    DATA     BIT       LCD_SDA
      000000A5H   SFRSYM    DATA     BYTE      P1MDOUT
      000000E8H.5 SFRSYM    DATA     BIT       ADC0CN0_ADINT
      000000CBH   SFRSYM    DATA     BYTE      TMR2RLH
      000000A6H   SFRSYM    DATA     BYTE      P2MDOUT
      000000A8H   SFRSYM    DATA     BYTE      IE
      00000093H   SFRSYM    DATA     BYTE      TMR3RLH
      000000A7H   SFRSYM    DATA     BYTE      P3MDOUT
      00000093H   SFRSYM    DATA     BYTE      TMR4RLH
      000000AEH   SFRSYM    DATA     BYTE      P4MDOUT
      000000F6H   SFRSYM    DATA     BYTE      EIP1
      000000CBH   SFRSYM    DATA     BYTE      TMR5RLH
      000000F7H   SFRSYM    DATA     BYTE      EIP2
      00000098H.2 SFRSYM    DATA     BIT       SCON0_RB8
      000000CAH   SFRSYM    DATA     BYTE      TMR2RLL
      000000FCH   SFRSYM    DATA     BYTE      PCA0CPH0
      00000092H   SFRSYM    DATA     BYTE      TMR3RLL
      000000EAH   SFRSYM    DATA     BYTE      PCA0CPH1
      00000098H.3 SFRSYM    DATA     BIT       SCON0_TB8
      000000F0H   SFRSYM    DATA     BIT       B_B0
      00000082H   SFRSYM    DATA     WORD      DP
      00000092H   SFRSYM    DATA     BYTE      TMR4RLL
      000000ECH   SFRSYM    DATA     BYTE      PCA0CPH2
      000000F0H.1 SFRSYM    DATA     BIT       B_B1
      000000C3H   SFRSYM    DATA     WORD      ADC0GT
      000000CAH   SFRSYM    DATA     BYTE      TMR5RLL
      000000EEH   SFRSYM    DATA     BYTE      PCA0CPH3
      00000080H.3 SFRSYM    DATA     BIT       LCD_SCK
      000000F0H.2 SFRSYM    DATA     BIT       B_B2
      000000FBH   SFRSYM    DATA     BYTE      PCA0CPL0
      000000FEH   SFRSYM    DATA     BYTE      PCA0CPH4
      00000085H   SFRSYM    DATA     BYTE      EMI0CF
      000000F0H.3 SFRSYM    DATA     BIT       B_B3
      000000D9H   SFRSYM    DATA     BYTE      PCA0MD
      000000DAH   SFRSYM    DATA     BYTE      PCA0CPM0
      000000E9H   SFRSYM    DATA     BYTE      PCA0CPL1
      000000F0H.4 SFRSYM    DATA     BIT       B_B4
      000000DBH   SFRSYM    DATA     BYTE      PCA0CPM1
      000000EBH   SFRSYM    DATA     BYTE      PCA0CPL2
      000000F0H.5 SFRSYM    DATA     BIT       B_B5
      000000DCH   SFRSYM    DATA     BYTE      PCA0CPM2
      000000EDH   SFRSYM    DATA     BYTE      PCA0CPL3
      000000B8H   SFRSYM    DATA     BYTE      IP
      000000F0H.6 SFRSYM    DATA     BIT       B_B6
      000000C5H   SFRSYM    DATA     WORD      ADC0LT
      000000DDH   SFRSYM    DATA     BYTE      PCA0CPM3
      000000FDH   SFRSYM    DATA     BYTE      PCA0CPL4
      00000098H.5 SFRSYM    DATA     BIT       SCON0_MCE
      000000F0H.7 SFRSYM    DATA     BIT       B_B7
      000000DEH   SFRSYM    DATA     BYTE      PCA0CPM4
      000000E1H   SFRSYM    DATA     BYTE      XBR0
      000000C1H   SFRSYM    DATA     BYTE      SMB0CF
      000000E2H   SFRSYM    DATA     BYTE      XBR1
      000000C1H   SFRSYM    DATA     BYTE      SMB1CF
      000000AFH   SFRSYM    DATA     BYTE      PFE0CN
      000000AAH   SFRSYM    DATA     BYTE      EMI0CN
      000000C0H.5 SFRSYM    DATA     BIT       SMB0CN0_STA
      000000E3H   SFRSYM    DATA     BYTE      XBR2
      000000C0H.5 SFRSYM    DATA     BIT       SMB1CN0_STA
      000000E0H   SFRSYM    DATA     BIT       ACC_ACC0
LX51 LINKER/LOCATER V4.66.66.0                                                        03/09/2017  11:29:19  PAGE 148


      000000D1H   SFRSYM    DATA     BYTE      REF0CN
      000000B2H   SFRSYM    DATA     BYTE      HFO0CN
      0000008EH   SFRSYM    DATA     BYTE      CKCON0
      000000E0H.1 SFRSYM    DATA     BIT       ACC_ACC1
      000000E4H   SFRSYM    DATA     BYTE      CKCON1
      000000C8H.2 SFRSYM    DATA     BIT       TMR2CN0_TR2
      000000E0H.2 SFRSYM    DATA     BIT       ACC_ACC2
      000000E0H.3 SFRSYM    DATA     BIT       ACC_ACC3
      00000081H   SFRSYM    DATA     BYTE      SP
      0000009DH   SFRSYM    DATA     BYTE      CMP0MD
      000000E0H.4 SFRSYM    DATA     BIT       ACC_ACC4
      00000086H   SFRSYM    DATA     BYTE      LFO0CN
      00000084H   SFRSYM    DATA     BYTE      EMI0TC
      0000009CH   SFRSYM    DATA     BYTE      CMP1MD
      000000D8H   SFRSYM    DATA     BIT       PCA0CN0_CCF0
      000000E0H.5 SFRSYM    DATA     BIT       ACC_ACC5
      000000D8H.1 SFRSYM    DATA     BIT       PCA0CN0_CCF1
      000000E0H.6 SFRSYM    DATA     BIT       ACC_ACC6
      000000CCH   SFRSYM    DATA     WORD      TMR2
      000000D8H.2 SFRSYM    DATA     BIT       PCA0CN0_CCF2
      000000E0H.7 SFRSYM    DATA     BIT       ACC_ACC7
      00000094H   SFRSYM    DATA     WORD      TMR3
      000000C8H.2 SFRSYM    DATA     BIT       TMR5CN0_TR5
      000000D8H.3 SFRSYM    DATA     BIT       PCA0CN0_CCF3
      00000094H   SFRSYM    DATA     WORD      TMR4
      000000ACH   SFRSYM    DATA     BYTE      SBCON1
      000000D8H.4 SFRSYM    DATA     BIT       PCA0CN0_CCF4
      000000CCH   SFRSYM    DATA     WORD      TMR5
      000000C0H.3 SFRSYM    DATA     BIT       SMB0CN0_ACKRQ
      000000FFH   SFRSYM    DATA     BYTE      VDM0CN
      000000F1H   SFRSYM    DATA     BYTE      P0MDIN
      000000C0H.3 SFRSYM    DATA     BIT       SMB1CN0_ACKRQ
      00000098H.4 SFRSYM    DATA     BIT       SCON0_REN
      000000F2H   SFRSYM    DATA     BYTE      P1MDIN
      000000F3H   SFRSYM    DATA     BYTE      P2MDIN
      000000C0H.4 SFRSYM    DATA     BIT       SMB0CN0_STO
      000000F4H   SFRSYM    DATA     BYTE      P3MDIN
      00000090H.3 SFRSYM    DATA     BIT       LCD_RST
      000000C0H.4 SFRSYM    DATA     BIT       SMB1CN0_STO
      000000B5H   SFRSYM    DATA     BYTE      SBRLH1
      000000F5H   SFRSYM    DATA     BYTE      P4MDIN
      000000D0H.3 SFRSYM    DATA     BIT       PSW_RS0
      000000D8H.7 SFRSYM    DATA     BIT       PCA0CN0_CF
      000000F8H.4 SFRSYM    DATA     BIT       SPI0CN0_RXOVRN
      000000D0H.4 SFRSYM    DATA     BIT       PSW_RS1
      000000B4H   SFRSYM    DATA     BYTE      SBRLL1
      000000E8H.7 SFRSYM    DATA     BIT       ADC0CN0_ADEN
      00000089H   SFRSYM    DATA     BYTE      TMOD
      00000088H   SFRSYM    DATA     BYTE      TCON
      000000D0H   SFRSYM    DATA     BIT       PSW_PARITY
      000000A8H.4 SFRSYM    DATA     BIT       IE_ES0
      0000009FH   SFRSYM    DATA     BYTE      CMP0MX
      000000A8H.1 SFRSYM    DATA     BIT       IE_ET0
      0000009EH   SFRSYM    DATA     BYTE      CMP1MX
      000000A8H.3 SFRSYM    DATA     BIT       IE_ET1
      000000D4H   SFRSYM    DATA     BYTE      P0SKIP
      000000C8H.1 SFRSYM    DATA     BIT       TMR2CN0_T2CSS
      000000A8H.5 SFRSYM    DATA     BIT       IE_ET2
      000000D5H   SFRSYM    DATA     BYTE      P1SKIP
      000000D6H   SFRSYM    DATA     BYTE      P2SKIP
      000000E8H   SFRSYM    DATA     BYTE      ADC0CN0
      000000A8H   SFRSYM    DATA     BIT       IE_EX0
      000000DFH   SFRSYM    DATA     BYTE      P3SKIP
      000000D8H.6 SFRSYM    DATA     BIT       PCA0CN0_CR
      000000A8H.2 SFRSYM    DATA     BIT       IE_EX1
LX51 LINKER/LOCATER V4.66.66.0                                                        03/09/2017  11:29:19  PAGE 149


      00000098H.7 SFRSYM    DATA     BIT       SCON0_SMODE
      000000A9H   SFRSYM    DATA     BYTE      CLKSEL
      000000F8H   SFRSYM    DATA     BIT       SPI0CN0_SPIEN
      000000F0H   SFRSYM    DATA     BYTE      B
      000000BEH   SFRSYM    DATA     BYTE      ADC0H
      000000E8H.6 SFRSYM    DATA     BIT       ADC0CN0_ADTM
      000000CAH   SFRSYM    DATA     WORD      TMR2RL
      000000BDH   SFRSYM    DATA     BYTE      ADC0L
      00000092H   SFRSYM    DATA     WORD      TMR3RL
      00000092H   SFRSYM    DATA     WORD      TMR4RL
      000000D8H   SFRSYM    DATA     BYTE      PCA0CN0
      000000E0H   SFRSYM    DATA     BYTE      ACC
      000000CAH   SFRSYM    DATA     WORD      TMR5RL
      000000FBH   SFRSYM    DATA     WORD      PCA0CP0
      00000080H.6 SFRSYM    DATA     BIT       LCD_CS
      000000E9H   SFRSYM    DATA     WORD      PCA0CP1
      000000EBH   SFRSYM    DATA     WORD      PCA0CP2
      000000EDH   SFRSYM    DATA     WORD      PCA0CP3
      0000008CH   SFRSYM    DATA     BYTE      TH0
      000000B8H.4 SFRSYM    DATA     BIT       IP_PS0
      000000FDH   SFRSYM    DATA     WORD      PCA0CP4
      0000008DH   SFRSYM    DATA     BYTE      TH1
      000000FAH   SFRSYM    DATA     BYTE      PCA0H
      000000B8H.1 SFRSYM    DATA     BIT       IP_PT0
      000000B8H.3 SFRSYM    DATA     BIT       IP_PT1
      000000C0H.2 SFRSYM    DATA     BIT       SMB0CN0_ARBLOST
      000000B8H.5 SFRSYM    DATA     BIT       IP_PT2
      0000008AH   SFRSYM    DATA     BYTE      TL0
      000000F8H.1 SFRSYM    DATA     BIT       SPI0CN0_TXBMT
      000000C0H.2 SFRSYM    DATA     BIT       SMB1CN0_ARBLOST
      000000D0H.5 SFRSYM    DATA     BIT       PSW_F0
      000000A8H.6 SFRSYM    DATA     BIT       IE_ESPI0
      0000008BH   SFRSYM    DATA     BYTE      TL1
      000000F9H   SFRSYM    DATA     BYTE      PCA0L
      000000C0H   SFRSYM    DATA     BIT       SMB0CN0_SI
      000000D0H.1 SFRSYM    DATA     BIT       PSW_F1
      00000080H   SFRSYM    DATA     BIT       P0_B0
      000000B8H   SFRSYM    DATA     BIT       IP_PX0
      000000C9H   SFRSYM    DATA     BYTE      REG01CN
      000000C0H   SFRSYM    DATA     BIT       SMB1CN0_SI
      00000090H   SFRSYM    DATA     BIT       P1_B0
      00000080H.1 SFRSYM    DATA     BIT       P0_B1
      000000B8H.2 SFRSYM    DATA     BIT       IP_PX1
      0000009BH   SFRSYM    DATA     BYTE      CMP0CN0
      00000088H.1 SFRSYM    DATA     BIT       TCON_IE0
      000000A0H   SFRSYM    DATA     BIT       P2_B0
      00000090H.1 SFRSYM    DATA     BIT       P1_B1
      00000080H.2 SFRSYM    DATA     BIT       P0_B2
      0000009AH   SFRSYM    DATA     BYTE      CMP1CN0
      00000088H.3 SFRSYM    DATA     BIT       TCON_IE1
      000000B0H   SFRSYM    DATA     BIT       P3_B0
      000000A0H.1 SFRSYM    DATA     BIT       P2_B1
      00000090H.2 SFRSYM    DATA     BIT       P1_B2
      00000080H.3 SFRSYM    DATA     BIT       P0_B3
      000000C0H   SFRSYM    DATA     BYTE      SMB0CN0
      000000B0H.1 SFRSYM    DATA     BIT       P3_B1
      000000A0H.2 SFRSYM    DATA     BIT       P2_B2
      00000090H.3 SFRSYM    DATA     BIT       P1_B3
      00000080H.4 SFRSYM    DATA     BIT       P0_B4
      000000C0H   SFRSYM    DATA     BYTE      SMB1CN0
      000000B0H.2 SFRSYM    DATA     BIT       P3_B2
      000000A0H.3 SFRSYM    DATA     BIT       P2_B3
      00000090H.4 SFRSYM    DATA     BIT       P1_B4
      00000080H.5 SFRSYM    DATA     BIT       P0_B5
      000000B0H.3 SFRSYM    DATA     BIT       P3_B3
LX51 LINKER/LOCATER V4.66.66.0                                                        03/09/2017  11:29:19  PAGE 150


      000000A0H.4 SFRSYM    DATA     BIT       P2_B4
      00000090H.5 SFRSYM    DATA     BIT       P1_B5
      00000080H.6 SFRSYM    DATA     BIT       P0_B6
      00000080H.2 SFRSYM    DATA     BIT       LCD_RS
      000000B0H.4 SFRSYM    DATA     BIT       P3_B4
      000000A0H.5 SFRSYM    DATA     BIT       P2_B5
      00000090H.6 SFRSYM    DATA     BIT       P1_B6
      00000080H.7 SFRSYM    DATA     BIT       P0_B7
      000000B0H.5 SFRSYM    DATA     BIT       P3_B5
      000000A0H.6 SFRSYM    DATA     BIT       P2_B6
      00000090H.7 SFRSYM    DATA     BIT       P1_B7
      000000B0H.6 SFRSYM    DATA     BIT       P3_B6
      000000A0H.7 SFRSYM    DATA     BIT       P2_B7
      000000B0H.7 SFRSYM    DATA     BIT       P3_B7
      00000083H   SFRSYM    DATA     BYTE      DPH
      000000C4H   SFRSYM    DATA     BYTE      ADC0GTH
      000000C8H.7 SFRSYM    DATA     BIT       TMR2CN0_TF2H
      000000C8H.3 SFRSYM    DATA     BIT       TMR2CN0_T2SPLIT
      000000D0H.6 SFRSYM    DATA     BIT       PSW_AC
      000000F8H   SFRSYM    DATA     BYTE      SPI0CN0
      000000B3H   SFRSYM    DATA     BYTE      HFO0CAL
      00000080H   SFRSYM    DATA     BIT       BtnEntGpio
      00000088H.5 SFRSYM    DATA     BIT       TCON_TF0
      00000098H   SFRSYM    DATA     BIT       SCON0_RI
      00000082H   SFRSYM    DATA     BYTE      DPL
      00000088H.7 SFRSYM    DATA     BIT       TCON_TF1
      00000099H   SFRSYM    DATA     BYTE      SBUF0
      00000087H   SFRSYM    DATA     BYTE      PCON0
      000000C3H   SFRSYM    DATA     BYTE      ADC0GTL
      000000C8H.6 SFRSYM    DATA     BIT       TMR2CN0_TF2L
      00000098H.1 SFRSYM    DATA     BIT       SCON0_TI
      000000E8H   SFRSYM    DATA     BIT       ADC0CN0_ADCM0
      000000D3H   SFRSYM    DATA     BYTE      SBUF1
      000000C6H   SFRSYM    DATA     BYTE      ADC0LTH
      00000088H   SFRSYM    DATA     BIT       TCON_IT0
      000000E8H.1 SFRSYM    DATA     BIT       ADC0CN0_ADCM1
      000000EFH   SFRSYM    DATA     BYTE      RSTSRC
      000000C8H.7 SFRSYM    DATA     BIT       TMR5CN0_TF5H
      000000C8H.3 SFRSYM    DATA     BIT       TMR5CN0_T5SPLIT
      00000088H.2 SFRSYM    DATA     BIT       TCON_IT1
      000000E8H.2 SFRSYM    DATA     BIT       ADC0CN0_ADCM2
      00000098H   SFRSYM    DATA     BYTE      SCON0
      000000E8H.3 SFRSYM    DATA     BIT       ADC0CN0_ADWINT
      000000B4H   SFRSYM    DATA     WORD      SBRL1
      000000E5H   SFRSYM    DATA     BYTE      SMOD1
      000000D2H   SFRSYM    DATA     BYTE      SCON1
      000000BAH   SFRSYM    DATA     BYTE      AMX0N
      000000E8H.4 SFRSYM    DATA     BIT       ADC0CN0_ADBUSY
      000000CEH   SFRSYM    DATA     BYTE      SMB0ADM
      000000C5H   SFRSYM    DATA     BYTE      ADC0LTL
      000000F8H.5 SFRSYM    DATA     BIT       SPI0CN0_MODF
      000000B8H.6 SFRSYM    DATA     BIT       IP_PSPI0
      000000CEH   SFRSYM    DATA     BYTE      SMB1ADM
      000000BBH   SFRSYM    DATA     BYTE      AMX0P
      000000C8H.6 SFRSYM    DATA     BIT       TMR5CN0_TF5L
      000000C8H   SFRSYM    DATA     BYTE      TMR2CN0
      00000091H   SFRSYM    DATA     BYTE      TMR3CN0
      00000080H.1 SFRSYM    DATA     BIT       BtnExtGpio
      00000091H   SFRSYM    DATA     BYTE      TMR4CN0
      000000C8H   SFRSYM    DATA     BYTE      TMR5CN0
      000000CFH   SFRSYM    DATA     BYTE      SMB0ADR
      00000088H.4 SFRSYM    DATA     BIT       TCON_TR0
      000000CFH   SFRSYM    DATA     BYTE      SMB1ADR
      000000C8H.4 SFRSYM    DATA     BIT       TMR2CN0_TF2CEN
      00000088H.6 SFRSYM    DATA     BIT       TCON_TR1
LX51 LINKER/LOCATER V4.66.66.0                                                        03/09/2017  11:29:19  PAGE 151


      000000C2H   SFRSYM    DATA     BYTE      SMB0DAT
      00000080H.4 SFRSYM    DATA     BIT       RC_OUT
      000000CDH   SFRSYM    DATA     BYTE      TMR2H
      000000A1H   SFRSYM    DATA     BYTE      SPI0CFG
      000000C2H   SFRSYM    DATA     BYTE      SMB1DAT
      00000095H   SFRSYM    DATA     BYTE      TMR3H
      00000095H   SFRSYM    DATA     BYTE      TMR4H
      000000CDH   SFRSYM    DATA     BYTE      TMR5H
      000000CCH   SFRSYM    DATA     BYTE      TMR2L
      00000090H.5 SFRSYM    DATA     BIT       BtnDwGpio
      000000F8H.7 SFRSYM    DATA     BIT       SPI0CN0_SPIF
      00000096H   SFRSYM    DATA     BYTE      USB0ADR
      00000094H   SFRSYM    DATA     BYTE      TMR3L
      000000A8H.7 SFRSYM    DATA     BIT       IE_EA
      00000094H   SFRSYM    DATA     BYTE      TMR4L
      00000097H   SFRSYM    DATA     BYTE      USB0DAT
      000000CCH   SFRSYM    DATA     BYTE      TMR5L
      000000B6H   SFRSYM    DATA     BYTE      FLSCL
      000000C8H.5 SFRSYM    DATA     BIT       TMR2CN0_TF2LEN
      000000F8H.6 SFRSYM    DATA     BIT       SPI0CN0_WCOL
      000000F8H.2 SFRSYM    DATA     BIT       SPI0CN0_NSSMD0
      000000D0H.7 SFRSYM    DATA     BIT       PSW_CY
      000000A3H   SFRSYM    DATA     BYTE      SPI0DAT
      000000F8H.3 SFRSYM    DATA     BIT       SPI0CN0_NSSMD1
      000000BDH   SFRSYM    DATA     WORD      ADC0
      000000B9H   SFRSYM    DATA     BYTE      SMBTC
      000000D0H   SFRSYM    DATA     BYTE      PSW
      000000C8H.5 SFRSYM    DATA     BIT       TMR5CN0_TF5LEN
      000000B7H   SFRSYM    DATA     BYTE      FLKEY
      00000090H.4 SFRSYM    DATA     BIT       BtnUpGpio

      01004540H   BLOCK     CODE     ---       LVL=0
      02000A0DH   SYMBOL    XDATA    BYTE      event
      01004540H   LINE      CODE     ---       #8
      01004545H   LINE      CODE     ---       #9
      0100454FH   LINE      CODE     ---       #10
      01004554H   LINE      CODE     ---       #11
      01004565H   LINE      CODE     ---       #12
      0100457DH   LINE      CODE     ---       #13
      01004586H   LINE      CODE     ---       #14
      0100458BH   LINE      CODE     ---       #15
      01004594H   LINE      CODE     ---       #16
      01004597H   LINE      CODE     ---       #17
      0100459FH   LINE      CODE     ---       #18
      010045A4H   LINE      CODE     ---       #19
      010045A4H   LINE      CODE     ---       #21
      010045A6H   LINE      CODE     ---       #22
      010045ABH   LINE      CODE     ---       #23
      010045B6H   LINE      CODE     ---       #24
      010045B8H   LINE      CODE     ---       #25
      010045BBH   LINE      CODE     ---       #26
      010045BBH   LINE      CODE     ---       #27
      010045BEH   LINE      CODE     ---       #28
      010045C0H   LINE      CODE     ---       #29
      010045C2H   LINE      CODE     ---       #30
      010045CDH   LINE      CODE     ---       #31
      010045CFH   LINE      CODE     ---       #32
      010045D2H   LINE      CODE     ---       #33
      010045D2H   LINE      CODE     ---       #34
      010045DEH   LINE      CODE     ---       #35
      010045ECH   LINE      CODE     ---       #36
      010045EEH   LINE      CODE     ---       #37
      010045EEH   LINE      CODE     ---       #39
      0100460EH   LINE      CODE     ---       #41
      01004616H   LINE      CODE     ---       #42
LX51 LINKER/LOCATER V4.66.66.0                                                        03/09/2017  11:29:19  PAGE 152


      0100461CH   LINE      CODE     ---       #43
      0100462DH   LINE      CODE     ---       #44
      01004639H   LINE      CODE     ---       #45
      0100463FH   LINE      CODE     ---       #46
      01004650H   LINE      CODE     ---       #47
      0100465CH   LINE      CODE     ---       #48
      01004662H   LINE      CODE     ---       #49
      01004673H   LINE      CODE     ---       #50
      0100467FH   LINE      CODE     ---       #51
      01004685H   LINE      CODE     ---       #52
      01004696H   LINE      CODE     ---       #53
      010046A1H   LINE      CODE     ---       #54
      010046A7H   LINE      CODE     ---       #55
      010046B8H   LINE      CODE     ---       #56
      010046C3H   LINE      CODE     ---       #57
      010046C9H   LINE      CODE     ---       #58
      010046DAH   LINE      CODE     ---       #59
      010046E5H   LINE      CODE     ---       #60
      010046F6H   LINE      CODE     ---       #61
      010046F6H   LINE      CODE     ---       #62
      010046F6H   LINE      CODE     ---       #63
      010046F9H   LINE      CODE     ---       #64
      01004704H   LINE      CODE     ---       #66
      01004706H   LINE      CODE     ---       #67
      ---         BLOCKEND  ---      ---       LVL=0

      ---         MODULE    ---      ---       PAGESTABILIZERMODE
      0200099CH   PUBLIC    XDATA    ---       AutoFlyModeMs
      01008BEDH   PUBLIC    CONST    ---       MenuItemAutoFlyMode
      01008BE1H   PUBLIC    CONST    ---       PageOptionFlyMode
      01008BD5H   PUBLIC    CONST    ---       PageOptionSwitch
      0100560AH   PUBLIC    CODE     ---       _PageAutoFlyMode
      000000A2H   SFRSYM    DATA     BYTE      SPI0CKR
      00000080H   SFRSYM    DATA     BYTE      P0
      000000D0H.2 SFRSYM    DATA     BIT       PSW_OV
      000000B1H   SFRSYM    DATA     BYTE      XOSC0CN
      00000090H   SFRSYM    DATA     BYTE      P1
      000000A0H   SFRSYM    DATA     BYTE      P2
      000000B0H   SFRSYM    DATA     BYTE      P3
      000000BCH   SFRSYM    DATA     BYTE      ADC0CF
      000000C8H   SFRSYM    DATA     BIT       TMR2CN0_T2XCLK
      000000C7H   SFRSYM    DATA     BYTE      P4
      000000C0H.7 SFRSYM    DATA     BIT       SMB0CN0_MASTER
      000000F9H   SFRSYM    DATA     WORD      PCA0
      000000E6H   SFRSYM    DATA     BYTE      EIE1
      000000C0H.7 SFRSYM    DATA     BIT       SMB1CN0_MASTER
      000000C0H.1 SFRSYM    DATA     BIT       SMB0CN0_ACK
      000000D7H   SFRSYM    DATA     BYTE      USB0XCN
      000000E7H   SFRSYM    DATA     BYTE      EIE2
      000000C0H.1 SFRSYM    DATA     BIT       SMB1CN0_ACK
      0000008FH   SFRSYM    DATA     BYTE      PSCTL
      000000E4H   SFRSYM    DATA     BYTE      IT01CF
      000000C8H   SFRSYM    DATA     BIT       TMR5CN0_T5XCLK
      000000C0H.6 SFRSYM    DATA     BIT       SMB0CN0_TXMODE
      000000C0H.6 SFRSYM    DATA     BIT       SMB1CN0_TXMODE
      000000BFH   SFRSYM    DATA     BYTE      SFRPAGE
      000000A4H   SFRSYM    DATA     BYTE      P0MDOUT
      00000080H.5 SFRSYM    DATA     BIT       LCD_SDA
      000000A5H   SFRSYM    DATA     BYTE      P1MDOUT
      000000E8H.5 SFRSYM    DATA     BIT       ADC0CN0_ADINT
      000000CBH   SFRSYM    DATA     BYTE      TMR2RLH
      000000A6H   SFRSYM    DATA     BYTE      P2MDOUT
      000000A8H   SFRSYM    DATA     BYTE      IE
      00000093H   SFRSYM    DATA     BYTE      TMR3RLH
      000000A7H   SFRSYM    DATA     BYTE      P3MDOUT
LX51 LINKER/LOCATER V4.66.66.0                                                        03/09/2017  11:29:19  PAGE 153


      00000093H   SFRSYM    DATA     BYTE      TMR4RLH
      000000AEH   SFRSYM    DATA     BYTE      P4MDOUT
      000000F6H   SFRSYM    DATA     BYTE      EIP1
      000000CBH   SFRSYM    DATA     BYTE      TMR5RLH
      000000F7H   SFRSYM    DATA     BYTE      EIP2
      00000098H.2 SFRSYM    DATA     BIT       SCON0_RB8
      000000CAH   SFRSYM    DATA     BYTE      TMR2RLL
      000000FCH   SFRSYM    DATA     BYTE      PCA0CPH0
      00000092H   SFRSYM    DATA     BYTE      TMR3RLL
      000000EAH   SFRSYM    DATA     BYTE      PCA0CPH1
      00000098H.3 SFRSYM    DATA     BIT       SCON0_TB8
      000000F0H   SFRSYM    DATA     BIT       B_B0
      00000082H   SFRSYM    DATA     WORD      DP
      00000092H   SFRSYM    DATA     BYTE      TMR4RLL
      000000ECH   SFRSYM    DATA     BYTE      PCA0CPH2
      000000F0H.1 SFRSYM    DATA     BIT       B_B1
      000000C3H   SFRSYM    DATA     WORD      ADC0GT
      000000CAH   SFRSYM    DATA     BYTE      TMR5RLL
      000000EEH   SFRSYM    DATA     BYTE      PCA0CPH3
      00000080H.3 SFRSYM    DATA     BIT       LCD_SCK
      000000F0H.2 SFRSYM    DATA     BIT       B_B2
      000000FBH   SFRSYM    DATA     BYTE      PCA0CPL0
      000000FEH   SFRSYM    DATA     BYTE      PCA0CPH4
      00000085H   SFRSYM    DATA     BYTE      EMI0CF
      000000F0H.3 SFRSYM    DATA     BIT       B_B3
      000000D9H   SFRSYM    DATA     BYTE      PCA0MD
      000000DAH   SFRSYM    DATA     BYTE      PCA0CPM0
      000000E9H   SFRSYM    DATA     BYTE      PCA0CPL1
      000000F0H.4 SFRSYM    DATA     BIT       B_B4
      000000DBH   SFRSYM    DATA     BYTE      PCA0CPM1
      000000EBH   SFRSYM    DATA     BYTE      PCA0CPL2
      000000F0H.5 SFRSYM    DATA     BIT       B_B5
      000000DCH   SFRSYM    DATA     BYTE      PCA0CPM2
      000000EDH   SFRSYM    DATA     BYTE      PCA0CPL3
      000000B8H   SFRSYM    DATA     BYTE      IP
      000000F0H.6 SFRSYM    DATA     BIT       B_B6
      000000C5H   SFRSYM    DATA     WORD      ADC0LT
      000000DDH   SFRSYM    DATA     BYTE      PCA0CPM3
      000000FDH   SFRSYM    DATA     BYTE      PCA0CPL4
      00000098H.5 SFRSYM    DATA     BIT       SCON0_MCE
      000000F0H.7 SFRSYM    DATA     BIT       B_B7
      000000DEH   SFRSYM    DATA     BYTE      PCA0CPM4
      000000E1H   SFRSYM    DATA     BYTE      XBR0
      000000C1H   SFRSYM    DATA     BYTE      SMB0CF
      000000E2H   SFRSYM    DATA     BYTE      XBR1
      000000C1H   SFRSYM    DATA     BYTE      SMB1CF
      000000AFH   SFRSYM    DATA     BYTE      PFE0CN
      000000AAH   SFRSYM    DATA     BYTE      EMI0CN
      000000C0H.5 SFRSYM    DATA     BIT       SMB0CN0_STA
      000000E3H   SFRSYM    DATA     BYTE      XBR2
      000000C0H.5 SFRSYM    DATA     BIT       SMB1CN0_STA
      000000E0H   SFRSYM    DATA     BIT       ACC_ACC0
      000000D1H   SFRSYM    DATA     BYTE      REF0CN
      000000B2H   SFRSYM    DATA     BYTE      HFO0CN
      0000008EH   SFRSYM    DATA     BYTE      CKCON0
      000000E0H.1 SFRSYM    DATA     BIT       ACC_ACC1
      000000E4H   SFRSYM    DATA     BYTE      CKCON1
      000000C8H.2 SFRSYM    DATA     BIT       TMR2CN0_TR2
      000000E0H.2 SFRSYM    DATA     BIT       ACC_ACC2
      000000E0H.3 SFRSYM    DATA     BIT       ACC_ACC3
      00000081H   SFRSYM    DATA     BYTE      SP
      0000009DH   SFRSYM    DATA     BYTE      CMP0MD
      000000E0H.4 SFRSYM    DATA     BIT       ACC_ACC4
      00000086H   SFRSYM    DATA     BYTE      LFO0CN
      00000084H   SFRSYM    DATA     BYTE      EMI0TC
LX51 LINKER/LOCATER V4.66.66.0                                                        03/09/2017  11:29:19  PAGE 154


      0000009CH   SFRSYM    DATA     BYTE      CMP1MD
      000000D8H   SFRSYM    DATA     BIT       PCA0CN0_CCF0
      000000E0H.5 SFRSYM    DATA     BIT       ACC_ACC5
      000000D8H.1 SFRSYM    DATA     BIT       PCA0CN0_CCF1
      000000E0H.6 SFRSYM    DATA     BIT       ACC_ACC6
      000000CCH   SFRSYM    DATA     WORD      TMR2
      000000D8H.2 SFRSYM    DATA     BIT       PCA0CN0_CCF2
      000000E0H.7 SFRSYM    DATA     BIT       ACC_ACC7
      00000094H   SFRSYM    DATA     WORD      TMR3
      000000C8H.2 SFRSYM    DATA     BIT       TMR5CN0_TR5
      000000D8H.3 SFRSYM    DATA     BIT       PCA0CN0_CCF3
      00000094H   SFRSYM    DATA     WORD      TMR4
      000000ACH   SFRSYM    DATA     BYTE      SBCON1
      000000D8H.4 SFRSYM    DATA     BIT       PCA0CN0_CCF4
      000000CCH   SFRSYM    DATA     WORD      TMR5
      000000C0H.3 SFRSYM    DATA     BIT       SMB0CN0_ACKRQ
      000000FFH   SFRSYM    DATA     BYTE      VDM0CN
      000000F1H   SFRSYM    DATA     BYTE      P0MDIN
      000000C0H.3 SFRSYM    DATA     BIT       SMB1CN0_ACKRQ
      00000098H.4 SFRSYM    DATA     BIT       SCON0_REN
      000000F2H   SFRSYM    DATA     BYTE      P1MDIN
      000000F3H   SFRSYM    DATA     BYTE      P2MDIN
      000000C0H.4 SFRSYM    DATA     BIT       SMB0CN0_STO
      000000F4H   SFRSYM    DATA     BYTE      P3MDIN
      00000090H.3 SFRSYM    DATA     BIT       LCD_RST
      000000C0H.4 SFRSYM    DATA     BIT       SMB1CN0_STO
      000000B5H   SFRSYM    DATA     BYTE      SBRLH1
      000000F5H   SFRSYM    DATA     BYTE      P4MDIN
      000000D0H.3 SFRSYM    DATA     BIT       PSW_RS0
      000000D8H.7 SFRSYM    DATA     BIT       PCA0CN0_CF
      000000F8H.4 SFRSYM    DATA     BIT       SPI0CN0_RXOVRN
      000000D0H.4 SFRSYM    DATA     BIT       PSW_RS1
      000000B4H   SFRSYM    DATA     BYTE      SBRLL1
      000000E8H.7 SFRSYM    DATA     BIT       ADC0CN0_ADEN
      00000089H   SFRSYM    DATA     BYTE      TMOD
      00000088H   SFRSYM    DATA     BYTE      TCON
      000000D0H   SFRSYM    DATA     BIT       PSW_PARITY
      000000A8H.4 SFRSYM    DATA     BIT       IE_ES0
      0000009FH   SFRSYM    DATA     BYTE      CMP0MX
      000000A8H.1 SFRSYM    DATA     BIT       IE_ET0
      0000009EH   SFRSYM    DATA     BYTE      CMP1MX
      000000A8H.3 SFRSYM    DATA     BIT       IE_ET1
      000000D4H   SFRSYM    DATA     BYTE      P0SKIP
      000000C8H.1 SFRSYM    DATA     BIT       TMR2CN0_T2CSS
      000000A8H.5 SFRSYM    DATA     BIT       IE_ET2
      000000D5H   SFRSYM    DATA     BYTE      P1SKIP
      000000D6H   SFRSYM    DATA     BYTE      P2SKIP
      000000E8H   SFRSYM    DATA     BYTE      ADC0CN0
      000000A8H   SFRSYM    DATA     BIT       IE_EX0
      000000DFH   SFRSYM    DATA     BYTE      P3SKIP
      000000D8H.6 SFRSYM    DATA     BIT       PCA0CN0_CR
      000000A8H.2 SFRSYM    DATA     BIT       IE_EX1
      00000098H.7 SFRSYM    DATA     BIT       SCON0_SMODE
      000000A9H   SFRSYM    DATA     BYTE      CLKSEL
      000000F8H   SFRSYM    DATA     BIT       SPI0CN0_SPIEN
      000000F0H   SFRSYM    DATA     BYTE      B
      000000BEH   SFRSYM    DATA     BYTE      ADC0H
      000000E8H.6 SFRSYM    DATA     BIT       ADC0CN0_ADTM
      000000CAH   SFRSYM    DATA     WORD      TMR2RL
      000000BDH   SFRSYM    DATA     BYTE      ADC0L
      00000092H   SFRSYM    DATA     WORD      TMR3RL
      00000092H   SFRSYM    DATA     WORD      TMR4RL
      000000D8H   SFRSYM    DATA     BYTE      PCA0CN0
      000000E0H   SFRSYM    DATA     BYTE      ACC
      000000CAH   SFRSYM    DATA     WORD      TMR5RL
LX51 LINKER/LOCATER V4.66.66.0                                                        03/09/2017  11:29:19  PAGE 155


      000000FBH   SFRSYM    DATA     WORD      PCA0CP0
      00000080H.6 SFRSYM    DATA     BIT       LCD_CS
      000000E9H   SFRSYM    DATA     WORD      PCA0CP1
      000000EBH   SFRSYM    DATA     WORD      PCA0CP2
      000000EDH   SFRSYM    DATA     WORD      PCA0CP3
      0000008CH   SFRSYM    DATA     BYTE      TH0
      000000B8H.4 SFRSYM    DATA     BIT       IP_PS0
      000000FDH   SFRSYM    DATA     WORD      PCA0CP4
      0000008DH   SFRSYM    DATA     BYTE      TH1
      000000FAH   SFRSYM    DATA     BYTE      PCA0H
      000000B8H.1 SFRSYM    DATA     BIT       IP_PT0
      000000B8H.3 SFRSYM    DATA     BIT       IP_PT1
      000000C0H.2 SFRSYM    DATA     BIT       SMB0CN0_ARBLOST
      000000B8H.5 SFRSYM    DATA     BIT       IP_PT2
      0000008AH   SFRSYM    DATA     BYTE      TL0
      000000F8H.1 SFRSYM    DATA     BIT       SPI0CN0_TXBMT
      000000C0H.2 SFRSYM    DATA     BIT       SMB1CN0_ARBLOST
      000000D0H.5 SFRSYM    DATA     BIT       PSW_F0
      000000A8H.6 SFRSYM    DATA     BIT       IE_ESPI0
      0000008BH   SFRSYM    DATA     BYTE      TL1
      000000F9H   SFRSYM    DATA     BYTE      PCA0L
      000000C0H   SFRSYM    DATA     BIT       SMB0CN0_SI
      000000D0H.1 SFRSYM    DATA     BIT       PSW_F1
      00000080H   SFRSYM    DATA     BIT       P0_B0
      000000B8H   SFRSYM    DATA     BIT       IP_PX0
      000000C9H   SFRSYM    DATA     BYTE      REG01CN
      000000C0H   SFRSYM    DATA     BIT       SMB1CN0_SI
      00000090H   SFRSYM    DATA     BIT       P1_B0
      00000080H.1 SFRSYM    DATA     BIT       P0_B1
      000000B8H.2 SFRSYM    DATA     BIT       IP_PX1
      0000009BH   SFRSYM    DATA     BYTE      CMP0CN0
      00000088H.1 SFRSYM    DATA     BIT       TCON_IE0
      000000A0H   SFRSYM    DATA     BIT       P2_B0
      00000090H.1 SFRSYM    DATA     BIT       P1_B1
      00000080H.2 SFRSYM    DATA     BIT       P0_B2
      0000009AH   SFRSYM    DATA     BYTE      CMP1CN0
      00000088H.3 SFRSYM    DATA     BIT       TCON_IE1
      000000B0H   SFRSYM    DATA     BIT       P3_B0
      000000A0H.1 SFRSYM    DATA     BIT       P2_B1
      00000090H.2 SFRSYM    DATA     BIT       P1_B2
      00000080H.3 SFRSYM    DATA     BIT       P0_B3
      000000C0H   SFRSYM    DATA     BYTE      SMB0CN0
      000000B0H.1 SFRSYM    DATA     BIT       P3_B1
      000000A0H.2 SFRSYM    DATA     BIT       P2_B2
      00000090H.3 SFRSYM    DATA     BIT       P1_B3
      00000080H.4 SFRSYM    DATA     BIT       P0_B4
      000000C0H   SFRSYM    DATA     BYTE      SMB1CN0
      000000B0H.2 SFRSYM    DATA     BIT       P3_B2
      000000A0H.3 SFRSYM    DATA     BIT       P2_B3
      00000090H.4 SFRSYM    DATA     BIT       P1_B4
      00000080H.5 SFRSYM    DATA     BIT       P0_B5
      000000B0H.3 SFRSYM    DATA     BIT       P3_B3
      000000A0H.4 SFRSYM    DATA     BIT       P2_B4
      00000090H.5 SFRSYM    DATA     BIT       P1_B5
      00000080H.6 SFRSYM    DATA     BIT       P0_B6
      00000080H.2 SFRSYM    DATA     BIT       LCD_RS
      000000B0H.4 SFRSYM    DATA     BIT       P3_B4
      000000A0H.5 SFRSYM    DATA     BIT       P2_B5
      00000090H.6 SFRSYM    DATA     BIT       P1_B6
      00000080H.7 SFRSYM    DATA     BIT       P0_B7
      000000B0H.5 SFRSYM    DATA     BIT       P3_B5
      000000A0H.6 SFRSYM    DATA     BIT       P2_B6
      00000090H.7 SFRSYM    DATA     BIT       P1_B7
      000000B0H.6 SFRSYM    DATA     BIT       P3_B6
      000000A0H.7 SFRSYM    DATA     BIT       P2_B7
LX51 LINKER/LOCATER V4.66.66.0                                                        03/09/2017  11:29:19  PAGE 156


      000000B0H.7 SFRSYM    DATA     BIT       P3_B7
      00000083H   SFRSYM    DATA     BYTE      DPH
      000000C4H   SFRSYM    DATA     BYTE      ADC0GTH
      000000C8H.7 SFRSYM    DATA     BIT       TMR2CN0_TF2H
      000000C8H.3 SFRSYM    DATA     BIT       TMR2CN0_T2SPLIT
      000000D0H.6 SFRSYM    DATA     BIT       PSW_AC
      000000F8H   SFRSYM    DATA     BYTE      SPI0CN0
      000000B3H   SFRSYM    DATA     BYTE      HFO0CAL
      00000080H   SFRSYM    DATA     BIT       BtnEntGpio
      00000088H.5 SFRSYM    DATA     BIT       TCON_TF0
      00000098H   SFRSYM    DATA     BIT       SCON0_RI
      00000082H   SFRSYM    DATA     BYTE      DPL
      00000088H.7 SFRSYM    DATA     BIT       TCON_TF1
      00000099H   SFRSYM    DATA     BYTE      SBUF0
      00000087H   SFRSYM    DATA     BYTE      PCON0
      000000C3H   SFRSYM    DATA     BYTE      ADC0GTL
      000000C8H.6 SFRSYM    DATA     BIT       TMR2CN0_TF2L
      00000098H.1 SFRSYM    DATA     BIT       SCON0_TI
      000000E8H   SFRSYM    DATA     BIT       ADC0CN0_ADCM0
      000000D3H   SFRSYM    DATA     BYTE      SBUF1
      000000C6H   SFRSYM    DATA     BYTE      ADC0LTH
      00000088H   SFRSYM    DATA     BIT       TCON_IT0
      000000E8H.1 SFRSYM    DATA     BIT       ADC0CN0_ADCM1
      000000EFH   SFRSYM    DATA     BYTE      RSTSRC
      000000C8H.7 SFRSYM    DATA     BIT       TMR5CN0_TF5H
      000000C8H.3 SFRSYM    DATA     BIT       TMR5CN0_T5SPLIT
      00000088H.2 SFRSYM    DATA     BIT       TCON_IT1
      000000E8H.2 SFRSYM    DATA     BIT       ADC0CN0_ADCM2
      00000098H   SFRSYM    DATA     BYTE      SCON0
      000000E8H.3 SFRSYM    DATA     BIT       ADC0CN0_ADWINT
      000000B4H   SFRSYM    DATA     WORD      SBRL1
      000000E5H   SFRSYM    DATA     BYTE      SMOD1
      000000D2H   SFRSYM    DATA     BYTE      SCON1
      000000BAH   SFRSYM    DATA     BYTE      AMX0N
      000000E8H.4 SFRSYM    DATA     BIT       ADC0CN0_ADBUSY
      000000CEH   SFRSYM    DATA     BYTE      SMB0ADM
      000000C5H   SFRSYM    DATA     BYTE      ADC0LTL
      000000F8H.5 SFRSYM    DATA     BIT       SPI0CN0_MODF
      000000B8H.6 SFRSYM    DATA     BIT       IP_PSPI0
      000000CEH   SFRSYM    DATA     BYTE      SMB1ADM
      000000BBH   SFRSYM    DATA     BYTE      AMX0P
      000000C8H.6 SFRSYM    DATA     BIT       TMR5CN0_TF5L
      000000C8H   SFRSYM    DATA     BYTE      TMR2CN0
      00000091H   SFRSYM    DATA     BYTE      TMR3CN0
      00000080H.1 SFRSYM    DATA     BIT       BtnExtGpio
      00000091H   SFRSYM    DATA     BYTE      TMR4CN0
      000000C8H   SFRSYM    DATA     BYTE      TMR5CN0
      000000CFH   SFRSYM    DATA     BYTE      SMB0ADR
      00000088H.4 SFRSYM    DATA     BIT       TCON_TR0
      000000CFH   SFRSYM    DATA     BYTE      SMB1ADR
      000000C8H.4 SFRSYM    DATA     BIT       TMR2CN0_TF2CEN
      00000088H.6 SFRSYM    DATA     BIT       TCON_TR1
      000000C2H   SFRSYM    DATA     BYTE      SMB0DAT
      00000080H.4 SFRSYM    DATA     BIT       RC_OUT
      000000CDH   SFRSYM    DATA     BYTE      TMR2H
      000000A1H   SFRSYM    DATA     BYTE      SPI0CFG
      000000C2H   SFRSYM    DATA     BYTE      SMB1DAT
      00000095H   SFRSYM    DATA     BYTE      TMR3H
      00000095H   SFRSYM    DATA     BYTE      TMR4H
      000000CDH   SFRSYM    DATA     BYTE      TMR5H
      000000CCH   SFRSYM    DATA     BYTE      TMR2L
      00000090H.5 SFRSYM    DATA     BIT       BtnDwGpio
      000000F8H.7 SFRSYM    DATA     BIT       SPI0CN0_SPIF
      00000096H   SFRSYM    DATA     BYTE      USB0ADR
      00000094H   SFRSYM    DATA     BYTE      TMR3L
LX51 LINKER/LOCATER V4.66.66.0                                                        03/09/2017  11:29:19  PAGE 157


      000000A8H.7 SFRSYM    DATA     BIT       IE_EA
      00000094H   SFRSYM    DATA     BYTE      TMR4L
      00000097H   SFRSYM    DATA     BYTE      USB0DAT
      000000CCH   SFRSYM    DATA     BYTE      TMR5L
      000000B6H   SFRSYM    DATA     BYTE      FLSCL
      000000C8H.5 SFRSYM    DATA     BIT       TMR2CN0_TF2LEN
      000000F8H.6 SFRSYM    DATA     BIT       SPI0CN0_WCOL
      000000F8H.2 SFRSYM    DATA     BIT       SPI0CN0_NSSMD0
      000000D0H.7 SFRSYM    DATA     BIT       PSW_CY
      000000A3H   SFRSYM    DATA     BYTE      SPI0DAT
      000000F8H.3 SFRSYM    DATA     BIT       SPI0CN0_NSSMD1
      000000BDH   SFRSYM    DATA     WORD      ADC0
      000000B9H   SFRSYM    DATA     BYTE      SMBTC
      000000D0H   SFRSYM    DATA     BYTE      PSW
      000000C8H.5 SFRSYM    DATA     BIT       TMR5CN0_TF5LEN
      000000B7H   SFRSYM    DATA     BYTE      FLKEY
      00000090H.4 SFRSYM    DATA     BIT       BtnUpGpio

      0100560AH   BLOCK     CODE     ---       LVL=0
      02000A0FH   SYMBOL    XDATA    BYTE      event
      0100560AH   LINE      CODE     ---       #15
      0100560FH   LINE      CODE     ---       #16
      01005619H   LINE      CODE     ---       #17
      0100561EH   LINE      CODE     ---       #18
      01005626H   LINE      CODE     ---       #19
      01005635H   LINE      CODE     ---       #20
      0100563BH   LINE      CODE     ---       #21
      0100563BH   LINE      CODE     ---       #22
      0100564AH   LINE      CODE     ---       #23
      01005650H   LINE      CODE     ---       #24
      01005653H   LINE      CODE     ---       #25
      01005653H   LINE      CODE     ---       #27
      0100565EH   LINE      CODE     ---       #28
      01005684H   LINE      CODE     ---       #30
      0100568CH   LINE      CODE     ---       #31
      010056AFH   LINE      CODE     ---       #32
      010056D2H   LINE      CODE     ---       #33
      010056D4H   LINE      CODE     ---       #34
      010056DAH   LINE      CODE     ---       #35
      010056E8H   LINE      CODE     ---       #36
      010056E8H   LINE      CODE     ---       #37
      010056E8H   LINE      CODE     ---       #38
      010056F0H   LINE      CODE     ---       #39
      010056F9H   LINE      CODE     ---       #40
      010056FEH   LINE      CODE     ---       #41
      0100570CH   LINE      CODE     ---       #42
      0100570EH   LINE      CODE     ---       #43
      01005713H   LINE      CODE     ---       #44
      01005713H   LINE      CODE     ---       #45
      01005713H   LINE      CODE     ---       #47
      01005715H   LINE      CODE     ---       #48
      ---         BLOCKEND  ---      ---       LVL=0

      ---         MODULE    ---      ---       PAGESTABILIZERPITCHGAIN
      020009A2H   PUBLIC    XDATA    ---       AutoFlyPitchGainMs
      01008C7FH   PUBLIC    CONST    ---       MenuItemAutoFlyPitchGain
      01008C79H   PUBLIC    CONST    ---       PageOptionAutoFlyPitchGain
      01005716H   PUBLIC    CODE     ---       _PageAutoFlyPitchGain
      000000A2H   SFRSYM    DATA     BYTE      SPI0CKR
      00000080H   SFRSYM    DATA     BYTE      P0
      000000D0H.2 SFRSYM    DATA     BIT       PSW_OV
      000000B1H   SFRSYM    DATA     BYTE      XOSC0CN
      00000090H   SFRSYM    DATA     BYTE      P1
      000000A0H   SFRSYM    DATA     BYTE      P2
      000000B0H   SFRSYM    DATA     BYTE      P3
LX51 LINKER/LOCATER V4.66.66.0                                                        03/09/2017  11:29:19  PAGE 158


      000000BCH   SFRSYM    DATA     BYTE      ADC0CF
      000000C8H   SFRSYM    DATA     BIT       TMR2CN0_T2XCLK
      000000C7H   SFRSYM    DATA     BYTE      P4
      000000C0H.7 SFRSYM    DATA     BIT       SMB0CN0_MASTER
      000000F9H   SFRSYM    DATA     WORD      PCA0
      000000E6H   SFRSYM    DATA     BYTE      EIE1
      000000C0H.7 SFRSYM    DATA     BIT       SMB1CN0_MASTER
      000000C0H.1 SFRSYM    DATA     BIT       SMB0CN0_ACK
      000000D7H   SFRSYM    DATA     BYTE      USB0XCN
      000000E7H   SFRSYM    DATA     BYTE      EIE2
      000000C0H.1 SFRSYM    DATA     BIT       SMB1CN0_ACK
      0000008FH   SFRSYM    DATA     BYTE      PSCTL
      000000E4H   SFRSYM    DATA     BYTE      IT01CF
      000000C8H   SFRSYM    DATA     BIT       TMR5CN0_T5XCLK
      000000C0H.6 SFRSYM    DATA     BIT       SMB0CN0_TXMODE
      000000C0H.6 SFRSYM    DATA     BIT       SMB1CN0_TXMODE
      000000BFH   SFRSYM    DATA     BYTE      SFRPAGE
      000000A4H   SFRSYM    DATA     BYTE      P0MDOUT
      00000080H.5 SFRSYM    DATA     BIT       LCD_SDA
      000000A5H   SFRSYM    DATA     BYTE      P1MDOUT
      000000E8H.5 SFRSYM    DATA     BIT       ADC0CN0_ADINT
      000000CBH   SFRSYM    DATA     BYTE      TMR2RLH
      000000A6H   SFRSYM    DATA     BYTE      P2MDOUT
      000000A8H   SFRSYM    DATA     BYTE      IE
      00000093H   SFRSYM    DATA     BYTE      TMR3RLH
      000000A7H   SFRSYM    DATA     BYTE      P3MDOUT
      00000093H   SFRSYM    DATA     BYTE      TMR4RLH
      000000AEH   SFRSYM    DATA     BYTE      P4MDOUT
      000000F6H   SFRSYM    DATA     BYTE      EIP1
      000000CBH   SFRSYM    DATA     BYTE      TMR5RLH
      000000F7H   SFRSYM    DATA     BYTE      EIP2
      00000098H.2 SFRSYM    DATA     BIT       SCON0_RB8
      000000CAH   SFRSYM    DATA     BYTE      TMR2RLL
      000000FCH   SFRSYM    DATA     BYTE      PCA0CPH0
      00000092H   SFRSYM    DATA     BYTE      TMR3RLL
      000000EAH   SFRSYM    DATA     BYTE      PCA0CPH1
      00000098H.3 SFRSYM    DATA     BIT       SCON0_TB8
      000000F0H   SFRSYM    DATA     BIT       B_B0
      00000082H   SFRSYM    DATA     WORD      DP
      00000092H   SFRSYM    DATA     BYTE      TMR4RLL
      000000ECH   SFRSYM    DATA     BYTE      PCA0CPH2
      000000F0H.1 SFRSYM    DATA     BIT       B_B1
      000000C3H   SFRSYM    DATA     WORD      ADC0GT
      000000CAH   SFRSYM    DATA     BYTE      TMR5RLL
      000000EEH   SFRSYM    DATA     BYTE      PCA0CPH3
      00000080H.3 SFRSYM    DATA     BIT       LCD_SCK
      000000F0H.2 SFRSYM    DATA     BIT       B_B2
      000000FBH   SFRSYM    DATA     BYTE      PCA0CPL0
      000000FEH   SFRSYM    DATA     BYTE      PCA0CPH4
      00000085H   SFRSYM    DATA     BYTE      EMI0CF
      000000F0H.3 SFRSYM    DATA     BIT       B_B3
      000000D9H   SFRSYM    DATA     BYTE      PCA0MD
      000000DAH   SFRSYM    DATA     BYTE      PCA0CPM0
      000000E9H   SFRSYM    DATA     BYTE      PCA0CPL1
      000000F0H.4 SFRSYM    DATA     BIT       B_B4
      000000DBH   SFRSYM    DATA     BYTE      PCA0CPM1
      000000EBH   SFRSYM    DATA     BYTE      PCA0CPL2
      000000F0H.5 SFRSYM    DATA     BIT       B_B5
      000000DCH   SFRSYM    DATA     BYTE      PCA0CPM2
      000000EDH   SFRSYM    DATA     BYTE      PCA0CPL3
      000000B8H   SFRSYM    DATA     BYTE      IP
      000000F0H.6 SFRSYM    DATA     BIT       B_B6
      000000C5H   SFRSYM    DATA     WORD      ADC0LT
      000000DDH   SFRSYM    DATA     BYTE      PCA0CPM3
      000000FDH   SFRSYM    DATA     BYTE      PCA0CPL4
LX51 LINKER/LOCATER V4.66.66.0                                                        03/09/2017  11:29:19  PAGE 159


      00000098H.5 SFRSYM    DATA     BIT       SCON0_MCE
      000000F0H.7 SFRSYM    DATA     BIT       B_B7
      000000DEH   SFRSYM    DATA     BYTE      PCA0CPM4
      000000E1H   SFRSYM    DATA     BYTE      XBR0
      000000C1H   SFRSYM    DATA     BYTE      SMB0CF
      000000E2H   SFRSYM    DATA     BYTE      XBR1
      000000C1H   SFRSYM    DATA     BYTE      SMB1CF
      000000AFH   SFRSYM    DATA     BYTE      PFE0CN
      000000AAH   SFRSYM    DATA     BYTE      EMI0CN
      000000C0H.5 SFRSYM    DATA     BIT       SMB0CN0_STA
      000000E3H   SFRSYM    DATA     BYTE      XBR2
      000000C0H.5 SFRSYM    DATA     BIT       SMB1CN0_STA
      000000E0H   SFRSYM    DATA     BIT       ACC_ACC0
      000000D1H   SFRSYM    DATA     BYTE      REF0CN
      000000B2H   SFRSYM    DATA     BYTE      HFO0CN
      0000008EH   SFRSYM    DATA     BYTE      CKCON0
      000000E0H.1 SFRSYM    DATA     BIT       ACC_ACC1
      000000E4H   SFRSYM    DATA     BYTE      CKCON1
      000000C8H.2 SFRSYM    DATA     BIT       TMR2CN0_TR2
      000000E0H.2 SFRSYM    DATA     BIT       ACC_ACC2
      000000E0H.3 SFRSYM    DATA     BIT       ACC_ACC3
      00000081H   SFRSYM    DATA     BYTE      SP
      0000009DH   SFRSYM    DATA     BYTE      CMP0MD
      000000E0H.4 SFRSYM    DATA     BIT       ACC_ACC4
      00000086H   SFRSYM    DATA     BYTE      LFO0CN
      00000084H   SFRSYM    DATA     BYTE      EMI0TC
      0000009CH   SFRSYM    DATA     BYTE      CMP1MD
      000000D8H   SFRSYM    DATA     BIT       PCA0CN0_CCF0
      000000E0H.5 SFRSYM    DATA     BIT       ACC_ACC5
      000000D8H.1 SFRSYM    DATA     BIT       PCA0CN0_CCF1
      000000E0H.6 SFRSYM    DATA     BIT       ACC_ACC6
      000000CCH   SFRSYM    DATA     WORD      TMR2
      000000D8H.2 SFRSYM    DATA     BIT       PCA0CN0_CCF2
      000000E0H.7 SFRSYM    DATA     BIT       ACC_ACC7
      00000094H   SFRSYM    DATA     WORD      TMR3
      000000C8H.2 SFRSYM    DATA     BIT       TMR5CN0_TR5
      000000D8H.3 SFRSYM    DATA     BIT       PCA0CN0_CCF3
      00000094H   SFRSYM    DATA     WORD      TMR4
      000000ACH   SFRSYM    DATA     BYTE      SBCON1
      000000D8H.4 SFRSYM    DATA     BIT       PCA0CN0_CCF4
      000000CCH   SFRSYM    DATA     WORD      TMR5
      000000C0H.3 SFRSYM    DATA     BIT       SMB0CN0_ACKRQ
      000000FFH   SFRSYM    DATA     BYTE      VDM0CN
      000000F1H   SFRSYM    DATA     BYTE      P0MDIN
      000000C0H.3 SFRSYM    DATA     BIT       SMB1CN0_ACKRQ
      00000098H.4 SFRSYM    DATA     BIT       SCON0_REN
      000000F2H   SFRSYM    DATA     BYTE      P1MDIN
      000000F3H   SFRSYM    DATA     BYTE      P2MDIN
      000000C0H.4 SFRSYM    DATA     BIT       SMB0CN0_STO
      000000F4H   SFRSYM    DATA     BYTE      P3MDIN
      00000090H.3 SFRSYM    DATA     BIT       LCD_RST
      000000C0H.4 SFRSYM    DATA     BIT       SMB1CN0_STO
      000000B5H   SFRSYM    DATA     BYTE      SBRLH1
      000000F5H   SFRSYM    DATA     BYTE      P4MDIN
      000000D0H.3 SFRSYM    DATA     BIT       PSW_RS0
      000000D8H.7 SFRSYM    DATA     BIT       PCA0CN0_CF
      000000F8H.4 SFRSYM    DATA     BIT       SPI0CN0_RXOVRN
      000000D0H.4 SFRSYM    DATA     BIT       PSW_RS1
      000000B4H   SFRSYM    DATA     BYTE      SBRLL1
      000000E8H.7 SFRSYM    DATA     BIT       ADC0CN0_ADEN
      00000089H   SFRSYM    DATA     BYTE      TMOD
      00000088H   SFRSYM    DATA     BYTE      TCON
      000000D0H   SFRSYM    DATA     BIT       PSW_PARITY
      000000A8H.4 SFRSYM    DATA     BIT       IE_ES0
      0000009FH   SFRSYM    DATA     BYTE      CMP0MX
LX51 LINKER/LOCATER V4.66.66.0                                                        03/09/2017  11:29:19  PAGE 160


      000000A8H.1 SFRSYM    DATA     BIT       IE_ET0
      0000009EH   SFRSYM    DATA     BYTE      CMP1MX
      000000A8H.3 SFRSYM    DATA     BIT       IE_ET1
      000000D4H   SFRSYM    DATA     BYTE      P0SKIP
      000000C8H.1 SFRSYM    DATA     BIT       TMR2CN0_T2CSS
      000000A8H.5 SFRSYM    DATA     BIT       IE_ET2
      000000D5H   SFRSYM    DATA     BYTE      P1SKIP
      000000D6H   SFRSYM    DATA     BYTE      P2SKIP
      000000E8H   SFRSYM    DATA     BYTE      ADC0CN0
      000000A8H   SFRSYM    DATA     BIT       IE_EX0
      000000DFH   SFRSYM    DATA     BYTE      P3SKIP
      000000D8H.6 SFRSYM    DATA     BIT       PCA0CN0_CR
      000000A8H.2 SFRSYM    DATA     BIT       IE_EX1
      00000098H.7 SFRSYM    DATA     BIT       SCON0_SMODE
      000000A9H   SFRSYM    DATA     BYTE      CLKSEL
      000000F8H   SFRSYM    DATA     BIT       SPI0CN0_SPIEN
      000000F0H   SFRSYM    DATA     BYTE      B
      000000BEH   SFRSYM    DATA     BYTE      ADC0H
      000000E8H.6 SFRSYM    DATA     BIT       ADC0CN0_ADTM
      000000CAH   SFRSYM    DATA     WORD      TMR2RL
      000000BDH   SFRSYM    DATA     BYTE      ADC0L
      00000092H   SFRSYM    DATA     WORD      TMR3RL
      00000092H   SFRSYM    DATA     WORD      TMR4RL
      000000D8H   SFRSYM    DATA     BYTE      PCA0CN0
      000000E0H   SFRSYM    DATA     BYTE      ACC
      000000CAH   SFRSYM    DATA     WORD      TMR5RL
      000000FBH   SFRSYM    DATA     WORD      PCA0CP0
      00000080H.6 SFRSYM    DATA     BIT       LCD_CS
      000000E9H   SFRSYM    DATA     WORD      PCA0CP1
      000000EBH   SFRSYM    DATA     WORD      PCA0CP2
      000000EDH   SFRSYM    DATA     WORD      PCA0CP3
      0000008CH   SFRSYM    DATA     BYTE      TH0
      000000B8H.4 SFRSYM    DATA     BIT       IP_PS0
      000000FDH   SFRSYM    DATA     WORD      PCA0CP4
      0000008DH   SFRSYM    DATA     BYTE      TH1
      000000FAH   SFRSYM    DATA     BYTE      PCA0H
      000000B8H.1 SFRSYM    DATA     BIT       IP_PT0
      000000B8H.3 SFRSYM    DATA     BIT       IP_PT1
      000000C0H.2 SFRSYM    DATA     BIT       SMB0CN0_ARBLOST
      000000B8H.5 SFRSYM    DATA     BIT       IP_PT2
      0000008AH   SFRSYM    DATA     BYTE      TL0
      000000F8H.1 SFRSYM    DATA     BIT       SPI0CN0_TXBMT
      000000C0H.2 SFRSYM    DATA     BIT       SMB1CN0_ARBLOST
      000000D0H.5 SFRSYM    DATA     BIT       PSW_F0
      000000A8H.6 SFRSYM    DATA     BIT       IE_ESPI0
      0000008BH   SFRSYM    DATA     BYTE      TL1
      000000F9H   SFRSYM    DATA     BYTE      PCA0L
      000000C0H   SFRSYM    DATA     BIT       SMB0CN0_SI
      000000D0H.1 SFRSYM    DATA     BIT       PSW_F1
      00000080H   SFRSYM    DATA     BIT       P0_B0
      000000B8H   SFRSYM    DATA     BIT       IP_PX0
      000000C9H   SFRSYM    DATA     BYTE      REG01CN
      000000C0H   SFRSYM    DATA     BIT       SMB1CN0_SI
      00000090H   SFRSYM    DATA     BIT       P1_B0
      00000080H.1 SFRSYM    DATA     BIT       P0_B1
      000000B8H.2 SFRSYM    DATA     BIT       IP_PX1
      0000009BH   SFRSYM    DATA     BYTE      CMP0CN0
      00000088H.1 SFRSYM    DATA     BIT       TCON_IE0
      000000A0H   SFRSYM    DATA     BIT       P2_B0
      00000090H.1 SFRSYM    DATA     BIT       P1_B1
      00000080H.2 SFRSYM    DATA     BIT       P0_B2
      0000009AH   SFRSYM    DATA     BYTE      CMP1CN0
      00000088H.3 SFRSYM    DATA     BIT       TCON_IE1
      000000B0H   SFRSYM    DATA     BIT       P3_B0
      000000A0H.1 SFRSYM    DATA     BIT       P2_B1
LX51 LINKER/LOCATER V4.66.66.0                                                        03/09/2017  11:29:19  PAGE 161


      00000090H.2 SFRSYM    DATA     BIT       P1_B2
      00000080H.3 SFRSYM    DATA     BIT       P0_B3
      000000C0H   SFRSYM    DATA     BYTE      SMB0CN0
      000000B0H.1 SFRSYM    DATA     BIT       P3_B1
      000000A0H.2 SFRSYM    DATA     BIT       P2_B2
      00000090H.3 SFRSYM    DATA     BIT       P1_B3
      00000080H.4 SFRSYM    DATA     BIT       P0_B4
      000000C0H   SFRSYM    DATA     BYTE      SMB1CN0
      000000B0H.2 SFRSYM    DATA     BIT       P3_B2
      000000A0H.3 SFRSYM    DATA     BIT       P2_B3
      00000090H.4 SFRSYM    DATA     BIT       P1_B4
      00000080H.5 SFRSYM    DATA     BIT       P0_B5
      000000B0H.3 SFRSYM    DATA     BIT       P3_B3
      000000A0H.4 SFRSYM    DATA     BIT       P2_B4
      00000090H.5 SFRSYM    DATA     BIT       P1_B5
      00000080H.6 SFRSYM    DATA     BIT       P0_B6
      00000080H.2 SFRSYM    DATA     BIT       LCD_RS
      000000B0H.4 SFRSYM    DATA     BIT       P3_B4
      000000A0H.5 SFRSYM    DATA     BIT       P2_B5
      00000090H.6 SFRSYM    DATA     BIT       P1_B6
      00000080H.7 SFRSYM    DATA     BIT       P0_B7
      000000B0H.5 SFRSYM    DATA     BIT       P3_B5
      000000A0H.6 SFRSYM    DATA     BIT       P2_B6
      00000090H.7 SFRSYM    DATA     BIT       P1_B7
      000000B0H.6 SFRSYM    DATA     BIT       P3_B6
      000000A0H.7 SFRSYM    DATA     BIT       P2_B7
      000000B0H.7 SFRSYM    DATA     BIT       P3_B7
      00000083H   SFRSYM    DATA     BYTE      DPH
      000000C4H   SFRSYM    DATA     BYTE      ADC0GTH
      000000C8H.7 SFRSYM    DATA     BIT       TMR2CN0_TF2H
      000000C8H.3 SFRSYM    DATA     BIT       TMR2CN0_T2SPLIT
      000000D0H.6 SFRSYM    DATA     BIT       PSW_AC
      000000F8H   SFRSYM    DATA     BYTE      SPI0CN0
      000000B3H   SFRSYM    DATA     BYTE      HFO0CAL
      00000080H   SFRSYM    DATA     BIT       BtnEntGpio
      00000088H.5 SFRSYM    DATA     BIT       TCON_TF0
      00000098H   SFRSYM    DATA     BIT       SCON0_RI
      00000082H   SFRSYM    DATA     BYTE      DPL
      00000088H.7 SFRSYM    DATA     BIT       TCON_TF1
      00000099H   SFRSYM    DATA     BYTE      SBUF0
      00000087H   SFRSYM    DATA     BYTE      PCON0
      000000C3H   SFRSYM    DATA     BYTE      ADC0GTL
      000000C8H.6 SFRSYM    DATA     BIT       TMR2CN0_TF2L
      00000098H.1 SFRSYM    DATA     BIT       SCON0_TI
      000000E8H   SFRSYM    DATA     BIT       ADC0CN0_ADCM0
      000000D3H   SFRSYM    DATA     BYTE      SBUF1
      000000C6H   SFRSYM    DATA     BYTE      ADC0LTH
      00000088H   SFRSYM    DATA     BIT       TCON_IT0
      000000E8H.1 SFRSYM    DATA     BIT       ADC0CN0_ADCM1
      000000EFH   SFRSYM    DATA     BYTE      RSTSRC
      000000C8H.7 SFRSYM    DATA     BIT       TMR5CN0_TF5H
      000000C8H.3 SFRSYM    DATA     BIT       TMR5CN0_T5SPLIT
      00000088H.2 SFRSYM    DATA     BIT       TCON_IT1
      000000E8H.2 SFRSYM    DATA     BIT       ADC0CN0_ADCM2
      00000098H   SFRSYM    DATA     BYTE      SCON0
      000000E8H.3 SFRSYM    DATA     BIT       ADC0CN0_ADWINT
      000000B4H   SFRSYM    DATA     WORD      SBRL1
      000000E5H   SFRSYM    DATA     BYTE      SMOD1
      000000D2H   SFRSYM    DATA     BYTE      SCON1
      000000BAH   SFRSYM    DATA     BYTE      AMX0N
      000000E8H.4 SFRSYM    DATA     BIT       ADC0CN0_ADBUSY
      000000CEH   SFRSYM    DATA     BYTE      SMB0ADM
      000000C5H   SFRSYM    DATA     BYTE      ADC0LTL
      000000F8H.5 SFRSYM    DATA     BIT       SPI0CN0_MODF
      000000B8H.6 SFRSYM    DATA     BIT       IP_PSPI0
LX51 LINKER/LOCATER V4.66.66.0                                                        03/09/2017  11:29:19  PAGE 162


      000000CEH   SFRSYM    DATA     BYTE      SMB1ADM
      000000BBH   SFRSYM    DATA     BYTE      AMX0P
      000000C8H.6 SFRSYM    DATA     BIT       TMR5CN0_TF5L
      000000C8H   SFRSYM    DATA     BYTE      TMR2CN0
      00000091H   SFRSYM    DATA     BYTE      TMR3CN0
      00000080H.1 SFRSYM    DATA     BIT       BtnExtGpio
      00000091H   SFRSYM    DATA     BYTE      TMR4CN0
      000000C8H   SFRSYM    DATA     BYTE      TMR5CN0
      000000CFH   SFRSYM    DATA     BYTE      SMB0ADR
      00000088H.4 SFRSYM    DATA     BIT       TCON_TR0
      000000CFH   SFRSYM    DATA     BYTE      SMB1ADR
      000000C8H.4 SFRSYM    DATA     BIT       TMR2CN0_TF2CEN
      00000088H.6 SFRSYM    DATA     BIT       TCON_TR1
      000000C2H   SFRSYM    DATA     BYTE      SMB0DAT
      00000080H.4 SFRSYM    DATA     BIT       RC_OUT
      000000CDH   SFRSYM    DATA     BYTE      TMR2H
      000000A1H   SFRSYM    DATA     BYTE      SPI0CFG
      000000C2H   SFRSYM    DATA     BYTE      SMB1DAT
      00000095H   SFRSYM    DATA     BYTE      TMR3H
      00000095H   SFRSYM    DATA     BYTE      TMR4H
      000000CDH   SFRSYM    DATA     BYTE      TMR5H
      000000CCH   SFRSYM    DATA     BYTE      TMR2L
      00000090H.5 SFRSYM    DATA     BIT       BtnDwGpio
      000000F8H.7 SFRSYM    DATA     BIT       SPI0CN0_SPIF
      00000096H   SFRSYM    DATA     BYTE      USB0ADR
      00000094H   SFRSYM    DATA     BYTE      TMR3L
      000000A8H.7 SFRSYM    DATA     BIT       IE_EA
      00000094H   SFRSYM    DATA     BYTE      TMR4L
      00000097H   SFRSYM    DATA     BYTE      USB0DAT
      000000CCH   SFRSYM    DATA     BYTE      TMR5L
      000000B6H   SFRSYM    DATA     BYTE      FLSCL
      000000C8H.5 SFRSYM    DATA     BIT       TMR2CN0_TF2LEN
      000000F8H.6 SFRSYM    DATA     BIT       SPI0CN0_WCOL
      000000F8H.2 SFRSYM    DATA     BIT       SPI0CN0_NSSMD0
      000000D0H.7 SFRSYM    DATA     BIT       PSW_CY
      000000A3H   SFRSYM    DATA     BYTE      SPI0DAT
      000000F8H.3 SFRSYM    DATA     BIT       SPI0CN0_NSSMD1
      000000BDH   SFRSYM    DATA     WORD      ADC0
      000000B9H   SFRSYM    DATA     BYTE      SMBTC
      000000D0H   SFRSYM    DATA     BYTE      PSW
      000000C8H.5 SFRSYM    DATA     BIT       TMR5CN0_TF5LEN
      000000B7H   SFRSYM    DATA     BYTE      FLKEY
      00000090H.4 SFRSYM    DATA     BIT       BtnUpGpio

      01005716H   BLOCK     CODE     ---       LVL=0
      02000A10H   SYMBOL    XDATA    BYTE      event
      01005716H   LINE      CODE     ---       #14
      0100571BH   LINE      CODE     ---       #15
      01005725H   LINE      CODE     ---       #16
      0100572AH   LINE      CODE     ---       #17
      01005732H   LINE      CODE     ---       #18
      01005741H   LINE      CODE     ---       #19
      01005747H   LINE      CODE     ---       #20
      01005747H   LINE      CODE     ---       #21
      01005756H   LINE      CODE     ---       #22
      0100575CH   LINE      CODE     ---       #23
      0100575FH   LINE      CODE     ---       #24
      0100575FH   LINE      CODE     ---       #26
      0100576AH   LINE      CODE     ---       #27
      01005790H   LINE      CODE     ---       #29
      01005798H   LINE      CODE     ---       #30
      010057BBH   LINE      CODE     ---       #31
      010057DEH   LINE      CODE     ---       #32
      010057E0H   LINE      CODE     ---       #33
      010057E6H   LINE      CODE     ---       #34
LX51 LINKER/LOCATER V4.66.66.0                                                        03/09/2017  11:29:19  PAGE 163


      010057F4H   LINE      CODE     ---       #35
      010057F4H   LINE      CODE     ---       #36
      010057F4H   LINE      CODE     ---       #37
      010057FCH   LINE      CODE     ---       #38
      01005805H   LINE      CODE     ---       #39
      0100580AH   LINE      CODE     ---       #40
      01005818H   LINE      CODE     ---       #41
      0100581AH   LINE      CODE     ---       #42
      0100581FH   LINE      CODE     ---       #43
      0100581FH   LINE      CODE     ---       #44
      0100581FH   LINE      CODE     ---       #46
      01005821H   LINE      CODE     ---       #47
      ---         BLOCKEND  ---      ---       LVL=0

      ---         MODULE    ---      ---       PAGESTABILIZERROLLGAIN
      020009A8H   PUBLIC    XDATA    ---       AutoFlyRollGainMs
      01008D10H   PUBLIC    CONST    ---       MenuItemAutoFlyRollGain
      01008D0AH   PUBLIC    CONST    ---       PageOptionGainDir
      01005822H   PUBLIC    CODE     ---       _PageAutoFlyRollGain
      000000A2H   SFRSYM    DATA     BYTE      SPI0CKR
      00000080H   SFRSYM    DATA     BYTE      P0
      000000D0H.2 SFRSYM    DATA     BIT       PSW_OV
      000000B1H   SFRSYM    DATA     BYTE      XOSC0CN
      00000090H   SFRSYM    DATA     BYTE      P1
      000000A0H   SFRSYM    DATA     BYTE      P2
      000000B0H   SFRSYM    DATA     BYTE      P3
      000000BCH   SFRSYM    DATA     BYTE      ADC0CF
      000000C8H   SFRSYM    DATA     BIT       TMR2CN0_T2XCLK
      000000C7H   SFRSYM    DATA     BYTE      P4
      000000C0H.7 SFRSYM    DATA     BIT       SMB0CN0_MASTER
      000000F9H   SFRSYM    DATA     WORD      PCA0
      000000E6H   SFRSYM    DATA     BYTE      EIE1
      000000C0H.7 SFRSYM    DATA     BIT       SMB1CN0_MASTER
      000000C0H.1 SFRSYM    DATA     BIT       SMB0CN0_ACK
      000000D7H   SFRSYM    DATA     BYTE      USB0XCN
      000000E7H   SFRSYM    DATA     BYTE      EIE2
      000000C0H.1 SFRSYM    DATA     BIT       SMB1CN0_ACK
      0000008FH   SFRSYM    DATA     BYTE      PSCTL
      000000E4H   SFRSYM    DATA     BYTE      IT01CF
      000000C8H   SFRSYM    DATA     BIT       TMR5CN0_T5XCLK
      000000C0H.6 SFRSYM    DATA     BIT       SMB0CN0_TXMODE
      000000C0H.6 SFRSYM    DATA     BIT       SMB1CN0_TXMODE
      000000BFH   SFRSYM    DATA     BYTE      SFRPAGE
      000000A4H   SFRSYM    DATA     BYTE      P0MDOUT
      00000080H.5 SFRSYM    DATA     BIT       LCD_SDA
      000000A5H   SFRSYM    DATA     BYTE      P1MDOUT
      000000E8H.5 SFRSYM    DATA     BIT       ADC0CN0_ADINT
      000000CBH   SFRSYM    DATA     BYTE      TMR2RLH
      000000A6H   SFRSYM    DATA     BYTE      P2MDOUT
      000000A8H   SFRSYM    DATA     BYTE      IE
      00000093H   SFRSYM    DATA     BYTE      TMR3RLH
      000000A7H   SFRSYM    DATA     BYTE      P3MDOUT
      00000093H   SFRSYM    DATA     BYTE      TMR4RLH
      000000AEH   SFRSYM    DATA     BYTE      P4MDOUT
      000000F6H   SFRSYM    DATA     BYTE      EIP1
      000000CBH   SFRSYM    DATA     BYTE      TMR5RLH
      000000F7H   SFRSYM    DATA     BYTE      EIP2
      00000098H.2 SFRSYM    DATA     BIT       SCON0_RB8
      000000CAH   SFRSYM    DATA     BYTE      TMR2RLL
      000000FCH   SFRSYM    DATA     BYTE      PCA0CPH0
      00000092H   SFRSYM    DATA     BYTE      TMR3RLL
      000000EAH   SFRSYM    DATA     BYTE      PCA0CPH1
      00000098H.3 SFRSYM    DATA     BIT       SCON0_TB8
      000000F0H   SFRSYM    DATA     BIT       B_B0
      00000082H   SFRSYM    DATA     WORD      DP
LX51 LINKER/LOCATER V4.66.66.0                                                        03/09/2017  11:29:19  PAGE 164


      00000092H   SFRSYM    DATA     BYTE      TMR4RLL
      000000ECH   SFRSYM    DATA     BYTE      PCA0CPH2
      000000F0H.1 SFRSYM    DATA     BIT       B_B1
      000000C3H   SFRSYM    DATA     WORD      ADC0GT
      000000CAH   SFRSYM    DATA     BYTE      TMR5RLL
      000000EEH   SFRSYM    DATA     BYTE      PCA0CPH3
      00000080H.3 SFRSYM    DATA     BIT       LCD_SCK
      000000F0H.2 SFRSYM    DATA     BIT       B_B2
      000000FBH   SFRSYM    DATA     BYTE      PCA0CPL0
      000000FEH   SFRSYM    DATA     BYTE      PCA0CPH4
      00000085H   SFRSYM    DATA     BYTE      EMI0CF
      000000F0H.3 SFRSYM    DATA     BIT       B_B3
      000000D9H   SFRSYM    DATA     BYTE      PCA0MD
      000000DAH   SFRSYM    DATA     BYTE      PCA0CPM0
      000000E9H   SFRSYM    DATA     BYTE      PCA0CPL1
      000000F0H.4 SFRSYM    DATA     BIT       B_B4
      000000DBH   SFRSYM    DATA     BYTE      PCA0CPM1
      000000EBH   SFRSYM    DATA     BYTE      PCA0CPL2
      000000F0H.5 SFRSYM    DATA     BIT       B_B5
      000000DCH   SFRSYM    DATA     BYTE      PCA0CPM2
      000000EDH   SFRSYM    DATA     BYTE      PCA0CPL3
      000000B8H   SFRSYM    DATA     BYTE      IP
      000000F0H.6 SFRSYM    DATA     BIT       B_B6
      000000C5H   SFRSYM    DATA     WORD      ADC0LT
      000000DDH   SFRSYM    DATA     BYTE      PCA0CPM3
      000000FDH   SFRSYM    DATA     BYTE      PCA0CPL4
      00000098H.5 SFRSYM    DATA     BIT       SCON0_MCE
      000000F0H.7 SFRSYM    DATA     BIT       B_B7
      000000DEH   SFRSYM    DATA     BYTE      PCA0CPM4
      000000E1H   SFRSYM    DATA     BYTE      XBR0
      000000C1H   SFRSYM    DATA     BYTE      SMB0CF
      000000E2H   SFRSYM    DATA     BYTE      XBR1
      000000C1H   SFRSYM    DATA     BYTE      SMB1CF
      000000AFH   SFRSYM    DATA     BYTE      PFE0CN
      000000AAH   SFRSYM    DATA     BYTE      EMI0CN
      000000C0H.5 SFRSYM    DATA     BIT       SMB0CN0_STA
      000000E3H   SFRSYM    DATA     BYTE      XBR2
      000000C0H.5 SFRSYM    DATA     BIT       SMB1CN0_STA
      000000E0H   SFRSYM    DATA     BIT       ACC_ACC0
      000000D1H   SFRSYM    DATA     BYTE      REF0CN
      000000B2H   SFRSYM    DATA     BYTE      HFO0CN
      0000008EH   SFRSYM    DATA     BYTE      CKCON0
      000000E0H.1 SFRSYM    DATA     BIT       ACC_ACC1
      000000E4H   SFRSYM    DATA     BYTE      CKCON1
      000000C8H.2 SFRSYM    DATA     BIT       TMR2CN0_TR2
      000000E0H.2 SFRSYM    DATA     BIT       ACC_ACC2
      000000E0H.3 SFRSYM    DATA     BIT       ACC_ACC3
      00000081H   SFRSYM    DATA     BYTE      SP
      0000009DH   SFRSYM    DATA     BYTE      CMP0MD
      000000E0H.4 SFRSYM    DATA     BIT       ACC_ACC4
      00000086H   SFRSYM    DATA     BYTE      LFO0CN
      00000084H   SFRSYM    DATA     BYTE      EMI0TC
      0000009CH   SFRSYM    DATA     BYTE      CMP1MD
      000000D8H   SFRSYM    DATA     BIT       PCA0CN0_CCF0
      000000E0H.5 SFRSYM    DATA     BIT       ACC_ACC5
      000000D8H.1 SFRSYM    DATA     BIT       PCA0CN0_CCF1
      000000E0H.6 SFRSYM    DATA     BIT       ACC_ACC6
      000000CCH   SFRSYM    DATA     WORD      TMR2
      000000D8H.2 SFRSYM    DATA     BIT       PCA0CN0_CCF2
      000000E0H.7 SFRSYM    DATA     BIT       ACC_ACC7
      00000094H   SFRSYM    DATA     WORD      TMR3
      000000C8H.2 SFRSYM    DATA     BIT       TMR5CN0_TR5
      000000D8H.3 SFRSYM    DATA     BIT       PCA0CN0_CCF3
      00000094H   SFRSYM    DATA     WORD      TMR4
      000000ACH   SFRSYM    DATA     BYTE      SBCON1
LX51 LINKER/LOCATER V4.66.66.0                                                        03/09/2017  11:29:19  PAGE 165


      000000D8H.4 SFRSYM    DATA     BIT       PCA0CN0_CCF4
      000000CCH   SFRSYM    DATA     WORD      TMR5
      000000C0H.3 SFRSYM    DATA     BIT       SMB0CN0_ACKRQ
      000000FFH   SFRSYM    DATA     BYTE      VDM0CN
      000000F1H   SFRSYM    DATA     BYTE      P0MDIN
      000000C0H.3 SFRSYM    DATA     BIT       SMB1CN0_ACKRQ
      00000098H.4 SFRSYM    DATA     BIT       SCON0_REN
      000000F2H   SFRSYM    DATA     BYTE      P1MDIN
      000000F3H   SFRSYM    DATA     BYTE      P2MDIN
      000000C0H.4 SFRSYM    DATA     BIT       SMB0CN0_STO
      000000F4H   SFRSYM    DATA     BYTE      P3MDIN
      00000090H.3 SFRSYM    DATA     BIT       LCD_RST
      000000C0H.4 SFRSYM    DATA     BIT       SMB1CN0_STO
      000000B5H   SFRSYM    DATA     BYTE      SBRLH1
      000000F5H   SFRSYM    DATA     BYTE      P4MDIN
      000000D0H.3 SFRSYM    DATA     BIT       PSW_RS0
      000000D8H.7 SFRSYM    DATA     BIT       PCA0CN0_CF
      000000F8H.4 SFRSYM    DATA     BIT       SPI0CN0_RXOVRN
      000000D0H.4 SFRSYM    DATA     BIT       PSW_RS1
      000000B4H   SFRSYM    DATA     BYTE      SBRLL1
      000000E8H.7 SFRSYM    DATA     BIT       ADC0CN0_ADEN
      00000089H   SFRSYM    DATA     BYTE      TMOD
      00000088H   SFRSYM    DATA     BYTE      TCON
      000000D0H   SFRSYM    DATA     BIT       PSW_PARITY
      000000A8H.4 SFRSYM    DATA     BIT       IE_ES0
      0000009FH   SFRSYM    DATA     BYTE      CMP0MX
      000000A8H.1 SFRSYM    DATA     BIT       IE_ET0
      0000009EH   SFRSYM    DATA     BYTE      CMP1MX
      000000A8H.3 SFRSYM    DATA     BIT       IE_ET1
      000000D4H   SFRSYM    DATA     BYTE      P0SKIP
      000000C8H.1 SFRSYM    DATA     BIT       TMR2CN0_T2CSS
      000000A8H.5 SFRSYM    DATA     BIT       IE_ET2
      000000D5H   SFRSYM    DATA     BYTE      P1SKIP
      000000D6H   SFRSYM    DATA     BYTE      P2SKIP
      000000E8H   SFRSYM    DATA     BYTE      ADC0CN0
      000000A8H   SFRSYM    DATA     BIT       IE_EX0
      000000DFH   SFRSYM    DATA     BYTE      P3SKIP
      000000D8H.6 SFRSYM    DATA     BIT       PCA0CN0_CR
      000000A8H.2 SFRSYM    DATA     BIT       IE_EX1
      00000098H.7 SFRSYM    DATA     BIT       SCON0_SMODE
      000000A9H   SFRSYM    DATA     BYTE      CLKSEL
      000000F8H   SFRSYM    DATA     BIT       SPI0CN0_SPIEN
      000000F0H   SFRSYM    DATA     BYTE      B
      000000BEH   SFRSYM    DATA     BYTE      ADC0H
      000000E8H.6 SFRSYM    DATA     BIT       ADC0CN0_ADTM
      000000CAH   SFRSYM    DATA     WORD      TMR2RL
      000000BDH   SFRSYM    DATA     BYTE      ADC0L
      00000092H   SFRSYM    DATA     WORD      TMR3RL
      00000092H   SFRSYM    DATA     WORD      TMR4RL
      000000D8H   SFRSYM    DATA     BYTE      PCA0CN0
      000000E0H   SFRSYM    DATA     BYTE      ACC
      000000CAH   SFRSYM    DATA     WORD      TMR5RL
      000000FBH   SFRSYM    DATA     WORD      PCA0CP0
      00000080H.6 SFRSYM    DATA     BIT       LCD_CS
      000000E9H   SFRSYM    DATA     WORD      PCA0CP1
      000000EBH   SFRSYM    DATA     WORD      PCA0CP2
      000000EDH   SFRSYM    DATA     WORD      PCA0CP3
      0000008CH   SFRSYM    DATA     BYTE      TH0
      000000B8H.4 SFRSYM    DATA     BIT       IP_PS0
      000000FDH   SFRSYM    DATA     WORD      PCA0CP4
      0000008DH   SFRSYM    DATA     BYTE      TH1
      000000FAH   SFRSYM    DATA     BYTE      PCA0H
      000000B8H.1 SFRSYM    DATA     BIT       IP_PT0
      000000B8H.3 SFRSYM    DATA     BIT       IP_PT1
      000000C0H.2 SFRSYM    DATA     BIT       SMB0CN0_ARBLOST
LX51 LINKER/LOCATER V4.66.66.0                                                        03/09/2017  11:29:19  PAGE 166


      000000B8H.5 SFRSYM    DATA     BIT       IP_PT2
      0000008AH   SFRSYM    DATA     BYTE      TL0
      000000F8H.1 SFRSYM    DATA     BIT       SPI0CN0_TXBMT
      000000C0H.2 SFRSYM    DATA     BIT       SMB1CN0_ARBLOST
      000000D0H.5 SFRSYM    DATA     BIT       PSW_F0
      000000A8H.6 SFRSYM    DATA     BIT       IE_ESPI0
      0000008BH   SFRSYM    DATA     BYTE      TL1
      000000F9H   SFRSYM    DATA     BYTE      PCA0L
      000000C0H   SFRSYM    DATA     BIT       SMB0CN0_SI
      000000D0H.1 SFRSYM    DATA     BIT       PSW_F1
      00000080H   SFRSYM    DATA     BIT       P0_B0
      000000B8H   SFRSYM    DATA     BIT       IP_PX0
      000000C9H   SFRSYM    DATA     BYTE      REG01CN
      000000C0H   SFRSYM    DATA     BIT       SMB1CN0_SI
      00000090H   SFRSYM    DATA     BIT       P1_B0
      00000080H.1 SFRSYM    DATA     BIT       P0_B1
      000000B8H.2 SFRSYM    DATA     BIT       IP_PX1
      0000009BH   SFRSYM    DATA     BYTE      CMP0CN0
      00000088H.1 SFRSYM    DATA     BIT       TCON_IE0
      000000A0H   SFRSYM    DATA     BIT       P2_B0
      00000090H.1 SFRSYM    DATA     BIT       P1_B1
      00000080H.2 SFRSYM    DATA     BIT       P0_B2
      0000009AH   SFRSYM    DATA     BYTE      CMP1CN0
      00000088H.3 SFRSYM    DATA     BIT       TCON_IE1
      000000B0H   SFRSYM    DATA     BIT       P3_B0
      000000A0H.1 SFRSYM    DATA     BIT       P2_B1
      00000090H.2 SFRSYM    DATA     BIT       P1_B2
      00000080H.3 SFRSYM    DATA     BIT       P0_B3
      000000C0H   SFRSYM    DATA     BYTE      SMB0CN0
      000000B0H.1 SFRSYM    DATA     BIT       P3_B1
      000000A0H.2 SFRSYM    DATA     BIT       P2_B2
      00000090H.3 SFRSYM    DATA     BIT       P1_B3
      00000080H.4 SFRSYM    DATA     BIT       P0_B4
      000000C0H   SFRSYM    DATA     BYTE      SMB1CN0
      000000B0H.2 SFRSYM    DATA     BIT       P3_B2
      000000A0H.3 SFRSYM    DATA     BIT       P2_B3
      00000090H.4 SFRSYM    DATA     BIT       P1_B4
      00000080H.5 SFRSYM    DATA     BIT       P0_B5
      000000B0H.3 SFRSYM    DATA     BIT       P3_B3
      000000A0H.4 SFRSYM    DATA     BIT       P2_B4
      00000090H.5 SFRSYM    DATA     BIT       P1_B5
      00000080H.6 SFRSYM    DATA     BIT       P0_B6
      00000080H.2 SFRSYM    DATA     BIT       LCD_RS
      000000B0H.4 SFRSYM    DATA     BIT       P3_B4
      000000A0H.5 SFRSYM    DATA     BIT       P2_B5
      00000090H.6 SFRSYM    DATA     BIT       P1_B6
      00000080H.7 SFRSYM    DATA     BIT       P0_B7
      000000B0H.5 SFRSYM    DATA     BIT       P3_B5
      000000A0H.6 SFRSYM    DATA     BIT       P2_B6
      00000090H.7 SFRSYM    DATA     BIT       P1_B7
      000000B0H.6 SFRSYM    DATA     BIT       P3_B6
      000000A0H.7 SFRSYM    DATA     BIT       P2_B7
      000000B0H.7 SFRSYM    DATA     BIT       P3_B7
      00000083H   SFRSYM    DATA     BYTE      DPH
      000000C4H   SFRSYM    DATA     BYTE      ADC0GTH
      000000C8H.7 SFRSYM    DATA     BIT       TMR2CN0_TF2H
      000000C8H.3 SFRSYM    DATA     BIT       TMR2CN0_T2SPLIT
      000000D0H.6 SFRSYM    DATA     BIT       PSW_AC
      000000F8H   SFRSYM    DATA     BYTE      SPI0CN0
      000000B3H   SFRSYM    DATA     BYTE      HFO0CAL
      00000080H   SFRSYM    DATA     BIT       BtnEntGpio
      00000088H.5 SFRSYM    DATA     BIT       TCON_TF0
      00000098H   SFRSYM    DATA     BIT       SCON0_RI
      00000082H   SFRSYM    DATA     BYTE      DPL
      00000088H.7 SFRSYM    DATA     BIT       TCON_TF1
LX51 LINKER/LOCATER V4.66.66.0                                                        03/09/2017  11:29:19  PAGE 167


      00000099H   SFRSYM    DATA     BYTE      SBUF0
      00000087H   SFRSYM    DATA     BYTE      PCON0
      000000C3H   SFRSYM    DATA     BYTE      ADC0GTL
      000000C8H.6 SFRSYM    DATA     BIT       TMR2CN0_TF2L
      00000098H.1 SFRSYM    DATA     BIT       SCON0_TI
      000000E8H   SFRSYM    DATA     BIT       ADC0CN0_ADCM0
      000000D3H   SFRSYM    DATA     BYTE      SBUF1
      000000C6H   SFRSYM    DATA     BYTE      ADC0LTH
      00000088H   SFRSYM    DATA     BIT       TCON_IT0
      000000E8H.1 SFRSYM    DATA     BIT       ADC0CN0_ADCM1
      000000EFH   SFRSYM    DATA     BYTE      RSTSRC
      000000C8H.7 SFRSYM    DATA     BIT       TMR5CN0_TF5H
      000000C8H.3 SFRSYM    DATA     BIT       TMR5CN0_T5SPLIT
      00000088H.2 SFRSYM    DATA     BIT       TCON_IT1
      000000E8H.2 SFRSYM    DATA     BIT       ADC0CN0_ADCM2
      00000098H   SFRSYM    DATA     BYTE      SCON0
      000000E8H.3 SFRSYM    DATA     BIT       ADC0CN0_ADWINT
      000000B4H   SFRSYM    DATA     WORD      SBRL1
      000000E5H   SFRSYM    DATA     BYTE      SMOD1
      000000D2H   SFRSYM    DATA     BYTE      SCON1
      000000BAH   SFRSYM    DATA     BYTE      AMX0N
      000000E8H.4 SFRSYM    DATA     BIT       ADC0CN0_ADBUSY
      000000CEH   SFRSYM    DATA     BYTE      SMB0ADM
      000000C5H   SFRSYM    DATA     BYTE      ADC0LTL
      000000F8H.5 SFRSYM    DATA     BIT       SPI0CN0_MODF
      000000B8H.6 SFRSYM    DATA     BIT       IP_PSPI0
      000000CEH   SFRSYM    DATA     BYTE      SMB1ADM
      000000BBH   SFRSYM    DATA     BYTE      AMX0P
      000000C8H.6 SFRSYM    DATA     BIT       TMR5CN0_TF5L
      000000C8H   SFRSYM    DATA     BYTE      TMR2CN0
      00000091H   SFRSYM    DATA     BYTE      TMR3CN0
      00000080H.1 SFRSYM    DATA     BIT       BtnExtGpio
      00000091H   SFRSYM    DATA     BYTE      TMR4CN0
      000000C8H   SFRSYM    DATA     BYTE      TMR5CN0
      000000CFH   SFRSYM    DATA     BYTE      SMB0ADR
      00000088H.4 SFRSYM    DATA     BIT       TCON_TR0
      000000CFH   SFRSYM    DATA     BYTE      SMB1ADR
      000000C8H.4 SFRSYM    DATA     BIT       TMR2CN0_TF2CEN
      00000088H.6 SFRSYM    DATA     BIT       TCON_TR1
      000000C2H   SFRSYM    DATA     BYTE      SMB0DAT
      00000080H.4 SFRSYM    DATA     BIT       RC_OUT
      000000CDH   SFRSYM    DATA     BYTE      TMR2H
      000000A1H   SFRSYM    DATA     BYTE      SPI0CFG
      000000C2H   SFRSYM    DATA     BYTE      SMB1DAT
      00000095H   SFRSYM    DATA     BYTE      TMR3H
      00000095H   SFRSYM    DATA     BYTE      TMR4H
      000000CDH   SFRSYM    DATA     BYTE      TMR5H
      000000CCH   SFRSYM    DATA     BYTE      TMR2L
      00000090H.5 SFRSYM    DATA     BIT       BtnDwGpio
      000000F8H.7 SFRSYM    DATA     BIT       SPI0CN0_SPIF
      00000096H   SFRSYM    DATA     BYTE      USB0ADR
      00000094H   SFRSYM    DATA     BYTE      TMR3L
      000000A8H.7 SFRSYM    DATA     BIT       IE_EA
      00000094H   SFRSYM    DATA     BYTE      TMR4L
      00000097H   SFRSYM    DATA     BYTE      USB0DAT
      000000CCH   SFRSYM    DATA     BYTE      TMR5L
      000000B6H   SFRSYM    DATA     BYTE      FLSCL
      000000C8H.5 SFRSYM    DATA     BIT       TMR2CN0_TF2LEN
      000000F8H.6 SFRSYM    DATA     BIT       SPI0CN0_WCOL
      000000F8H.2 SFRSYM    DATA     BIT       SPI0CN0_NSSMD0
      000000D0H.7 SFRSYM    DATA     BIT       PSW_CY
      000000A3H   SFRSYM    DATA     BYTE      SPI0DAT
      000000F8H.3 SFRSYM    DATA     BIT       SPI0CN0_NSSMD1
      000000BDH   SFRSYM    DATA     WORD      ADC0
      000000B9H   SFRSYM    DATA     BYTE      SMBTC
LX51 LINKER/LOCATER V4.66.66.0                                                        03/09/2017  11:29:19  PAGE 168


      000000D0H   SFRSYM    DATA     BYTE      PSW
      000000C8H.5 SFRSYM    DATA     BIT       TMR5CN0_TF5LEN
      000000B7H   SFRSYM    DATA     BYTE      FLKEY
      00000090H.4 SFRSYM    DATA     BIT       BtnUpGpio

      01005822H   BLOCK     CODE     ---       LVL=0
      02000A11H   SYMBOL    XDATA    BYTE      event
      01005822H   LINE      CODE     ---       #14
      01005827H   LINE      CODE     ---       #15
      01005831H   LINE      CODE     ---       #16
      01005836H   LINE      CODE     ---       #17
      0100583EH   LINE      CODE     ---       #18
      0100584DH   LINE      CODE     ---       #19
      01005853H   LINE      CODE     ---       #20
      01005853H   LINE      CODE     ---       #21
      01005862H   LINE      CODE     ---       #22
      01005868H   LINE      CODE     ---       #23
      0100586BH   LINE      CODE     ---       #24
      0100586BH   LINE      CODE     ---       #26
      01005876H   LINE      CODE     ---       #27
      0100589CH   LINE      CODE     ---       #29
      010058A4H   LINE      CODE     ---       #30
      010058C7H   LINE      CODE     ---       #31
      010058EAH   LINE      CODE     ---       #32
      010058ECH   LINE      CODE     ---       #33
      010058F2H   LINE      CODE     ---       #34
      01005900H   LINE      CODE     ---       #35
      01005900H   LINE      CODE     ---       #36
      01005900H   LINE      CODE     ---       #37
      01005908H   LINE      CODE     ---       #38
      01005911H   LINE      CODE     ---       #39
      01005916H   LINE      CODE     ---       #40
      01005924H   LINE      CODE     ---       #41
      01005926H   LINE      CODE     ---       #42
      0100592BH   LINE      CODE     ---       #43
      0100592BH   LINE      CODE     ---       #44
      0100592BH   LINE      CODE     ---       #46
      0100592DH   LINE      CODE     ---       #47
      ---         BLOCKEND  ---      ---       LVL=0

      ---         MODULE    ---      ---       PAGESTABILIZERYAWGAIN
      020009AEH   PUBLIC    XDATA    ---       AutoFlyYawGainMs
      01008DA0H   PUBLIC    CONST    ---       MenuItemAutoFlyYawGain
      01008D9AH   PUBLIC    CONST    ---       PageOptionAutoFlyYawGain
      0100592EH   PUBLIC    CODE     ---       _PageAutoFlyYawGain
      000000A2H   SFRSYM    DATA     BYTE      SPI0CKR
      00000080H   SFRSYM    DATA     BYTE      P0
      000000D0H.2 SFRSYM    DATA     BIT       PSW_OV
      000000B1H   SFRSYM    DATA     BYTE      XOSC0CN
      00000090H   SFRSYM    DATA     BYTE      P1
      000000A0H   SFRSYM    DATA     BYTE      P2
      000000B0H   SFRSYM    DATA     BYTE      P3
      000000BCH   SFRSYM    DATA     BYTE      ADC0CF
      000000C8H   SFRSYM    DATA     BIT       TMR2CN0_T2XCLK
      000000C7H   SFRSYM    DATA     BYTE      P4
      000000C0H.7 SFRSYM    DATA     BIT       SMB0CN0_MASTER
      000000F9H   SFRSYM    DATA     WORD      PCA0
      000000E6H   SFRSYM    DATA     BYTE      EIE1
      000000C0H.7 SFRSYM    DATA     BIT       SMB1CN0_MASTER
      000000C0H.1 SFRSYM    DATA     BIT       SMB0CN0_ACK
      000000D7H   SFRSYM    DATA     BYTE      USB0XCN
      000000E7H   SFRSYM    DATA     BYTE      EIE2
      000000C0H.1 SFRSYM    DATA     BIT       SMB1CN0_ACK
      0000008FH   SFRSYM    DATA     BYTE      PSCTL
      000000E4H   SFRSYM    DATA     BYTE      IT01CF
LX51 LINKER/LOCATER V4.66.66.0                                                        03/09/2017  11:29:19  PAGE 169


      000000C8H   SFRSYM    DATA     BIT       TMR5CN0_T5XCLK
      000000C0H.6 SFRSYM    DATA     BIT       SMB0CN0_TXMODE
      000000C0H.6 SFRSYM    DATA     BIT       SMB1CN0_TXMODE
      000000BFH   SFRSYM    DATA     BYTE      SFRPAGE
      000000A4H   SFRSYM    DATA     BYTE      P0MDOUT
      00000080H.5 SFRSYM    DATA     BIT       LCD_SDA
      000000A5H   SFRSYM    DATA     BYTE      P1MDOUT
      000000E8H.5 SFRSYM    DATA     BIT       ADC0CN0_ADINT
      000000CBH   SFRSYM    DATA     BYTE      TMR2RLH
      000000A6H   SFRSYM    DATA     BYTE      P2MDOUT
      000000A8H   SFRSYM    DATA     BYTE      IE
      00000093H   SFRSYM    DATA     BYTE      TMR3RLH
      000000A7H   SFRSYM    DATA     BYTE      P3MDOUT
      00000093H   SFRSYM    DATA     BYTE      TMR4RLH
      000000AEH   SFRSYM    DATA     BYTE      P4MDOUT
      000000F6H   SFRSYM    DATA     BYTE      EIP1
      000000CBH   SFRSYM    DATA     BYTE      TMR5RLH
      000000F7H   SFRSYM    DATA     BYTE      EIP2
      00000098H.2 SFRSYM    DATA     BIT       SCON0_RB8
      000000CAH   SFRSYM    DATA     BYTE      TMR2RLL
      000000FCH   SFRSYM    DATA     BYTE      PCA0CPH0
      00000092H   SFRSYM    DATA     BYTE      TMR3RLL
      000000EAH   SFRSYM    DATA     BYTE      PCA0CPH1
      00000098H.3 SFRSYM    DATA     BIT       SCON0_TB8
      000000F0H   SFRSYM    DATA     BIT       B_B0
      00000082H   SFRSYM    DATA     WORD      DP
      00000092H   SFRSYM    DATA     BYTE      TMR4RLL
      000000ECH   SFRSYM    DATA     BYTE      PCA0CPH2
      000000F0H.1 SFRSYM    DATA     BIT       B_B1
      000000C3H   SFRSYM    DATA     WORD      ADC0GT
      000000CAH   SFRSYM    DATA     BYTE      TMR5RLL
      000000EEH   SFRSYM    DATA     BYTE      PCA0CPH3
      00000080H.3 SFRSYM    DATA     BIT       LCD_SCK
      000000F0H.2 SFRSYM    DATA     BIT       B_B2
      000000FBH   SFRSYM    DATA     BYTE      PCA0CPL0
      000000FEH   SFRSYM    DATA     BYTE      PCA0CPH4
      00000085H   SFRSYM    DATA     BYTE      EMI0CF
      000000F0H.3 SFRSYM    DATA     BIT       B_B3
      000000D9H   SFRSYM    DATA     BYTE      PCA0MD
      000000DAH   SFRSYM    DATA     BYTE      PCA0CPM0
      000000E9H   SFRSYM    DATA     BYTE      PCA0CPL1
      000000F0H.4 SFRSYM    DATA     BIT       B_B4
      000000DBH   SFRSYM    DATA     BYTE      PCA0CPM1
      000000EBH   SFRSYM    DATA     BYTE      PCA0CPL2
      000000F0H.5 SFRSYM    DATA     BIT       B_B5
      000000DCH   SFRSYM    DATA     BYTE      PCA0CPM2
      000000EDH   SFRSYM    DATA     BYTE      PCA0CPL3
      000000B8H   SFRSYM    DATA     BYTE      IP
      000000F0H.6 SFRSYM    DATA     BIT       B_B6
      000000C5H   SFRSYM    DATA     WORD      ADC0LT
      000000DDH   SFRSYM    DATA     BYTE      PCA0CPM3
      000000FDH   SFRSYM    DATA     BYTE      PCA0CPL4
      00000098H.5 SFRSYM    DATA     BIT       SCON0_MCE
      000000F0H.7 SFRSYM    DATA     BIT       B_B7
      000000DEH   SFRSYM    DATA     BYTE      PCA0CPM4
      000000E1H   SFRSYM    DATA     BYTE      XBR0
      000000C1H   SFRSYM    DATA     BYTE      SMB0CF
      000000E2H   SFRSYM    DATA     BYTE      XBR1
      000000C1H   SFRSYM    DATA     BYTE      SMB1CF
      000000AFH   SFRSYM    DATA     BYTE      PFE0CN
      000000AAH   SFRSYM    DATA     BYTE      EMI0CN
      000000C0H.5 SFRSYM    DATA     BIT       SMB0CN0_STA
      000000E3H   SFRSYM    DATA     BYTE      XBR2
      000000C0H.5 SFRSYM    DATA     BIT       SMB1CN0_STA
      000000E0H   SFRSYM    DATA     BIT       ACC_ACC0
LX51 LINKER/LOCATER V4.66.66.0                                                        03/09/2017  11:29:19  PAGE 170


      000000D1H   SFRSYM    DATA     BYTE      REF0CN
      000000B2H   SFRSYM    DATA     BYTE      HFO0CN
      0000008EH   SFRSYM    DATA     BYTE      CKCON0
      000000E0H.1 SFRSYM    DATA     BIT       ACC_ACC1
      000000E4H   SFRSYM    DATA     BYTE      CKCON1
      000000C8H.2 SFRSYM    DATA     BIT       TMR2CN0_TR2
      000000E0H.2 SFRSYM    DATA     BIT       ACC_ACC2
      000000E0H.3 SFRSYM    DATA     BIT       ACC_ACC3
      00000081H   SFRSYM    DATA     BYTE      SP
      0000009DH   SFRSYM    DATA     BYTE      CMP0MD
      000000E0H.4 SFRSYM    DATA     BIT       ACC_ACC4
      00000086H   SFRSYM    DATA     BYTE      LFO0CN
      00000084H   SFRSYM    DATA     BYTE      EMI0TC
      0000009CH   SFRSYM    DATA     BYTE      CMP1MD
      000000D8H   SFRSYM    DATA     BIT       PCA0CN0_CCF0
      000000E0H.5 SFRSYM    DATA     BIT       ACC_ACC5
      000000D8H.1 SFRSYM    DATA     BIT       PCA0CN0_CCF1
      000000E0H.6 SFRSYM    DATA     BIT       ACC_ACC6
      000000CCH   SFRSYM    DATA     WORD      TMR2
      000000D8H.2 SFRSYM    DATA     BIT       PCA0CN0_CCF2
      000000E0H.7 SFRSYM    DATA     BIT       ACC_ACC7
      00000094H   SFRSYM    DATA     WORD      TMR3
      000000C8H.2 SFRSYM    DATA     BIT       TMR5CN0_TR5
      000000D8H.3 SFRSYM    DATA     BIT       PCA0CN0_CCF3
      00000094H   SFRSYM    DATA     WORD      TMR4
      000000ACH   SFRSYM    DATA     BYTE      SBCON1
      000000D8H.4 SFRSYM    DATA     BIT       PCA0CN0_CCF4
      000000CCH   SFRSYM    DATA     WORD      TMR5
      000000C0H.3 SFRSYM    DATA     BIT       SMB0CN0_ACKRQ
      000000FFH   SFRSYM    DATA     BYTE      VDM0CN
      000000F1H   SFRSYM    DATA     BYTE      P0MDIN
      000000C0H.3 SFRSYM    DATA     BIT       SMB1CN0_ACKRQ
      00000098H.4 SFRSYM    DATA     BIT       SCON0_REN
      000000F2H   SFRSYM    DATA     BYTE      P1MDIN
      000000F3H   SFRSYM    DATA     BYTE      P2MDIN
      000000C0H.4 SFRSYM    DATA     BIT       SMB0CN0_STO
      000000F4H   SFRSYM    DATA     BYTE      P3MDIN
      00000090H.3 SFRSYM    DATA     BIT       LCD_RST
      000000C0H.4 SFRSYM    DATA     BIT       SMB1CN0_STO
      000000B5H   SFRSYM    DATA     BYTE      SBRLH1
      000000F5H   SFRSYM    DATA     BYTE      P4MDIN
      000000D0H.3 SFRSYM    DATA     BIT       PSW_RS0
      000000D8H.7 SFRSYM    DATA     BIT       PCA0CN0_CF
      000000F8H.4 SFRSYM    DATA     BIT       SPI0CN0_RXOVRN
      000000D0H.4 SFRSYM    DATA     BIT       PSW_RS1
      000000B4H   SFRSYM    DATA     BYTE      SBRLL1
      000000E8H.7 SFRSYM    DATA     BIT       ADC0CN0_ADEN
      00000089H   SFRSYM    DATA     BYTE      TMOD
      00000088H   SFRSYM    DATA     BYTE      TCON
      000000D0H   SFRSYM    DATA     BIT       PSW_PARITY
      000000A8H.4 SFRSYM    DATA     BIT       IE_ES0
      0000009FH   SFRSYM    DATA     BYTE      CMP0MX
      000000A8H.1 SFRSYM    DATA     BIT       IE_ET0
      0000009EH   SFRSYM    DATA     BYTE      CMP1MX
      000000A8H.3 SFRSYM    DATA     BIT       IE_ET1
      000000D4H   SFRSYM    DATA     BYTE      P0SKIP
      000000C8H.1 SFRSYM    DATA     BIT       TMR2CN0_T2CSS
      000000A8H.5 SFRSYM    DATA     BIT       IE_ET2
      000000D5H   SFRSYM    DATA     BYTE      P1SKIP
      000000D6H   SFRSYM    DATA     BYTE      P2SKIP
      000000E8H   SFRSYM    DATA     BYTE      ADC0CN0
      000000A8H   SFRSYM    DATA     BIT       IE_EX0
      000000DFH   SFRSYM    DATA     BYTE      P3SKIP
      000000D8H.6 SFRSYM    DATA     BIT       PCA0CN0_CR
      000000A8H.2 SFRSYM    DATA     BIT       IE_EX1
LX51 LINKER/LOCATER V4.66.66.0                                                        03/09/2017  11:29:19  PAGE 171


      00000098H.7 SFRSYM    DATA     BIT       SCON0_SMODE
      000000A9H   SFRSYM    DATA     BYTE      CLKSEL
      000000F8H   SFRSYM    DATA     BIT       SPI0CN0_SPIEN
      000000F0H   SFRSYM    DATA     BYTE      B
      000000BEH   SFRSYM    DATA     BYTE      ADC0H
      000000E8H.6 SFRSYM    DATA     BIT       ADC0CN0_ADTM
      000000CAH   SFRSYM    DATA     WORD      TMR2RL
      000000BDH   SFRSYM    DATA     BYTE      ADC0L
      00000092H   SFRSYM    DATA     WORD      TMR3RL
      00000092H   SFRSYM    DATA     WORD      TMR4RL
      000000D8H   SFRSYM    DATA     BYTE      PCA0CN0
      000000E0H   SFRSYM    DATA     BYTE      ACC
      000000CAH   SFRSYM    DATA     WORD      TMR5RL
      000000FBH   SFRSYM    DATA     WORD      PCA0CP0
      00000080H.6 SFRSYM    DATA     BIT       LCD_CS
      000000E9H   SFRSYM    DATA     WORD      PCA0CP1
      000000EBH   SFRSYM    DATA     WORD      PCA0CP2
      000000EDH   SFRSYM    DATA     WORD      PCA0CP3
      0000008CH   SFRSYM    DATA     BYTE      TH0
      000000B8H.4 SFRSYM    DATA     BIT       IP_PS0
      000000FDH   SFRSYM    DATA     WORD      PCA0CP4
      0000008DH   SFRSYM    DATA     BYTE      TH1
      000000FAH   SFRSYM    DATA     BYTE      PCA0H
      000000B8H.1 SFRSYM    DATA     BIT       IP_PT0
      000000B8H.3 SFRSYM    DATA     BIT       IP_PT1
      000000C0H.2 SFRSYM    DATA     BIT       SMB0CN0_ARBLOST
      000000B8H.5 SFRSYM    DATA     BIT       IP_PT2
      0000008AH   SFRSYM    DATA     BYTE      TL0
      000000F8H.1 SFRSYM    DATA     BIT       SPI0CN0_TXBMT
      000000C0H.2 SFRSYM    DATA     BIT       SMB1CN0_ARBLOST
      000000D0H.5 SFRSYM    DATA     BIT       PSW_F0
      000000A8H.6 SFRSYM    DATA     BIT       IE_ESPI0
      0000008BH   SFRSYM    DATA     BYTE      TL1
      000000F9H   SFRSYM    DATA     BYTE      PCA0L
      000000C0H   SFRSYM    DATA     BIT       SMB0CN0_SI
      000000D0H.1 SFRSYM    DATA     BIT       PSW_F1
      00000080H   SFRSYM    DATA     BIT       P0_B0
      000000B8H   SFRSYM    DATA     BIT       IP_PX0
      000000C9H   SFRSYM    DATA     BYTE      REG01CN
      000000C0H   SFRSYM    DATA     BIT       SMB1CN0_SI
      00000090H   SFRSYM    DATA     BIT       P1_B0
      00000080H.1 SFRSYM    DATA     BIT       P0_B1
      000000B8H.2 SFRSYM    DATA     BIT       IP_PX1
      0000009BH   SFRSYM    DATA     BYTE      CMP0CN0
      00000088H.1 SFRSYM    DATA     BIT       TCON_IE0
      000000A0H   SFRSYM    DATA     BIT       P2_B0
      00000090H.1 SFRSYM    DATA     BIT       P1_B1
      00000080H.2 SFRSYM    DATA     BIT       P0_B2
      0000009AH   SFRSYM    DATA     BYTE      CMP1CN0
      00000088H.3 SFRSYM    DATA     BIT       TCON_IE1
      000000B0H   SFRSYM    DATA     BIT       P3_B0
      000000A0H.1 SFRSYM    DATA     BIT       P2_B1
      00000090H.2 SFRSYM    DATA     BIT       P1_B2
      00000080H.3 SFRSYM    DATA     BIT       P0_B3
      000000C0H   SFRSYM    DATA     BYTE      SMB0CN0
      000000B0H.1 SFRSYM    DATA     BIT       P3_B1
      000000A0H.2 SFRSYM    DATA     BIT       P2_B2
      00000090H.3 SFRSYM    DATA     BIT       P1_B3
      00000080H.4 SFRSYM    DATA     BIT       P0_B4
      000000C0H   SFRSYM    DATA     BYTE      SMB1CN0
      000000B0H.2 SFRSYM    DATA     BIT       P3_B2
      000000A0H.3 SFRSYM    DATA     BIT       P2_B3
      00000090H.4 SFRSYM    DATA     BIT       P1_B4
      00000080H.5 SFRSYM    DATA     BIT       P0_B5
      000000B0H.3 SFRSYM    DATA     BIT       P3_B3
LX51 LINKER/LOCATER V4.66.66.0                                                        03/09/2017  11:29:19  PAGE 172


      000000A0H.4 SFRSYM    DATA     BIT       P2_B4
      00000090H.5 SFRSYM    DATA     BIT       P1_B5
      00000080H.6 SFRSYM    DATA     BIT       P0_B6
      00000080H.2 SFRSYM    DATA     BIT       LCD_RS
      000000B0H.4 SFRSYM    DATA     BIT       P3_B4
      000000A0H.5 SFRSYM    DATA     BIT       P2_B5
      00000090H.6 SFRSYM    DATA     BIT       P1_B6
      00000080H.7 SFRSYM    DATA     BIT       P0_B7
      000000B0H.5 SFRSYM    DATA     BIT       P3_B5
      000000A0H.6 SFRSYM    DATA     BIT       P2_B6
      00000090H.7 SFRSYM    DATA     BIT       P1_B7
      000000B0H.6 SFRSYM    DATA     BIT       P3_B6
      000000A0H.7 SFRSYM    DATA     BIT       P2_B7
      000000B0H.7 SFRSYM    DATA     BIT       P3_B7
      00000083H   SFRSYM    DATA     BYTE      DPH
      000000C4H   SFRSYM    DATA     BYTE      ADC0GTH
      000000C8H.7 SFRSYM    DATA     BIT       TMR2CN0_TF2H
      000000C8H.3 SFRSYM    DATA     BIT       TMR2CN0_T2SPLIT
      000000D0H.6 SFRSYM    DATA     BIT       PSW_AC
      000000F8H   SFRSYM    DATA     BYTE      SPI0CN0
      000000B3H   SFRSYM    DATA     BYTE      HFO0CAL
      00000080H   SFRSYM    DATA     BIT       BtnEntGpio
      00000088H.5 SFRSYM    DATA     BIT       TCON_TF0
      00000098H   SFRSYM    DATA     BIT       SCON0_RI
      00000082H   SFRSYM    DATA     BYTE      DPL
      00000088H.7 SFRSYM    DATA     BIT       TCON_TF1
      00000099H   SFRSYM    DATA     BYTE      SBUF0
      00000087H   SFRSYM    DATA     BYTE      PCON0
      000000C3H   SFRSYM    DATA     BYTE      ADC0GTL
      000000C8H.6 SFRSYM    DATA     BIT       TMR2CN0_TF2L
      00000098H.1 SFRSYM    DATA     BIT       SCON0_TI
      000000E8H   SFRSYM    DATA     BIT       ADC0CN0_ADCM0
      000000D3H   SFRSYM    DATA     BYTE      SBUF1
      000000C6H   SFRSYM    DATA     BYTE      ADC0LTH
      00000088H   SFRSYM    DATA     BIT       TCON_IT0
      000000E8H.1 SFRSYM    DATA     BIT       ADC0CN0_ADCM1
      000000EFH   SFRSYM    DATA     BYTE      RSTSRC
      000000C8H.7 SFRSYM    DATA     BIT       TMR5CN0_TF5H
      000000C8H.3 SFRSYM    DATA     BIT       TMR5CN0_T5SPLIT
      00000088H.2 SFRSYM    DATA     BIT       TCON_IT1
      000000E8H.2 SFRSYM    DATA     BIT       ADC0CN0_ADCM2
      00000098H   SFRSYM    DATA     BYTE      SCON0
      000000E8H.3 SFRSYM    DATA     BIT       ADC0CN0_ADWINT
      000000B4H   SFRSYM    DATA     WORD      SBRL1
      000000E5H   SFRSYM    DATA     BYTE      SMOD1
      000000D2H   SFRSYM    DATA     BYTE      SCON1
      000000BAH   SFRSYM    DATA     BYTE      AMX0N
      000000E8H.4 SFRSYM    DATA     BIT       ADC0CN0_ADBUSY
      000000CEH   SFRSYM    DATA     BYTE      SMB0ADM
      000000C5H   SFRSYM    DATA     BYTE      ADC0LTL
      000000F8H.5 SFRSYM    DATA     BIT       SPI0CN0_MODF
      000000B8H.6 SFRSYM    DATA     BIT       IP_PSPI0
      000000CEH   SFRSYM    DATA     BYTE      SMB1ADM
      000000BBH   SFRSYM    DATA     BYTE      AMX0P
      000000C8H.6 SFRSYM    DATA     BIT       TMR5CN0_TF5L
      000000C8H   SFRSYM    DATA     BYTE      TMR2CN0
      00000091H   SFRSYM    DATA     BYTE      TMR3CN0
      00000080H.1 SFRSYM    DATA     BIT       BtnExtGpio
      00000091H   SFRSYM    DATA     BYTE      TMR4CN0
      000000C8H   SFRSYM    DATA     BYTE      TMR5CN0
      000000CFH   SFRSYM    DATA     BYTE      SMB0ADR
      00000088H.4 SFRSYM    DATA     BIT       TCON_TR0
      000000CFH   SFRSYM    DATA     BYTE      SMB1ADR
      000000C8H.4 SFRSYM    DATA     BIT       TMR2CN0_TF2CEN
      00000088H.6 SFRSYM    DATA     BIT       TCON_TR1
LX51 LINKER/LOCATER V4.66.66.0                                                        03/09/2017  11:29:19  PAGE 173


      000000C2H   SFRSYM    DATA     BYTE      SMB0DAT
      00000080H.4 SFRSYM    DATA     BIT       RC_OUT
      000000CDH   SFRSYM    DATA     BYTE      TMR2H
      000000A1H   SFRSYM    DATA     BYTE      SPI0CFG
      000000C2H   SFRSYM    DATA     BYTE      SMB1DAT
      00000095H   SFRSYM    DATA     BYTE      TMR3H
      00000095H   SFRSYM    DATA     BYTE      TMR4H
      000000CDH   SFRSYM    DATA     BYTE      TMR5H
      000000CCH   SFRSYM    DATA     BYTE      TMR2L
      00000090H.5 SFRSYM    DATA     BIT       BtnDwGpio
      000000F8H.7 SFRSYM    DATA     BIT       SPI0CN0_SPIF
      00000096H   SFRSYM    DATA     BYTE      USB0ADR
      00000094H   SFRSYM    DATA     BYTE      TMR3L
      000000A8H.7 SFRSYM    DATA     BIT       IE_EA
      00000094H   SFRSYM    DATA     BYTE      TMR4L
      00000097H   SFRSYM    DATA     BYTE      USB0DAT
      000000CCH   SFRSYM    DATA     BYTE      TMR5L
      000000B6H   SFRSYM    DATA     BYTE      FLSCL
      000000C8H.5 SFRSYM    DATA     BIT       TMR2CN0_TF2LEN
      000000F8H.6 SFRSYM    DATA     BIT       SPI0CN0_WCOL
      000000F8H.2 SFRSYM    DATA     BIT       SPI0CN0_NSSMD0
      000000D0H.7 SFRSYM    DATA     BIT       PSW_CY
      000000A3H   SFRSYM    DATA     BYTE      SPI0DAT
      000000F8H.3 SFRSYM    DATA     BIT       SPI0CN0_NSSMD1
      000000BDH   SFRSYM    DATA     WORD      ADC0
      000000B9H   SFRSYM    DATA     BYTE      SMBTC
      000000D0H   SFRSYM    DATA     BYTE      PSW
      000000C8H.5 SFRSYM    DATA     BIT       TMR5CN0_TF5LEN
      000000B7H   SFRSYM    DATA     BYTE      FLKEY
      00000090H.4 SFRSYM    DATA     BIT       BtnUpGpio

      0100592EH   BLOCK     CODE     ---       LVL=0
      02000A12H   SYMBOL    XDATA    BYTE      event
      0100592EH   LINE      CODE     ---       #14
      01005933H   LINE      CODE     ---       #15
      0100593DH   LINE      CODE     ---       #16
      01005942H   LINE      CODE     ---       #17
      0100594AH   LINE      CODE     ---       #18
      01005959H   LINE      CODE     ---       #19
      0100595FH   LINE      CODE     ---       #20
      0100595FH   LINE      CODE     ---       #21
      0100596EH   LINE      CODE     ---       #22
      01005974H   LINE      CODE     ---       #23
      01005977H   LINE      CODE     ---       #24
      01005977H   LINE      CODE     ---       #26
      01005982H   LINE      CODE     ---       #27
      010059A8H   LINE      CODE     ---       #29
      010059B0H   LINE      CODE     ---       #30
      010059D3H   LINE      CODE     ---       #31
      010059F6H   LINE      CODE     ---       #32
      010059F8H   LINE      CODE     ---       #33
      010059FEH   LINE      CODE     ---       #34
      01005A0CH   LINE      CODE     ---       #35
      01005A0CH   LINE      CODE     ---       #36
      01005A0CH   LINE      CODE     ---       #37
      01005A14H   LINE      CODE     ---       #38
      01005A1DH   LINE      CODE     ---       #39
      01005A22H   LINE      CODE     ---       #40
      01005A30H   LINE      CODE     ---       #41
      01005A32H   LINE      CODE     ---       #42
      01005A37H   LINE      CODE     ---       #43
      01005A37H   LINE      CODE     ---       #44
      01005A37H   LINE      CODE     ---       #46
      01005A39H   LINE      CODE     ---       #47
      ---         BLOCKEND  ---      ---       LVL=0
LX51 LINKER/LOCATER V4.66.66.0                                                        03/09/2017  11:29:19  PAGE 174



      ---         MODULE    ---      ---       PAGESTEERING
      020009B4H   PUBLIC    XDATA    ---       SterringMs
      01008B46H   PUBLIC    CONST    ---       MenuItemSterring
      01008B37H   PUBLIC    CONST    ---       PageOptionSterringMode
      01005E4BH   PUBLIC    CODE     ---       _PageSterring
      000000A2H   SFRSYM    DATA     BYTE      SPI0CKR
      00000080H   SFRSYM    DATA     BYTE      P0
      000000D0H.2 SFRSYM    DATA     BIT       PSW_OV
      000000B1H   SFRSYM    DATA     BYTE      XOSC0CN
      00000090H   SFRSYM    DATA     BYTE      P1
      000000A0H   SFRSYM    DATA     BYTE      P2
      000000B0H   SFRSYM    DATA     BYTE      P3
      000000BCH   SFRSYM    DATA     BYTE      ADC0CF
      000000C8H   SFRSYM    DATA     BIT       TMR2CN0_T2XCLK
      000000C7H   SFRSYM    DATA     BYTE      P4
      000000C0H.7 SFRSYM    DATA     BIT       SMB0CN0_MASTER
      000000F9H   SFRSYM    DATA     WORD      PCA0
      000000E6H   SFRSYM    DATA     BYTE      EIE1
      000000C0H.7 SFRSYM    DATA     BIT       SMB1CN0_MASTER
      000000C0H.1 SFRSYM    DATA     BIT       SMB0CN0_ACK
      000000D7H   SFRSYM    DATA     BYTE      USB0XCN
      000000E7H   SFRSYM    DATA     BYTE      EIE2
      000000C0H.1 SFRSYM    DATA     BIT       SMB1CN0_ACK
      0000008FH   SFRSYM    DATA     BYTE      PSCTL
      000000E4H   SFRSYM    DATA     BYTE      IT01CF
      000000C8H   SFRSYM    DATA     BIT       TMR5CN0_T5XCLK
      000000C0H.6 SFRSYM    DATA     BIT       SMB0CN0_TXMODE
      000000C0H.6 SFRSYM    DATA     BIT       SMB1CN0_TXMODE
      000000BFH   SFRSYM    DATA     BYTE      SFRPAGE
      000000A4H   SFRSYM    DATA     BYTE      P0MDOUT
      00000080H.5 SFRSYM    DATA     BIT       LCD_SDA
      000000A5H   SFRSYM    DATA     BYTE      P1MDOUT
      000000E8H.5 SFRSYM    DATA     BIT       ADC0CN0_ADINT
      000000CBH   SFRSYM    DATA     BYTE      TMR2RLH
      000000A6H   SFRSYM    DATA     BYTE      P2MDOUT
      000000A8H   SFRSYM    DATA     BYTE      IE
      00000093H   SFRSYM    DATA     BYTE      TMR3RLH
      000000A7H   SFRSYM    DATA     BYTE      P3MDOUT
      00000093H   SFRSYM    DATA     BYTE      TMR4RLH
      000000AEH   SFRSYM    DATA     BYTE      P4MDOUT
      000000F6H   SFRSYM    DATA     BYTE      EIP1
      000000CBH   SFRSYM    DATA     BYTE      TMR5RLH
      000000F7H   SFRSYM    DATA     BYTE      EIP2
      00000098H.2 SFRSYM    DATA     BIT       SCON0_RB8
      000000CAH   SFRSYM    DATA     BYTE      TMR2RLL
      000000FCH   SFRSYM    DATA     BYTE      PCA0CPH0
      00000092H   SFRSYM    DATA     BYTE      TMR3RLL
      000000EAH   SFRSYM    DATA     BYTE      PCA0CPH1
      00000098H.3 SFRSYM    DATA     BIT       SCON0_TB8
      000000F0H   SFRSYM    DATA     BIT       B_B0
      00000082H   SFRSYM    DATA     WORD      DP
      00000092H   SFRSYM    DATA     BYTE      TMR4RLL
      000000ECH   SFRSYM    DATA     BYTE      PCA0CPH2
      000000F0H.1 SFRSYM    DATA     BIT       B_B1
      000000C3H   SFRSYM    DATA     WORD      ADC0GT
      000000CAH   SFRSYM    DATA     BYTE      TMR5RLL
      000000EEH   SFRSYM    DATA     BYTE      PCA0CPH3
      00000080H.3 SFRSYM    DATA     BIT       LCD_SCK
      000000F0H.2 SFRSYM    DATA     BIT       B_B2
      000000FBH   SFRSYM    DATA     BYTE      PCA0CPL0
      000000FEH   SFRSYM    DATA     BYTE      PCA0CPH4
      00000085H   SFRSYM    DATA     BYTE      EMI0CF
      000000F0H.3 SFRSYM    DATA     BIT       B_B3
      000000D9H   SFRSYM    DATA     BYTE      PCA0MD
LX51 LINKER/LOCATER V4.66.66.0                                                        03/09/2017  11:29:19  PAGE 175


      000000DAH   SFRSYM    DATA     BYTE      PCA0CPM0
      000000E9H   SFRSYM    DATA     BYTE      PCA0CPL1
      000000F0H.4 SFRSYM    DATA     BIT       B_B4
      000000DBH   SFRSYM    DATA     BYTE      PCA0CPM1
      000000EBH   SFRSYM    DATA     BYTE      PCA0CPL2
      000000F0H.5 SFRSYM    DATA     BIT       B_B5
      000000DCH   SFRSYM    DATA     BYTE      PCA0CPM2
      000000EDH   SFRSYM    DATA     BYTE      PCA0CPL3
      000000B8H   SFRSYM    DATA     BYTE      IP
      000000F0H.6 SFRSYM    DATA     BIT       B_B6
      000000C5H   SFRSYM    DATA     WORD      ADC0LT
      000000DDH   SFRSYM    DATA     BYTE      PCA0CPM3
      000000FDH   SFRSYM    DATA     BYTE      PCA0CPL4
      00000098H.5 SFRSYM    DATA     BIT       SCON0_MCE
      000000F0H.7 SFRSYM    DATA     BIT       B_B7
      000000DEH   SFRSYM    DATA     BYTE      PCA0CPM4
      000000E1H   SFRSYM    DATA     BYTE      XBR0
      000000C1H   SFRSYM    DATA     BYTE      SMB0CF
      000000E2H   SFRSYM    DATA     BYTE      XBR1
      000000C1H   SFRSYM    DATA     BYTE      SMB1CF
      000000AFH   SFRSYM    DATA     BYTE      PFE0CN
      000000AAH   SFRSYM    DATA     BYTE      EMI0CN
      000000C0H.5 SFRSYM    DATA     BIT       SMB0CN0_STA
      000000E3H   SFRSYM    DATA     BYTE      XBR2
      000000C0H.5 SFRSYM    DATA     BIT       SMB1CN0_STA
      000000E0H   SFRSYM    DATA     BIT       ACC_ACC0
      000000D1H   SFRSYM    DATA     BYTE      REF0CN
      000000B2H   SFRSYM    DATA     BYTE      HFO0CN
      0000008EH   SFRSYM    DATA     BYTE      CKCON0
      000000E0H.1 SFRSYM    DATA     BIT       ACC_ACC1
      000000E4H   SFRSYM    DATA     BYTE      CKCON1
      000000C8H.2 SFRSYM    DATA     BIT       TMR2CN0_TR2
      000000E0H.2 SFRSYM    DATA     BIT       ACC_ACC2
      000000E0H.3 SFRSYM    DATA     BIT       ACC_ACC3
      00000081H   SFRSYM    DATA     BYTE      SP
      0000009DH   SFRSYM    DATA     BYTE      CMP0MD
      000000E0H.4 SFRSYM    DATA     BIT       ACC_ACC4
      00000086H   SFRSYM    DATA     BYTE      LFO0CN
      00000084H   SFRSYM    DATA     BYTE      EMI0TC
      0000009CH   SFRSYM    DATA     BYTE      CMP1MD
      000000D8H   SFRSYM    DATA     BIT       PCA0CN0_CCF0
      000000E0H.5 SFRSYM    DATA     BIT       ACC_ACC5
      000000D8H.1 SFRSYM    DATA     BIT       PCA0CN0_CCF1
      000000E0H.6 SFRSYM    DATA     BIT       ACC_ACC6
      000000CCH   SFRSYM    DATA     WORD      TMR2
      000000D8H.2 SFRSYM    DATA     BIT       PCA0CN0_CCF2
      000000E0H.7 SFRSYM    DATA     BIT       ACC_ACC7
      00000094H   SFRSYM    DATA     WORD      TMR3
      000000C8H.2 SFRSYM    DATA     BIT       TMR5CN0_TR5
      000000D8H.3 SFRSYM    DATA     BIT       PCA0CN0_CCF3
      00000094H   SFRSYM    DATA     WORD      TMR4
      000000ACH   SFRSYM    DATA     BYTE      SBCON1
      000000D8H.4 SFRSYM    DATA     BIT       PCA0CN0_CCF4
      000000CCH   SFRSYM    DATA     WORD      TMR5
      000000C0H.3 SFRSYM    DATA     BIT       SMB0CN0_ACKRQ
      000000FFH   SFRSYM    DATA     BYTE      VDM0CN
      000000F1H   SFRSYM    DATA     BYTE      P0MDIN
      000000C0H.3 SFRSYM    DATA     BIT       SMB1CN0_ACKRQ
      00000098H.4 SFRSYM    DATA     BIT       SCON0_REN
      000000F2H   SFRSYM    DATA     BYTE      P1MDIN
      000000F3H   SFRSYM    DATA     BYTE      P2MDIN
      000000C0H.4 SFRSYM    DATA     BIT       SMB0CN0_STO
      000000F4H   SFRSYM    DATA     BYTE      P3MDIN
      00000090H.3 SFRSYM    DATA     BIT       LCD_RST
      000000C0H.4 SFRSYM    DATA     BIT       SMB1CN0_STO
LX51 LINKER/LOCATER V4.66.66.0                                                        03/09/2017  11:29:19  PAGE 176


      000000B5H   SFRSYM    DATA     BYTE      SBRLH1
      000000F5H   SFRSYM    DATA     BYTE      P4MDIN
      000000D0H.3 SFRSYM    DATA     BIT       PSW_RS0
      000000D8H.7 SFRSYM    DATA     BIT       PCA0CN0_CF
      000000F8H.4 SFRSYM    DATA     BIT       SPI0CN0_RXOVRN
      000000D0H.4 SFRSYM    DATA     BIT       PSW_RS1
      000000B4H   SFRSYM    DATA     BYTE      SBRLL1
      000000E8H.7 SFRSYM    DATA     BIT       ADC0CN0_ADEN
      00000089H   SFRSYM    DATA     BYTE      TMOD
      00000088H   SFRSYM    DATA     BYTE      TCON
      000000D0H   SFRSYM    DATA     BIT       PSW_PARITY
      000000A8H.4 SFRSYM    DATA     BIT       IE_ES0
      0000009FH   SFRSYM    DATA     BYTE      CMP0MX
      000000A8H.1 SFRSYM    DATA     BIT       IE_ET0
      0000009EH   SFRSYM    DATA     BYTE      CMP1MX
      000000A8H.3 SFRSYM    DATA     BIT       IE_ET1
      000000D4H   SFRSYM    DATA     BYTE      P0SKIP
      000000C8H.1 SFRSYM    DATA     BIT       TMR2CN0_T2CSS
      000000A8H.5 SFRSYM    DATA     BIT       IE_ET2
      000000D5H   SFRSYM    DATA     BYTE      P1SKIP
      000000D6H   SFRSYM    DATA     BYTE      P2SKIP
      000000E8H   SFRSYM    DATA     BYTE      ADC0CN0
      000000A8H   SFRSYM    DATA     BIT       IE_EX0
      000000DFH   SFRSYM    DATA     BYTE      P3SKIP
      000000D8H.6 SFRSYM    DATA     BIT       PCA0CN0_CR
      000000A8H.2 SFRSYM    DATA     BIT       IE_EX1
      00000098H.7 SFRSYM    DATA     BIT       SCON0_SMODE
      000000A9H   SFRSYM    DATA     BYTE      CLKSEL
      000000F8H   SFRSYM    DATA     BIT       SPI0CN0_SPIEN
      000000F0H   SFRSYM    DATA     BYTE      B
      000000BEH   SFRSYM    DATA     BYTE      ADC0H
      000000E8H.6 SFRSYM    DATA     BIT       ADC0CN0_ADTM
      000000CAH   SFRSYM    DATA     WORD      TMR2RL
      000000BDH   SFRSYM    DATA     BYTE      ADC0L
      00000092H   SFRSYM    DATA     WORD      TMR3RL
      00000092H   SFRSYM    DATA     WORD      TMR4RL
      000000D8H   SFRSYM    DATA     BYTE      PCA0CN0
      000000E0H   SFRSYM    DATA     BYTE      ACC
      000000CAH   SFRSYM    DATA     WORD      TMR5RL
      000000FBH   SFRSYM    DATA     WORD      PCA0CP0
      00000080H.6 SFRSYM    DATA     BIT       LCD_CS
      000000E9H   SFRSYM    DATA     WORD      PCA0CP1
      000000EBH   SFRSYM    DATA     WORD      PCA0CP2
      000000EDH   SFRSYM    DATA     WORD      PCA0CP3
      0000008CH   SFRSYM    DATA     BYTE      TH0
      000000B8H.4 SFRSYM    DATA     BIT       IP_PS0
      000000FDH   SFRSYM    DATA     WORD      PCA0CP4
      0000008DH   SFRSYM    DATA     BYTE      TH1
      000000FAH   SFRSYM    DATA     BYTE      PCA0H
      000000B8H.1 SFRSYM    DATA     BIT       IP_PT0
      000000B8H.3 SFRSYM    DATA     BIT       IP_PT1
      000000C0H.2 SFRSYM    DATA     BIT       SMB0CN0_ARBLOST
      000000B8H.5 SFRSYM    DATA     BIT       IP_PT2
      0000008AH   SFRSYM    DATA     BYTE      TL0
      000000F8H.1 SFRSYM    DATA     BIT       SPI0CN0_TXBMT
      000000C0H.2 SFRSYM    DATA     BIT       SMB1CN0_ARBLOST
      000000D0H.5 SFRSYM    DATA     BIT       PSW_F0
      000000A8H.6 SFRSYM    DATA     BIT       IE_ESPI0
      0000008BH   SFRSYM    DATA     BYTE      TL1
      000000F9H   SFRSYM    DATA     BYTE      PCA0L
      000000C0H   SFRSYM    DATA     BIT       SMB0CN0_SI
      000000D0H.1 SFRSYM    DATA     BIT       PSW_F1
      00000080H   SFRSYM    DATA     BIT       P0_B0
      000000B8H   SFRSYM    DATA     BIT       IP_PX0
      000000C9H   SFRSYM    DATA     BYTE      REG01CN
LX51 LINKER/LOCATER V4.66.66.0                                                        03/09/2017  11:29:19  PAGE 177


      000000C0H   SFRSYM    DATA     BIT       SMB1CN0_SI
      00000090H   SFRSYM    DATA     BIT       P1_B0
      00000080H.1 SFRSYM    DATA     BIT       P0_B1
      000000B8H.2 SFRSYM    DATA     BIT       IP_PX1
      0000009BH   SFRSYM    DATA     BYTE      CMP0CN0
      00000088H.1 SFRSYM    DATA     BIT       TCON_IE0
      000000A0H   SFRSYM    DATA     BIT       P2_B0
      00000090H.1 SFRSYM    DATA     BIT       P1_B1
      00000080H.2 SFRSYM    DATA     BIT       P0_B2
      0000009AH   SFRSYM    DATA     BYTE      CMP1CN0
      00000088H.3 SFRSYM    DATA     BIT       TCON_IE1
      000000B0H   SFRSYM    DATA     BIT       P3_B0
      000000A0H.1 SFRSYM    DATA     BIT       P2_B1
      00000090H.2 SFRSYM    DATA     BIT       P1_B2
      00000080H.3 SFRSYM    DATA     BIT       P0_B3
      000000C0H   SFRSYM    DATA     BYTE      SMB0CN0
      000000B0H.1 SFRSYM    DATA     BIT       P3_B1
      000000A0H.2 SFRSYM    DATA     BIT       P2_B2
      00000090H.3 SFRSYM    DATA     BIT       P1_B3
      00000080H.4 SFRSYM    DATA     BIT       P0_B4
      000000C0H   SFRSYM    DATA     BYTE      SMB1CN0
      000000B0H.2 SFRSYM    DATA     BIT       P3_B2
      000000A0H.3 SFRSYM    DATA     BIT       P2_B3
      00000090H.4 SFRSYM    DATA     BIT       P1_B4
      00000080H.5 SFRSYM    DATA     BIT       P0_B5
      000000B0H.3 SFRSYM    DATA     BIT       P3_B3
      000000A0H.4 SFRSYM    DATA     BIT       P2_B4
      00000090H.5 SFRSYM    DATA     BIT       P1_B5
      00000080H.6 SFRSYM    DATA     BIT       P0_B6
      00000080H.2 SFRSYM    DATA     BIT       LCD_RS
      000000B0H.4 SFRSYM    DATA     BIT       P3_B4
      000000A0H.5 SFRSYM    DATA     BIT       P2_B5
      00000090H.6 SFRSYM    DATA     BIT       P1_B6
      00000080H.7 SFRSYM    DATA     BIT       P0_B7
      000000B0H.5 SFRSYM    DATA     BIT       P3_B5
      000000A0H.6 SFRSYM    DATA     BIT       P2_B6
      00000090H.7 SFRSYM    DATA     BIT       P1_B7
      000000B0H.6 SFRSYM    DATA     BIT       P3_B6
      000000A0H.7 SFRSYM    DATA     BIT       P2_B7
      000000B0H.7 SFRSYM    DATA     BIT       P3_B7
      00000083H   SFRSYM    DATA     BYTE      DPH
      000000C4H   SFRSYM    DATA     BYTE      ADC0GTH
      000000C8H.7 SFRSYM    DATA     BIT       TMR2CN0_TF2H
      000000C8H.3 SFRSYM    DATA     BIT       TMR2CN0_T2SPLIT
      000000D0H.6 SFRSYM    DATA     BIT       PSW_AC
      000000F8H   SFRSYM    DATA     BYTE      SPI0CN0
      000000B3H   SFRSYM    DATA     BYTE      HFO0CAL
      00000080H   SFRSYM    DATA     BIT       BtnEntGpio
      00000088H.5 SFRSYM    DATA     BIT       TCON_TF0
      00000098H   SFRSYM    DATA     BIT       SCON0_RI
      00000082H   SFRSYM    DATA     BYTE      DPL
      00000088H.7 SFRSYM    DATA     BIT       TCON_TF1
      00000099H   SFRSYM    DATA     BYTE      SBUF0
      00000087H   SFRSYM    DATA     BYTE      PCON0
      000000C3H   SFRSYM    DATA     BYTE      ADC0GTL
      000000C8H.6 SFRSYM    DATA     BIT       TMR2CN0_TF2L
      00000098H.1 SFRSYM    DATA     BIT       SCON0_TI
      000000E8H   SFRSYM    DATA     BIT       ADC0CN0_ADCM0
      000000D3H   SFRSYM    DATA     BYTE      SBUF1
      000000C6H   SFRSYM    DATA     BYTE      ADC0LTH
      00000088H   SFRSYM    DATA     BIT       TCON_IT0
      000000E8H.1 SFRSYM    DATA     BIT       ADC0CN0_ADCM1
      000000EFH   SFRSYM    DATA     BYTE      RSTSRC
      000000C8H.7 SFRSYM    DATA     BIT       TMR5CN0_TF5H
      000000C8H.3 SFRSYM    DATA     BIT       TMR5CN0_T5SPLIT
LX51 LINKER/LOCATER V4.66.66.0                                                        03/09/2017  11:29:19  PAGE 178


      00000088H.2 SFRSYM    DATA     BIT       TCON_IT1
      000000E8H.2 SFRSYM    DATA     BIT       ADC0CN0_ADCM2
      00000098H   SFRSYM    DATA     BYTE      SCON0
      000000E8H.3 SFRSYM    DATA     BIT       ADC0CN0_ADWINT
      000000B4H   SFRSYM    DATA     WORD      SBRL1
      000000E5H   SFRSYM    DATA     BYTE      SMOD1
      000000D2H   SFRSYM    DATA     BYTE      SCON1
      000000BAH   SFRSYM    DATA     BYTE      AMX0N
      000000E8H.4 SFRSYM    DATA     BIT       ADC0CN0_ADBUSY
      000000CEH   SFRSYM    DATA     BYTE      SMB0ADM
      000000C5H   SFRSYM    DATA     BYTE      ADC0LTL
      000000F8H.5 SFRSYM    DATA     BIT       SPI0CN0_MODF
      000000B8H.6 SFRSYM    DATA     BIT       IP_PSPI0
      000000CEH   SFRSYM    DATA     BYTE      SMB1ADM
      000000BBH   SFRSYM    DATA     BYTE      AMX0P
      000000C8H.6 SFRSYM    DATA     BIT       TMR5CN0_TF5L
      000000C8H   SFRSYM    DATA     BYTE      TMR2CN0
      00000091H   SFRSYM    DATA     BYTE      TMR3CN0
      00000080H.1 SFRSYM    DATA     BIT       BtnExtGpio
      00000091H   SFRSYM    DATA     BYTE      TMR4CN0
      000000C8H   SFRSYM    DATA     BYTE      TMR5CN0
      000000CFH   SFRSYM    DATA     BYTE      SMB0ADR
      00000088H.4 SFRSYM    DATA     BIT       TCON_TR0
      000000CFH   SFRSYM    DATA     BYTE      SMB1ADR
      000000C8H.4 SFRSYM    DATA     BIT       TMR2CN0_TF2CEN
      00000088H.6 SFRSYM    DATA     BIT       TCON_TR1
      000000C2H   SFRSYM    DATA     BYTE      SMB0DAT
      00000080H.4 SFRSYM    DATA     BIT       RC_OUT
      000000CDH   SFRSYM    DATA     BYTE      TMR2H
      000000A1H   SFRSYM    DATA     BYTE      SPI0CFG
      000000C2H   SFRSYM    DATA     BYTE      SMB1DAT
      00000095H   SFRSYM    DATA     BYTE      TMR3H
      00000095H   SFRSYM    DATA     BYTE      TMR4H
      000000CDH   SFRSYM    DATA     BYTE      TMR5H
      000000CCH   SFRSYM    DATA     BYTE      TMR2L
      00000090H.5 SFRSYM    DATA     BIT       BtnDwGpio
      000000F8H.7 SFRSYM    DATA     BIT       SPI0CN0_SPIF
      00000096H   SFRSYM    DATA     BYTE      USB0ADR
      00000094H   SFRSYM    DATA     BYTE      TMR3L
      000000A8H.7 SFRSYM    DATA     BIT       IE_EA
      00000094H   SFRSYM    DATA     BYTE      TMR4L
      00000097H   SFRSYM    DATA     BYTE      USB0DAT
      000000CCH   SFRSYM    DATA     BYTE      TMR5L
      000000B6H   SFRSYM    DATA     BYTE      FLSCL
      000000C8H.5 SFRSYM    DATA     BIT       TMR2CN0_TF2LEN
      000000F8H.6 SFRSYM    DATA     BIT       SPI0CN0_WCOL
      000000F8H.2 SFRSYM    DATA     BIT       SPI0CN0_NSSMD0
      000000D0H.7 SFRSYM    DATA     BIT       PSW_CY
      000000A3H   SFRSYM    DATA     BYTE      SPI0DAT
      000000F8H.3 SFRSYM    DATA     BIT       SPI0CN0_NSSMD1
      000000BDH   SFRSYM    DATA     WORD      ADC0
      000000B9H   SFRSYM    DATA     BYTE      SMBTC
      000000D0H   SFRSYM    DATA     BYTE      PSW
      000000C8H.5 SFRSYM    DATA     BIT       TMR5CN0_TF5LEN
      000000B7H   SFRSYM    DATA     BYTE      FLKEY
      00000090H.4 SFRSYM    DATA     BIT       BtnUpGpio

      01005E4BH   BLOCK     CODE     ---       LVL=0
      02000A13H   SYMBOL    XDATA    BYTE      event
      01005E4BH   LINE      CODE     ---       #16
      01005E50H   LINE      CODE     ---       #17
      01005E5AH   LINE      CODE     ---       #18
      01005E5FH   LINE      CODE     ---       #19
      01005E67H   LINE      CODE     ---       #20
      01005E76H   LINE      CODE     ---       #21
LX51 LINKER/LOCATER V4.66.66.0                                                        03/09/2017  11:29:19  PAGE 179


      01005E7CH   LINE      CODE     ---       #22
      01005E7CH   LINE      CODE     ---       #23
      01005E8BH   LINE      CODE     ---       #24
      01005E91H   LINE      CODE     ---       #25
      01005E94H   LINE      CODE     ---       #26
      01005E94H   LINE      CODE     ---       #27
      01005EBAH   LINE      CODE     ---       #29
      01005EC2H   LINE      CODE     ---       #30
      01005EE5H   LINE      CODE     ---       #31
      01005F08H   LINE      CODE     ---       #32
      01005F0AH   LINE      CODE     ---       #33
      01005F1EH   LINE      CODE     ---       #34
      01005F1EH   LINE      CODE     ---       #35
      01005F1EH   LINE      CODE     ---       #36
      01005F26H   LINE      CODE     ---       #37
      01005F2FH   LINE      CODE     ---       #38
      01005F42H   LINE      CODE     ---       #39
      01005F44H   LINE      CODE     ---       #40
      01005F49H   LINE      CODE     ---       #41
      01005F49H   LINE      CODE     ---       #42
      01005F49H   LINE      CODE     ---       #43
      01005F4BH   LINE      CODE     ---       #44
      ---         BLOCKEND  ---      ---       LVL=0

      ---         MODULE    ---      ---       INPUTBTN
      0000001FH   PUBLIC    DATA     BYTE      BtnTickOverFlow
      0000001DH   PUBLIC    DATA     WORD      BtnTickCnt
      02000969H   PUBLIC    XDATA    BYTE      BtnCnt
      02000968H   PUBLIC    XDATA    BYTE      BtnStat
      02000967H   PUBLIC    XDATA    BYTE      BtnDown
      02000966H   PUBLIC    XDATA    BYTE      BtnTmpCache
      02000965H   PUBLIC    XDATA    BYTE      BtnHold
      02000964H   PUBLIC    XDATA    BYTE      BtnDownBuffer
      02000963H   PUBLIC    XDATA    BYTE      BtnHoldBuffer
      02000962H   PUBLIC    XDATA    BYTE      BtnUpdate
      010077B4H   PUBLIC    CODE     ---       _BtnTstHold
      01007787H   PUBLIC    CODE     ---       _BtnTstDown
      010078FEH   PUBLIC    CODE     ---       _BtnTstStat
      0100794BH   PUBLIC    CODE     ---       _BtnClearDown
      01007A1AH   PUBLIC    CODE     ---       BtnStopCnt
      01007933H   PUBLIC    CODE     ---       BtnFlush
      0100500DH   PUBLIC    CODE     ---       BtnScanHandle
      010076C1H   PUBLIC    CODE     ---       BtnDatInit
      000000A2H   SFRSYM    DATA     BYTE      SPI0CKR
      00000080H   SFRSYM    DATA     BYTE      P0
      000000D0H.2 SFRSYM    DATA     BIT       PSW_OV
      000000B1H   SFRSYM    DATA     BYTE      XOSC0CN
      00000090H   SFRSYM    DATA     BYTE      P1
      000000A0H   SFRSYM    DATA     BYTE      P2
      000000B0H   SFRSYM    DATA     BYTE      P3
      000000BCH   SFRSYM    DATA     BYTE      ADC0CF
      000000C8H   SFRSYM    DATA     BIT       TMR2CN0_T2XCLK
      000000C7H   SFRSYM    DATA     BYTE      P4
      000000C0H.7 SFRSYM    DATA     BIT       SMB0CN0_MASTER
      000000F9H   SFRSYM    DATA     WORD      PCA0
      000000E6H   SFRSYM    DATA     BYTE      EIE1
      000000C0H.7 SFRSYM    DATA     BIT       SMB1CN0_MASTER
      000000C0H.1 SFRSYM    DATA     BIT       SMB0CN0_ACK
      000000D7H   SFRSYM    DATA     BYTE      USB0XCN
      000000E7H   SFRSYM    DATA     BYTE      EIE2
      000000C0H.1 SFRSYM    DATA     BIT       SMB1CN0_ACK
      0000008FH   SFRSYM    DATA     BYTE      PSCTL
      000000E4H   SFRSYM    DATA     BYTE      IT01CF
      000000C8H   SFRSYM    DATA     BIT       TMR5CN0_T5XCLK
      000000C0H.6 SFRSYM    DATA     BIT       SMB0CN0_TXMODE
LX51 LINKER/LOCATER V4.66.66.0                                                        03/09/2017  11:29:19  PAGE 180


      000000C0H.6 SFRSYM    DATA     BIT       SMB1CN0_TXMODE
      000000BFH   SFRSYM    DATA     BYTE      SFRPAGE
      000000A4H   SFRSYM    DATA     BYTE      P0MDOUT
      00000080H.5 SFRSYM    DATA     BIT       LCD_SDA
      000000A5H   SFRSYM    DATA     BYTE      P1MDOUT
      000000E8H.5 SFRSYM    DATA     BIT       ADC0CN0_ADINT
      000000CBH   SFRSYM    DATA     BYTE      TMR2RLH
      000000A6H   SFRSYM    DATA     BYTE      P2MDOUT
      000000A8H   SFRSYM    DATA     BYTE      IE
      00000093H   SFRSYM    DATA     BYTE      TMR3RLH
      000000A7H   SFRSYM    DATA     BYTE      P3MDOUT
      00000093H   SFRSYM    DATA     BYTE      TMR4RLH
      000000AEH   SFRSYM    DATA     BYTE      P4MDOUT
      000000F6H   SFRSYM    DATA     BYTE      EIP1
      000000CBH   SFRSYM    DATA     BYTE      TMR5RLH
      000000F7H   SFRSYM    DATA     BYTE      EIP2
      00000098H.2 SFRSYM    DATA     BIT       SCON0_RB8
      000000CAH   SFRSYM    DATA     BYTE      TMR2RLL
      000000FCH   SFRSYM    DATA     BYTE      PCA0CPH0
      00000092H   SFRSYM    DATA     BYTE      TMR3RLL
      000000EAH   SFRSYM    DATA     BYTE      PCA0CPH1
      00000098H.3 SFRSYM    DATA     BIT       SCON0_TB8
      000000F0H   SFRSYM    DATA     BIT       B_B0
      00000082H   SFRSYM    DATA     WORD      DP
      00000092H   SFRSYM    DATA     BYTE      TMR4RLL
      000000ECH   SFRSYM    DATA     BYTE      PCA0CPH2
      000000F0H.1 SFRSYM    DATA     BIT       B_B1
      000000C3H   SFRSYM    DATA     WORD      ADC0GT
      000000CAH   SFRSYM    DATA     BYTE      TMR5RLL
      000000EEH   SFRSYM    DATA     BYTE      PCA0CPH3
      00000080H.3 SFRSYM    DATA     BIT       LCD_SCK
      000000F0H.2 SFRSYM    DATA     BIT       B_B2
      000000FBH   SFRSYM    DATA     BYTE      PCA0CPL0
      000000FEH   SFRSYM    DATA     BYTE      PCA0CPH4
      00000085H   SFRSYM    DATA     BYTE      EMI0CF
      000000F0H.3 SFRSYM    DATA     BIT       B_B3
      000000D9H   SFRSYM    DATA     BYTE      PCA0MD
      000000DAH   SFRSYM    DATA     BYTE      PCA0CPM0
      000000E9H   SFRSYM    DATA     BYTE      PCA0CPL1
      000000F0H.4 SFRSYM    DATA     BIT       B_B4
      000000DBH   SFRSYM    DATA     BYTE      PCA0CPM1
      000000EBH   SFRSYM    DATA     BYTE      PCA0CPL2
      000000F0H.5 SFRSYM    DATA     BIT       B_B5
      000000DCH   SFRSYM    DATA     BYTE      PCA0CPM2
      000000EDH   SFRSYM    DATA     BYTE      PCA0CPL3
      000000B8H   SFRSYM    DATA     BYTE      IP
      000000F0H.6 SFRSYM    DATA     BIT       B_B6
      000000C5H   SFRSYM    DATA     WORD      ADC0LT
      000000DDH   SFRSYM    DATA     BYTE      PCA0CPM3
      000000FDH   SFRSYM    DATA     BYTE      PCA0CPL4
      00000098H.5 SFRSYM    DATA     BIT       SCON0_MCE
      000000F0H.7 SFRSYM    DATA     BIT       B_B7
      000000DEH   SFRSYM    DATA     BYTE      PCA0CPM4
      000000E1H   SFRSYM    DATA     BYTE      XBR0
      000000C1H   SFRSYM    DATA     BYTE      SMB0CF
      000000E2H   SFRSYM    DATA     BYTE      XBR1
      000000C1H   SFRSYM    DATA     BYTE      SMB1CF
      000000AFH   SFRSYM    DATA     BYTE      PFE0CN
      000000AAH   SFRSYM    DATA     BYTE      EMI0CN
      000000C0H.5 SFRSYM    DATA     BIT       SMB0CN0_STA
      000000E3H   SFRSYM    DATA     BYTE      XBR2
      000000C0H.5 SFRSYM    DATA     BIT       SMB1CN0_STA
      000000E0H   SFRSYM    DATA     BIT       ACC_ACC0
      000000D1H   SFRSYM    DATA     BYTE      REF0CN
      000000B2H   SFRSYM    DATA     BYTE      HFO0CN
LX51 LINKER/LOCATER V4.66.66.0                                                        03/09/2017  11:29:19  PAGE 181


      0000008EH   SFRSYM    DATA     BYTE      CKCON0
      000000E0H.1 SFRSYM    DATA     BIT       ACC_ACC1
      000000E4H   SFRSYM    DATA     BYTE      CKCON1
      000000C8H.2 SFRSYM    DATA     BIT       TMR2CN0_TR2
      000000E0H.2 SFRSYM    DATA     BIT       ACC_ACC2
      000000E0H.3 SFRSYM    DATA     BIT       ACC_ACC3
      00000081H   SFRSYM    DATA     BYTE      SP
      0000009DH   SFRSYM    DATA     BYTE      CMP0MD
      000000E0H.4 SFRSYM    DATA     BIT       ACC_ACC4
      00000086H   SFRSYM    DATA     BYTE      LFO0CN
      00000084H   SFRSYM    DATA     BYTE      EMI0TC
      0000009CH   SFRSYM    DATA     BYTE      CMP1MD
      000000D8H   SFRSYM    DATA     BIT       PCA0CN0_CCF0
      000000E0H.5 SFRSYM    DATA     BIT       ACC_ACC5
      000000D8H.1 SFRSYM    DATA     BIT       PCA0CN0_CCF1
      000000E0H.6 SFRSYM    DATA     BIT       ACC_ACC6
      000000CCH   SFRSYM    DATA     WORD      TMR2
      000000D8H.2 SFRSYM    DATA     BIT       PCA0CN0_CCF2
      000000E0H.7 SFRSYM    DATA     BIT       ACC_ACC7
      00000094H   SFRSYM    DATA     WORD      TMR3
      000000C8H.2 SFRSYM    DATA     BIT       TMR5CN0_TR5
      000000D8H.3 SFRSYM    DATA     BIT       PCA0CN0_CCF3
      00000094H   SFRSYM    DATA     WORD      TMR4
      000000ACH   SFRSYM    DATA     BYTE      SBCON1
      000000D8H.4 SFRSYM    DATA     BIT       PCA0CN0_CCF4
      000000CCH   SFRSYM    DATA     WORD      TMR5
      000000C0H.3 SFRSYM    DATA     BIT       SMB0CN0_ACKRQ
      000000FFH   SFRSYM    DATA     BYTE      VDM0CN
      000000F1H   SFRSYM    DATA     BYTE      P0MDIN
      000000C0H.3 SFRSYM    DATA     BIT       SMB1CN0_ACKRQ
      00000098H.4 SFRSYM    DATA     BIT       SCON0_REN
      000000F2H   SFRSYM    DATA     BYTE      P1MDIN
      000000F3H   SFRSYM    DATA     BYTE      P2MDIN
      000000C0H.4 SFRSYM    DATA     BIT       SMB0CN0_STO
      000000F4H   SFRSYM    DATA     BYTE      P3MDIN
      00000090H.3 SFRSYM    DATA     BIT       LCD_RST
      000000C0H.4 SFRSYM    DATA     BIT       SMB1CN0_STO
      000000B5H   SFRSYM    DATA     BYTE      SBRLH1
      000000F5H   SFRSYM    DATA     BYTE      P4MDIN
      000000D0H.3 SFRSYM    DATA     BIT       PSW_RS0
      000000D8H.7 SFRSYM    DATA     BIT       PCA0CN0_CF
      000000F8H.4 SFRSYM    DATA     BIT       SPI0CN0_RXOVRN
      000000D0H.4 SFRSYM    DATA     BIT       PSW_RS1
      000000B4H   SFRSYM    DATA     BYTE      SBRLL1
      000000E8H.7 SFRSYM    DATA     BIT       ADC0CN0_ADEN
      00000089H   SFRSYM    DATA     BYTE      TMOD
      00000088H   SFRSYM    DATA     BYTE      TCON
      000000D0H   SFRSYM    DATA     BIT       PSW_PARITY
      000000A8H.4 SFRSYM    DATA     BIT       IE_ES0
      0000009FH   SFRSYM    DATA     BYTE      CMP0MX
      000000A8H.1 SFRSYM    DATA     BIT       IE_ET0
      0000009EH   SFRSYM    DATA     BYTE      CMP1MX
      000000A8H.3 SFRSYM    DATA     BIT       IE_ET1
      000000D4H   SFRSYM    DATA     BYTE      P0SKIP
      000000C8H.1 SFRSYM    DATA     BIT       TMR2CN0_T2CSS
      000000A8H.5 SFRSYM    DATA     BIT       IE_ET2
      000000D5H   SFRSYM    DATA     BYTE      P1SKIP
      000000D6H   SFRSYM    DATA     BYTE      P2SKIP
      000000E8H   SFRSYM    DATA     BYTE      ADC0CN0
      000000A8H   SFRSYM    DATA     BIT       IE_EX0
      000000DFH   SFRSYM    DATA     BYTE      P3SKIP
      000000D8H.6 SFRSYM    DATA     BIT       PCA0CN0_CR
      000000A8H.2 SFRSYM    DATA     BIT       IE_EX1
      00000098H.7 SFRSYM    DATA     BIT       SCON0_SMODE
      000000A9H   SFRSYM    DATA     BYTE      CLKSEL
LX51 LINKER/LOCATER V4.66.66.0                                                        03/09/2017  11:29:19  PAGE 182


      000000F8H   SFRSYM    DATA     BIT       SPI0CN0_SPIEN
      000000F0H   SFRSYM    DATA     BYTE      B
      000000BEH   SFRSYM    DATA     BYTE      ADC0H
      000000E8H.6 SFRSYM    DATA     BIT       ADC0CN0_ADTM
      000000CAH   SFRSYM    DATA     WORD      TMR2RL
      000000BDH   SFRSYM    DATA     BYTE      ADC0L
      00000092H   SFRSYM    DATA     WORD      TMR3RL
      00000092H   SFRSYM    DATA     WORD      TMR4RL
      000000D8H   SFRSYM    DATA     BYTE      PCA0CN0
      000000E0H   SFRSYM    DATA     BYTE      ACC
      000000CAH   SFRSYM    DATA     WORD      TMR5RL
      000000FBH   SFRSYM    DATA     WORD      PCA0CP0
      00000080H.6 SFRSYM    DATA     BIT       LCD_CS
      000000E9H   SFRSYM    DATA     WORD      PCA0CP1
      000000EBH   SFRSYM    DATA     WORD      PCA0CP2
      000000EDH   SFRSYM    DATA     WORD      PCA0CP3
      0000008CH   SFRSYM    DATA     BYTE      TH0
      000000B8H.4 SFRSYM    DATA     BIT       IP_PS0
      000000FDH   SFRSYM    DATA     WORD      PCA0CP4
      0000008DH   SFRSYM    DATA     BYTE      TH1
      000000FAH   SFRSYM    DATA     BYTE      PCA0H
      000000B8H.1 SFRSYM    DATA     BIT       IP_PT0
      000000B8H.3 SFRSYM    DATA     BIT       IP_PT1
      000000C0H.2 SFRSYM    DATA     BIT       SMB0CN0_ARBLOST
      000000B8H.5 SFRSYM    DATA     BIT       IP_PT2
      0000008AH   SFRSYM    DATA     BYTE      TL0
      000000F8H.1 SFRSYM    DATA     BIT       SPI0CN0_TXBMT
      000000C0H.2 SFRSYM    DATA     BIT       SMB1CN0_ARBLOST
      000000D0H.5 SFRSYM    DATA     BIT       PSW_F0
      000000A8H.6 SFRSYM    DATA     BIT       IE_ESPI0
      0000008BH   SFRSYM    DATA     BYTE      TL1
      000000F9H   SFRSYM    DATA     BYTE      PCA0L
      000000C0H   SFRSYM    DATA     BIT       SMB0CN0_SI
      000000D0H.1 SFRSYM    DATA     BIT       PSW_F1
      00000080H   SFRSYM    DATA     BIT       P0_B0
      000000B8H   SFRSYM    DATA     BIT       IP_PX0
      000000C9H   SFRSYM    DATA     BYTE      REG01CN
      000000C0H   SFRSYM    DATA     BIT       SMB1CN0_SI
      00000090H   SFRSYM    DATA     BIT       P1_B0
      00000080H.1 SFRSYM    DATA     BIT       P0_B1
      000000B8H.2 SFRSYM    DATA     BIT       IP_PX1
      0000009BH   SFRSYM    DATA     BYTE      CMP0CN0
      00000088H.1 SFRSYM    DATA     BIT       TCON_IE0
      000000A0H   SFRSYM    DATA     BIT       P2_B0
      00000090H.1 SFRSYM    DATA     BIT       P1_B1
      00000080H.2 SFRSYM    DATA     BIT       P0_B2
      0000009AH   SFRSYM    DATA     BYTE      CMP1CN0
      00000088H.3 SFRSYM    DATA     BIT       TCON_IE1
      000000B0H   SFRSYM    DATA     BIT       P3_B0
      000000A0H.1 SFRSYM    DATA     BIT       P2_B1
      00000090H.2 SFRSYM    DATA     BIT       P1_B2
      00000080H.3 SFRSYM    DATA     BIT       P0_B3
      000000C0H   SFRSYM    DATA     BYTE      SMB0CN0
      000000B0H.1 SFRSYM    DATA     BIT       P3_B1
      000000A0H.2 SFRSYM    DATA     BIT       P2_B2
      00000090H.3 SFRSYM    DATA     BIT       P1_B3
      00000080H.4 SFRSYM    DATA     BIT       P0_B4
      000000C0H   SFRSYM    DATA     BYTE      SMB1CN0
      000000B0H.2 SFRSYM    DATA     BIT       P3_B2
      000000A0H.3 SFRSYM    DATA     BIT       P2_B3
      00000090H.4 SFRSYM    DATA     BIT       P1_B4
      00000080H.5 SFRSYM    DATA     BIT       P0_B5
      000000B0H.3 SFRSYM    DATA     BIT       P3_B3
      000000A0H.4 SFRSYM    DATA     BIT       P2_B4
      00000090H.5 SFRSYM    DATA     BIT       P1_B5
LX51 LINKER/LOCATER V4.66.66.0                                                        03/09/2017  11:29:19  PAGE 183


      00000080H.6 SFRSYM    DATA     BIT       P0_B6
      00000080H.2 SFRSYM    DATA     BIT       LCD_RS
      000000B0H.4 SFRSYM    DATA     BIT       P3_B4
      000000A0H.5 SFRSYM    DATA     BIT       P2_B5
      00000090H.6 SFRSYM    DATA     BIT       P1_B6
      00000080H.7 SFRSYM    DATA     BIT       P0_B7
      000000B0H.5 SFRSYM    DATA     BIT       P3_B5
      000000A0H.6 SFRSYM    DATA     BIT       P2_B6
      00000090H.7 SFRSYM    DATA     BIT       P1_B7
      000000B0H.6 SFRSYM    DATA     BIT       P3_B6
      000000A0H.7 SFRSYM    DATA     BIT       P2_B7
      000000B0H.7 SFRSYM    DATA     BIT       P3_B7
      00000083H   SFRSYM    DATA     BYTE      DPH
      000000C4H   SFRSYM    DATA     BYTE      ADC0GTH
      000000C8H.7 SFRSYM    DATA     BIT       TMR2CN0_TF2H
      000000C8H.3 SFRSYM    DATA     BIT       TMR2CN0_T2SPLIT
      000000D0H.6 SFRSYM    DATA     BIT       PSW_AC
      000000F8H   SFRSYM    DATA     BYTE      SPI0CN0
      000000B3H   SFRSYM    DATA     BYTE      HFO0CAL
      00000080H   SFRSYM    DATA     BIT       BtnEntGpio
      00000088H.5 SFRSYM    DATA     BIT       TCON_TF0
      00000098H   SFRSYM    DATA     BIT       SCON0_RI
      00000082H   SFRSYM    DATA     BYTE      DPL
      00000088H.7 SFRSYM    DATA     BIT       TCON_TF1
      00000099H   SFRSYM    DATA     BYTE      SBUF0
      00000087H   SFRSYM    DATA     BYTE      PCON0
      000000C3H   SFRSYM    DATA     BYTE      ADC0GTL
      000000C8H.6 SFRSYM    DATA     BIT       TMR2CN0_TF2L
      00000098H.1 SFRSYM    DATA     BIT       SCON0_TI
      000000E8H   SFRSYM    DATA     BIT       ADC0CN0_ADCM0
      000000D3H   SFRSYM    DATA     BYTE      SBUF1
      000000C6H   SFRSYM    DATA     BYTE      ADC0LTH
      00000088H   SFRSYM    DATA     BIT       TCON_IT0
      000000E8H.1 SFRSYM    DATA     BIT       ADC0CN0_ADCM1
      000000EFH   SFRSYM    DATA     BYTE      RSTSRC
      000000C8H.7 SFRSYM    DATA     BIT       TMR5CN0_TF5H
      000000C8H.3 SFRSYM    DATA     BIT       TMR5CN0_T5SPLIT
      00000088H.2 SFRSYM    DATA     BIT       TCON_IT1
      000000E8H.2 SFRSYM    DATA     BIT       ADC0CN0_ADCM2
      00000098H   SFRSYM    DATA     BYTE      SCON0
      000000E8H.3 SFRSYM    DATA     BIT       ADC0CN0_ADWINT
      000000B4H   SFRSYM    DATA     WORD      SBRL1
      000000E5H   SFRSYM    DATA     BYTE      SMOD1
      000000D2H   SFRSYM    DATA     BYTE      SCON1
      000000BAH   SFRSYM    DATA     BYTE      AMX0N
      000000E8H.4 SFRSYM    DATA     BIT       ADC0CN0_ADBUSY
      000000CEH   SFRSYM    DATA     BYTE      SMB0ADM
      000000C5H   SFRSYM    DATA     BYTE      ADC0LTL
      000000F8H.5 SFRSYM    DATA     BIT       SPI0CN0_MODF
      000000B8H.6 SFRSYM    DATA     BIT       IP_PSPI0
      000000CEH   SFRSYM    DATA     BYTE      SMB1ADM
      000000BBH   SFRSYM    DATA     BYTE      AMX0P
      000000C8H.6 SFRSYM    DATA     BIT       TMR5CN0_TF5L
      000000C8H   SFRSYM    DATA     BYTE      TMR2CN0
      00000091H   SFRSYM    DATA     BYTE      TMR3CN0
      00000080H.1 SFRSYM    DATA     BIT       BtnExtGpio
      00000091H   SFRSYM    DATA     BYTE      TMR4CN0
      000000C8H   SFRSYM    DATA     BYTE      TMR5CN0
      000000CFH   SFRSYM    DATA     BYTE      SMB0ADR
      00000088H.4 SFRSYM    DATA     BIT       TCON_TR0
      000000CFH   SFRSYM    DATA     BYTE      SMB1ADR
      000000C8H.4 SFRSYM    DATA     BIT       TMR2CN0_TF2CEN
      00000088H.6 SFRSYM    DATA     BIT       TCON_TR1
      000000C2H   SFRSYM    DATA     BYTE      SMB0DAT
      00000080H.4 SFRSYM    DATA     BIT       RC_OUT
LX51 LINKER/LOCATER V4.66.66.0                                                        03/09/2017  11:29:19  PAGE 184


      000000CDH   SFRSYM    DATA     BYTE      TMR2H
      000000A1H   SFRSYM    DATA     BYTE      SPI0CFG
      000000C2H   SFRSYM    DATA     BYTE      SMB1DAT
      00000095H   SFRSYM    DATA     BYTE      TMR3H
      00000095H   SFRSYM    DATA     BYTE      TMR4H
      000000CDH   SFRSYM    DATA     BYTE      TMR5H
      000000CCH   SFRSYM    DATA     BYTE      TMR2L
      00000090H.5 SFRSYM    DATA     BIT       BtnDwGpio
      000000F8H.7 SFRSYM    DATA     BIT       SPI0CN0_SPIF
      00000096H   SFRSYM    DATA     BYTE      USB0ADR
      00000094H   SFRSYM    DATA     BYTE      TMR3L
      000000A8H.7 SFRSYM    DATA     BIT       IE_EA
      00000094H   SFRSYM    DATA     BYTE      TMR4L
      00000097H   SFRSYM    DATA     BYTE      USB0DAT
      000000CCH   SFRSYM    DATA     BYTE      TMR5L
      000000B6H   SFRSYM    DATA     BYTE      FLSCL
      000000C8H.5 SFRSYM    DATA     BIT       TMR2CN0_TF2LEN
      000000F8H.6 SFRSYM    DATA     BIT       SPI0CN0_WCOL
      000000F8H.2 SFRSYM    DATA     BIT       SPI0CN0_NSSMD0
      000000D0H.7 SFRSYM    DATA     BIT       PSW_CY
      000000A3H   SFRSYM    DATA     BYTE      SPI0DAT
      000000F8H.3 SFRSYM    DATA     BIT       SPI0CN0_NSSMD1
      000000BDH   SFRSYM    DATA     WORD      ADC0
      000000B9H   SFRSYM    DATA     BYTE      SMBTC
      000000D0H   SFRSYM    DATA     BYTE      PSW
      000000C8H.5 SFRSYM    DATA     BIT       TMR5CN0_TF5LEN
      000000B7H   SFRSYM    DATA     BYTE      FLKEY
      00000090H.4 SFRSYM    DATA     BIT       BtnUpGpio

      010076C1H   BLOCK     CODE     ---       LVL=0
      010076C1H   LINE      CODE     ---       #18
      010076C1H   LINE      CODE     ---       #19
      010076C6H   LINE      CODE     ---       #20
      010076CFH   LINE      CODE     ---       #22
      010076D4H   LINE      CODE     ---       #23
      010076E6H   LINE      CODE     ---       #24
      010076F8H   LINE      CODE     ---       #25
      ---         BLOCKEND  ---      ---       LVL=0

      0100500DH   BLOCK     CODE     ---       LVL=0
      0100500DH   BLOCK     CODE     NEAR LAB  LVL=1
      0000001CH   SYMBOL    DATA     BYTE      BtnTmp
      ---         BLOCKEND  ---      ---       LVL=1
      0100500DH   LINE      CODE     ---       #27
      0100500DH   LINE      CODE     ---       #28
      01005010H   LINE      CODE     ---       #30
      01005012H   LINE      CODE     ---       #31
      01005017H   LINE      CODE     ---       #32
      01005022H   LINE      CODE     ---       #33
      01005025H   LINE      CODE     ---       #35
      01005025H   LINE      CODE     ---       #36
      01005028H   LINE      CODE     ---       #37
      0100502AH   LINE      CODE     ---       #38
      0100502CH   LINE      CODE     ---       #39
      01005037H   LINE      CODE     ---       #40
      0100503AH   LINE      CODE     ---       #42
      0100503AH   LINE      CODE     ---       #43
      01005046H   LINE      CODE     ---       #44
      01005054H   LINE      CODE     ---       #45
      01005056H   LINE      CODE     ---       #46
      01005056H   LINE      CODE     ---       #48
      01005062H   LINE      CODE     ---       #49
      0100506EH   LINE      CODE     ---       #50
      0100507AH   LINE      CODE     ---       #51
      01005086H   LINE      CODE     ---       #53
LX51 LINKER/LOCATER V4.66.66.0                                                        03/09/2017  11:29:19  PAGE 185


      01005093H   LINE      CODE     ---       #54
      0100509DH   LINE      CODE     ---       #55
      010050AEH   LINE      CODE     ---       #56
      010050B6H   LINE      CODE     ---       #57
      010050B7H   LINE      CODE     ---       #58
      010050C9H   LINE      CODE     ---       #59
      010050CBH   LINE      CODE     ---       #60
      010050D6H   LINE      CODE     ---       #61
      010050E0H   LINE      CODE     ---       #62
      010050EAH   LINE      CODE     ---       #64
      01005100H   LINE      CODE     ---       #65
      01005112H   LINE      CODE     ---       #66
      01005123H   LINE      CODE     ---       #67
      01005132H   LINE      CODE     ---       #68
      01005138H   LINE      CODE     ---       #69
      01005138H   LINE      CODE     ---       #70
      01005138H   LINE      CODE     ---       #71
      0100513EH   LINE      CODE     ---       #72
      0100513FH   LINE      CODE     ---       #73
      01005151H   LINE      CODE     ---       #74
      01005156H   LINE      CODE     ---       #75
      01005156H   LINE      CODE     ---       #76
      01005157H   LINE      CODE     ---       #77
      0100515DH   LINE      CODE     ---       #78
      01005163H   LINE      CODE     ---       #79
      01005163H   LINE      CODE     ---       #80
      ---         BLOCKEND  ---      ---       LVL=0

      01007933H   BLOCK     CODE     ---       LVL=0
      01007933H   LINE      CODE     ---       #82
      01007933H   LINE      CODE     ---       #83
      01007945H   LINE      CODE     ---       #84
      0100794AH   LINE      CODE     ---       #85
      ---         BLOCKEND  ---      ---       LVL=0

      01007A1AH   BLOCK     CODE     ---       LVL=0
      01007A1AH   LINE      CODE     ---       #86
      01007A1AH   LINE      CODE     ---       #87
      01007A20H   LINE      CODE     ---       #88
      ---         BLOCKEND  ---      ---       LVL=0

      0100794BH   BLOCK     CODE     ---       LVL=0
      02000A14H   SYMBOL    XDATA    BYTE      BtnMask
      0100794BH   LINE      CODE     ---       #89
      01007950H   LINE      CODE     ---       #90
      01007962H   LINE      CODE     ---       #91
      ---         BLOCKEND  ---      ---       LVL=0

      010078FEH   BLOCK     CODE     ---       LVL=0
      02000A15H   SYMBOL    XDATA    BYTE      BtnMask
      010078FEH   LINE      CODE     ---       #92
      01007903H   LINE      CODE     ---       #93
      01007919H   LINE      CODE     ---       #94
      ---         BLOCKEND  ---      ---       LVL=0

      01007787H   BLOCK     CODE     ---       LVL=0
      02000A16H   SYMBOL    XDATA    BYTE      BtnMask
      01007787H   LINE      CODE     ---       #95
      0100778CH   LINE      CODE     ---       #96
      0100779CH   LINE      CODE     ---       #97
      010077AEH   LINE      CODE     ---       #98
      010077B1H   LINE      CODE     ---       #99
      010077B1H   LINE      CODE     ---       #100
      010077B3H   LINE      CODE     ---       #101
      ---         BLOCKEND  ---      ---       LVL=0
LX51 LINKER/LOCATER V4.66.66.0                                                        03/09/2017  11:29:19  PAGE 186



      010077B4H   BLOCK     CODE     ---       LVL=0
      02000A17H   SYMBOL    XDATA    BYTE      BtnMask
      010077B4H   LINE      CODE     ---       #102
      010077B9H   LINE      CODE     ---       #103
      010077C9H   LINE      CODE     ---       #104
      010077DBH   LINE      CODE     ---       #105
      010077DEH   LINE      CODE     ---       #106
      010077DEH   LINE      CODE     ---       #107
      010077E0H   LINE      CODE     ---       #108
      ---         BLOCKEND  ---      ---       LVL=0

      ---         MODULE    ---      ---       INPUTBTNBSP
      0100753CH   PUBLIC    CODE     ---       _BtnGetState
      000000A2H   SFRSYM    DATA     BYTE      SPI0CKR
      00000080H   SFRSYM    DATA     BYTE      P0
      000000D0H.2 SFRSYM    DATA     BIT       PSW_OV
      000000B1H   SFRSYM    DATA     BYTE      XOSC0CN
      00000090H   SFRSYM    DATA     BYTE      P1
      000000A0H   SFRSYM    DATA     BYTE      P2
      000000B0H   SFRSYM    DATA     BYTE      P3
      000000BCH   SFRSYM    DATA     BYTE      ADC0CF
      000000C8H   SFRSYM    DATA     BIT       TMR2CN0_T2XCLK
      000000C7H   SFRSYM    DATA     BYTE      P4
      000000C0H.7 SFRSYM    DATA     BIT       SMB0CN0_MASTER
      000000F9H   SFRSYM    DATA     WORD      PCA0
      000000E6H   SFRSYM    DATA     BYTE      EIE1
      000000C0H.7 SFRSYM    DATA     BIT       SMB1CN0_MASTER
      000000C0H.1 SFRSYM    DATA     BIT       SMB0CN0_ACK
      000000D7H   SFRSYM    DATA     BYTE      USB0XCN
      000000E7H   SFRSYM    DATA     BYTE      EIE2
      000000C0H.1 SFRSYM    DATA     BIT       SMB1CN0_ACK
      0000008FH   SFRSYM    DATA     BYTE      PSCTL
      000000E4H   SFRSYM    DATA     BYTE      IT01CF
      000000C8H   SFRSYM    DATA     BIT       TMR5CN0_T5XCLK
      000000C0H.6 SFRSYM    DATA     BIT       SMB0CN0_TXMODE
      000000C0H.6 SFRSYM    DATA     BIT       SMB1CN0_TXMODE
      000000BFH   SFRSYM    DATA     BYTE      SFRPAGE
      000000A4H   SFRSYM    DATA     BYTE      P0MDOUT
      00000080H.5 SFRSYM    DATA     BIT       LCD_SDA
      000000A5H   SFRSYM    DATA     BYTE      P1MDOUT
      000000E8H.5 SFRSYM    DATA     BIT       ADC0CN0_ADINT
      000000CBH   SFRSYM    DATA     BYTE      TMR2RLH
      000000A6H   SFRSYM    DATA     BYTE      P2MDOUT
      000000A8H   SFRSYM    DATA     BYTE      IE
      00000093H   SFRSYM    DATA     BYTE      TMR3RLH
      000000A7H   SFRSYM    DATA     BYTE      P3MDOUT
      00000093H   SFRSYM    DATA     BYTE      TMR4RLH
      000000AEH   SFRSYM    DATA     BYTE      P4MDOUT
      000000F6H   SFRSYM    DATA     BYTE      EIP1
      000000CBH   SFRSYM    DATA     BYTE      TMR5RLH
      000000F7H   SFRSYM    DATA     BYTE      EIP2
      00000098H.2 SFRSYM    DATA     BIT       SCON0_RB8
      000000CAH   SFRSYM    DATA     BYTE      TMR2RLL
      000000FCH   SFRSYM    DATA     BYTE      PCA0CPH0
      00000092H   SFRSYM    DATA     BYTE      TMR3RLL
      000000EAH   SFRSYM    DATA     BYTE      PCA0CPH1
      00000098H.3 SFRSYM    DATA     BIT       SCON0_TB8
      000000F0H   SFRSYM    DATA     BIT       B_B0
      00000082H   SFRSYM    DATA     WORD      DP
      00000092H   SFRSYM    DATA     BYTE      TMR4RLL
      000000ECH   SFRSYM    DATA     BYTE      PCA0CPH2
      000000F0H.1 SFRSYM    DATA     BIT       B_B1
      000000C3H   SFRSYM    DATA     WORD      ADC0GT
      000000CAH   SFRSYM    DATA     BYTE      TMR5RLL
LX51 LINKER/LOCATER V4.66.66.0                                                        03/09/2017  11:29:19  PAGE 187


      000000EEH   SFRSYM    DATA     BYTE      PCA0CPH3
      00000080H.3 SFRSYM    DATA     BIT       LCD_SCK
      000000F0H.2 SFRSYM    DATA     BIT       B_B2
      000000FBH   SFRSYM    DATA     BYTE      PCA0CPL0
      000000FEH   SFRSYM    DATA     BYTE      PCA0CPH4
      00000085H   SFRSYM    DATA     BYTE      EMI0CF
      000000F0H.3 SFRSYM    DATA     BIT       B_B3
      000000D9H   SFRSYM    DATA     BYTE      PCA0MD
      000000DAH   SFRSYM    DATA     BYTE      PCA0CPM0
      000000E9H   SFRSYM    DATA     BYTE      PCA0CPL1
      000000F0H.4 SFRSYM    DATA     BIT       B_B4
      000000DBH   SFRSYM    DATA     BYTE      PCA0CPM1
      000000EBH   SFRSYM    DATA     BYTE      PCA0CPL2
      000000F0H.5 SFRSYM    DATA     BIT       B_B5
      000000DCH   SFRSYM    DATA     BYTE      PCA0CPM2
      000000EDH   SFRSYM    DATA     BYTE      PCA0CPL3
      000000B8H   SFRSYM    DATA     BYTE      IP
      000000F0H.6 SFRSYM    DATA     BIT       B_B6
      000000C5H   SFRSYM    DATA     WORD      ADC0LT
      000000DDH   SFRSYM    DATA     BYTE      PCA0CPM3
      000000FDH   SFRSYM    DATA     BYTE      PCA0CPL4
      00000098H.5 SFRSYM    DATA     BIT       SCON0_MCE
      000000F0H.7 SFRSYM    DATA     BIT       B_B7
      000000DEH   SFRSYM    DATA     BYTE      PCA0CPM4
      000000E1H   SFRSYM    DATA     BYTE      XBR0
      000000C1H   SFRSYM    DATA     BYTE      SMB0CF
      000000E2H   SFRSYM    DATA     BYTE      XBR1
      000000C1H   SFRSYM    DATA     BYTE      SMB1CF
      000000AFH   SFRSYM    DATA     BYTE      PFE0CN
      000000AAH   SFRSYM    DATA     BYTE      EMI0CN
      000000C0H.5 SFRSYM    DATA     BIT       SMB0CN0_STA
      000000E3H   SFRSYM    DATA     BYTE      XBR2
      000000C0H.5 SFRSYM    DATA     BIT       SMB1CN0_STA
      000000E0H   SFRSYM    DATA     BIT       ACC_ACC0
      000000D1H   SFRSYM    DATA     BYTE      REF0CN
      000000B2H   SFRSYM    DATA     BYTE      HFO0CN
      0000008EH   SFRSYM    DATA     BYTE      CKCON0
      000000E0H.1 SFRSYM    DATA     BIT       ACC_ACC1
      000000E4H   SFRSYM    DATA     BYTE      CKCON1
      000000C8H.2 SFRSYM    DATA     BIT       TMR2CN0_TR2
      000000E0H.2 SFRSYM    DATA     BIT       ACC_ACC2
      000000E0H.3 SFRSYM    DATA     BIT       ACC_ACC3
      00000081H   SFRSYM    DATA     BYTE      SP
      0000009DH   SFRSYM    DATA     BYTE      CMP0MD
      000000E0H.4 SFRSYM    DATA     BIT       ACC_ACC4
      00000086H   SFRSYM    DATA     BYTE      LFO0CN
      00000084H   SFRSYM    DATA     BYTE      EMI0TC
      0000009CH   SFRSYM    DATA     BYTE      CMP1MD
      000000D8H   SFRSYM    DATA     BIT       PCA0CN0_CCF0
      000000E0H.5 SFRSYM    DATA     BIT       ACC_ACC5
      000000D8H.1 SFRSYM    DATA     BIT       PCA0CN0_CCF1
      000000E0H.6 SFRSYM    DATA     BIT       ACC_ACC6
      000000CCH   SFRSYM    DATA     WORD      TMR2
      000000D8H.2 SFRSYM    DATA     BIT       PCA0CN0_CCF2
      000000E0H.7 SFRSYM    DATA     BIT       ACC_ACC7
      00000094H   SFRSYM    DATA     WORD      TMR3
      000000C8H.2 SFRSYM    DATA     BIT       TMR5CN0_TR5
      000000D8H.3 SFRSYM    DATA     BIT       PCA0CN0_CCF3
      00000094H   SFRSYM    DATA     WORD      TMR4
      000000ACH   SFRSYM    DATA     BYTE      SBCON1
      000000D8H.4 SFRSYM    DATA     BIT       PCA0CN0_CCF4
      000000CCH   SFRSYM    DATA     WORD      TMR5
      000000C0H.3 SFRSYM    DATA     BIT       SMB0CN0_ACKRQ
      000000FFH   SFRSYM    DATA     BYTE      VDM0CN
      000000F1H   SFRSYM    DATA     BYTE      P0MDIN
LX51 LINKER/LOCATER V4.66.66.0                                                        03/09/2017  11:29:19  PAGE 188


      000000C0H.3 SFRSYM    DATA     BIT       SMB1CN0_ACKRQ
      00000098H.4 SFRSYM    DATA     BIT       SCON0_REN
      000000F2H   SFRSYM    DATA     BYTE      P1MDIN
      000000F3H   SFRSYM    DATA     BYTE      P2MDIN
      000000C0H.4 SFRSYM    DATA     BIT       SMB0CN0_STO
      000000F4H   SFRSYM    DATA     BYTE      P3MDIN
      00000090H.3 SFRSYM    DATA     BIT       LCD_RST
      000000C0H.4 SFRSYM    DATA     BIT       SMB1CN0_STO
      000000B5H   SFRSYM    DATA     BYTE      SBRLH1
      000000F5H   SFRSYM    DATA     BYTE      P4MDIN
      000000D0H.3 SFRSYM    DATA     BIT       PSW_RS0
      000000D8H.7 SFRSYM    DATA     BIT       PCA0CN0_CF
      000000F8H.4 SFRSYM    DATA     BIT       SPI0CN0_RXOVRN
      000000D0H.4 SFRSYM    DATA     BIT       PSW_RS1
      000000B4H   SFRSYM    DATA     BYTE      SBRLL1
      000000E8H.7 SFRSYM    DATA     BIT       ADC0CN0_ADEN
      00000089H   SFRSYM    DATA     BYTE      TMOD
      00000088H   SFRSYM    DATA     BYTE      TCON
      000000D0H   SFRSYM    DATA     BIT       PSW_PARITY
      000000A8H.4 SFRSYM    DATA     BIT       IE_ES0
      0000009FH   SFRSYM    DATA     BYTE      CMP0MX
      000000A8H.1 SFRSYM    DATA     BIT       IE_ET0
      0000009EH   SFRSYM    DATA     BYTE      CMP1MX
      000000A8H.3 SFRSYM    DATA     BIT       IE_ET1
      000000D4H   SFRSYM    DATA     BYTE      P0SKIP
      000000C8H.1 SFRSYM    DATA     BIT       TMR2CN0_T2CSS
      000000A8H.5 SFRSYM    DATA     BIT       IE_ET2
      000000D5H   SFRSYM    DATA     BYTE      P1SKIP
      000000D6H   SFRSYM    DATA     BYTE      P2SKIP
      000000E8H   SFRSYM    DATA     BYTE      ADC0CN0
      000000A8H   SFRSYM    DATA     BIT       IE_EX0
      000000DFH   SFRSYM    DATA     BYTE      P3SKIP
      000000D8H.6 SFRSYM    DATA     BIT       PCA0CN0_CR
      000000A8H.2 SFRSYM    DATA     BIT       IE_EX1
      00000098H.7 SFRSYM    DATA     BIT       SCON0_SMODE
      000000A9H   SFRSYM    DATA     BYTE      CLKSEL
      000000F8H   SFRSYM    DATA     BIT       SPI0CN0_SPIEN
      000000F0H   SFRSYM    DATA     BYTE      B
      000000BEH   SFRSYM    DATA     BYTE      ADC0H
      000000E8H.6 SFRSYM    DATA     BIT       ADC0CN0_ADTM
      000000CAH   SFRSYM    DATA     WORD      TMR2RL
      000000BDH   SFRSYM    DATA     BYTE      ADC0L
      00000092H   SFRSYM    DATA     WORD      TMR3RL
      00000092H   SFRSYM    DATA     WORD      TMR4RL
      000000D8H   SFRSYM    DATA     BYTE      PCA0CN0
      000000E0H   SFRSYM    DATA     BYTE      ACC
      000000CAH   SFRSYM    DATA     WORD      TMR5RL
      000000FBH   SFRSYM    DATA     WORD      PCA0CP0
      00000080H.6 SFRSYM    DATA     BIT       LCD_CS
      000000E9H   SFRSYM    DATA     WORD      PCA0CP1
      000000EBH   SFRSYM    DATA     WORD      PCA0CP2
      000000EDH   SFRSYM    DATA     WORD      PCA0CP3
      0000008CH   SFRSYM    DATA     BYTE      TH0
      000000B8H.4 SFRSYM    DATA     BIT       IP_PS0
      000000FDH   SFRSYM    DATA     WORD      PCA0CP4
      0000008DH   SFRSYM    DATA     BYTE      TH1
      000000FAH   SFRSYM    DATA     BYTE      PCA0H
      000000B8H.1 SFRSYM    DATA     BIT       IP_PT0
      000000B8H.3 SFRSYM    DATA     BIT       IP_PT1
      000000C0H.2 SFRSYM    DATA     BIT       SMB0CN0_ARBLOST
      000000B8H.5 SFRSYM    DATA     BIT       IP_PT2
      0000008AH   SFRSYM    DATA     BYTE      TL0
      000000F8H.1 SFRSYM    DATA     BIT       SPI0CN0_TXBMT
      000000C0H.2 SFRSYM    DATA     BIT       SMB1CN0_ARBLOST
      000000D0H.5 SFRSYM    DATA     BIT       PSW_F0
LX51 LINKER/LOCATER V4.66.66.0                                                        03/09/2017  11:29:19  PAGE 189


      000000A8H.6 SFRSYM    DATA     BIT       IE_ESPI0
      0000008BH   SFRSYM    DATA     BYTE      TL1
      000000F9H   SFRSYM    DATA     BYTE      PCA0L
      000000C0H   SFRSYM    DATA     BIT       SMB0CN0_SI
      000000D0H.1 SFRSYM    DATA     BIT       PSW_F1
      00000080H   SFRSYM    DATA     BIT       P0_B0
      000000B8H   SFRSYM    DATA     BIT       IP_PX0
      000000C9H   SFRSYM    DATA     BYTE      REG01CN
      000000C0H   SFRSYM    DATA     BIT       SMB1CN0_SI
      00000090H   SFRSYM    DATA     BIT       P1_B0
      00000080H.1 SFRSYM    DATA     BIT       P0_B1
      000000B8H.2 SFRSYM    DATA     BIT       IP_PX1
      0000009BH   SFRSYM    DATA     BYTE      CMP0CN0
      00000088H.1 SFRSYM    DATA     BIT       TCON_IE0
      000000A0H   SFRSYM    DATA     BIT       P2_B0
      00000090H.1 SFRSYM    DATA     BIT       P1_B1
      00000080H.2 SFRSYM    DATA     BIT       P0_B2
      0000009AH   SFRSYM    DATA     BYTE      CMP1CN0
      00000088H.3 SFRSYM    DATA     BIT       TCON_IE1
      000000B0H   SFRSYM    DATA     BIT       P3_B0
      000000A0H.1 SFRSYM    DATA     BIT       P2_B1
      00000090H.2 SFRSYM    DATA     BIT       P1_B2
      00000080H.3 SFRSYM    DATA     BIT       P0_B3
      000000C0H   SFRSYM    DATA     BYTE      SMB0CN0
      000000B0H.1 SFRSYM    DATA     BIT       P3_B1
      000000A0H.2 SFRSYM    DATA     BIT       P2_B2
      00000090H.3 SFRSYM    DATA     BIT       P1_B3
      00000080H.4 SFRSYM    DATA     BIT       P0_B4
      000000C0H   SFRSYM    DATA     BYTE      SMB1CN0
      000000B0H.2 SFRSYM    DATA     BIT       P3_B2
      000000A0H.3 SFRSYM    DATA     BIT       P2_B3
      00000090H.4 SFRSYM    DATA     BIT       P1_B4
      00000080H.5 SFRSYM    DATA     BIT       P0_B5
      000000B0H.3 SFRSYM    DATA     BIT       P3_B3
      000000A0H.4 SFRSYM    DATA     BIT       P2_B4
      00000090H.5 SFRSYM    DATA     BIT       P1_B5
      00000080H.6 SFRSYM    DATA     BIT       P0_B6
      00000080H.2 SFRSYM    DATA     BIT       LCD_RS
      000000B0H.4 SFRSYM    DATA     BIT       P3_B4
      000000A0H.5 SFRSYM    DATA     BIT       P2_B5
      00000090H.6 SFRSYM    DATA     BIT       P1_B6
      00000080H.7 SFRSYM    DATA     BIT       P0_B7
      000000B0H.5 SFRSYM    DATA     BIT       P3_B5
      000000A0H.6 SFRSYM    DATA     BIT       P2_B6
      00000090H.7 SFRSYM    DATA     BIT       P1_B7
      000000B0H.6 SFRSYM    DATA     BIT       P3_B6
      000000A0H.7 SFRSYM    DATA     BIT       P2_B7
      000000B0H.7 SFRSYM    DATA     BIT       P3_B7
      00000083H   SFRSYM    DATA     BYTE      DPH
      000000C4H   SFRSYM    DATA     BYTE      ADC0GTH
      000000C8H.7 SFRSYM    DATA     BIT       TMR2CN0_TF2H
      000000C8H.3 SFRSYM    DATA     BIT       TMR2CN0_T2SPLIT
      000000D0H.6 SFRSYM    DATA     BIT       PSW_AC
      000000F8H   SFRSYM    DATA     BYTE      SPI0CN0
      000000B3H   SFRSYM    DATA     BYTE      HFO0CAL
      00000080H   SFRSYM    DATA     BIT       BtnEntGpio
      00000088H.5 SFRSYM    DATA     BIT       TCON_TF0
      00000098H   SFRSYM    DATA     BIT       SCON0_RI
      00000082H   SFRSYM    DATA     BYTE      DPL
      00000088H.7 SFRSYM    DATA     BIT       TCON_TF1
      00000099H   SFRSYM    DATA     BYTE      SBUF0
      00000087H   SFRSYM    DATA     BYTE      PCON0
      000000C3H   SFRSYM    DATA     BYTE      ADC0GTL
      000000C8H.6 SFRSYM    DATA     BIT       TMR2CN0_TF2L
      00000098H.1 SFRSYM    DATA     BIT       SCON0_TI
LX51 LINKER/LOCATER V4.66.66.0                                                        03/09/2017  11:29:19  PAGE 190


      000000E8H   SFRSYM    DATA     BIT       ADC0CN0_ADCM0
      000000D3H   SFRSYM    DATA     BYTE      SBUF1
      000000C6H   SFRSYM    DATA     BYTE      ADC0LTH
      00000088H   SFRSYM    DATA     BIT       TCON_IT0
      000000E8H.1 SFRSYM    DATA     BIT       ADC0CN0_ADCM1
      000000EFH   SFRSYM    DATA     BYTE      RSTSRC
      000000C8H.7 SFRSYM    DATA     BIT       TMR5CN0_TF5H
      000000C8H.3 SFRSYM    DATA     BIT       TMR5CN0_T5SPLIT
      00000088H.2 SFRSYM    DATA     BIT       TCON_IT1
      000000E8H.2 SFRSYM    DATA     BIT       ADC0CN0_ADCM2
      00000098H   SFRSYM    DATA     BYTE      SCON0
      000000E8H.3 SFRSYM    DATA     BIT       ADC0CN0_ADWINT
      000000B4H   SFRSYM    DATA     WORD      SBRL1
      000000E5H   SFRSYM    DATA     BYTE      SMOD1
      000000D2H   SFRSYM    DATA     BYTE      SCON1
      000000BAH   SFRSYM    DATA     BYTE      AMX0N
      000000E8H.4 SFRSYM    DATA     BIT       ADC0CN0_ADBUSY
      000000CEH   SFRSYM    DATA     BYTE      SMB0ADM
      000000C5H   SFRSYM    DATA     BYTE      ADC0LTL
      000000F8H.5 SFRSYM    DATA     BIT       SPI0CN0_MODF
      000000B8H.6 SFRSYM    DATA     BIT       IP_PSPI0
      000000CEH   SFRSYM    DATA     BYTE      SMB1ADM
      000000BBH   SFRSYM    DATA     BYTE      AMX0P
      000000C8H.6 SFRSYM    DATA     BIT       TMR5CN0_TF5L
      000000C8H   SFRSYM    DATA     BYTE      TMR2CN0
      00000091H   SFRSYM    DATA     BYTE      TMR3CN0
      00000080H.1 SFRSYM    DATA     BIT       BtnExtGpio
      00000091H   SFRSYM    DATA     BYTE      TMR4CN0
      000000C8H   SFRSYM    DATA     BYTE      TMR5CN0
      000000CFH   SFRSYM    DATA     BYTE      SMB0ADR
      00000088H.4 SFRSYM    DATA     BIT       TCON_TR0
      000000CFH   SFRSYM    DATA     BYTE      SMB1ADR
      000000C8H.4 SFRSYM    DATA     BIT       TMR2CN0_TF2CEN
      00000088H.6 SFRSYM    DATA     BIT       TCON_TR1
      000000C2H   SFRSYM    DATA     BYTE      SMB0DAT
      00000080H.4 SFRSYM    DATA     BIT       RC_OUT
      000000CDH   SFRSYM    DATA     BYTE      TMR2H
      000000A1H   SFRSYM    DATA     BYTE      SPI0CFG
      000000C2H   SFRSYM    DATA     BYTE      SMB1DAT
      00000095H   SFRSYM    DATA     BYTE      TMR3H
      00000095H   SFRSYM    DATA     BYTE      TMR4H
      000000CDH   SFRSYM    DATA     BYTE      TMR5H
      000000CCH   SFRSYM    DATA     BYTE      TMR2L
      00000090H.5 SFRSYM    DATA     BIT       BtnDwGpio
      000000F8H.7 SFRSYM    DATA     BIT       SPI0CN0_SPIF
      00000096H   SFRSYM    DATA     BYTE      USB0ADR
      00000094H   SFRSYM    DATA     BYTE      TMR3L
      000000A8H.7 SFRSYM    DATA     BIT       IE_EA
      00000094H   SFRSYM    DATA     BYTE      TMR4L
      00000097H   SFRSYM    DATA     BYTE      USB0DAT
      000000CCH   SFRSYM    DATA     BYTE      TMR5L
      000000B6H   SFRSYM    DATA     BYTE      FLSCL
      000000C8H.5 SFRSYM    DATA     BIT       TMR2CN0_TF2LEN
      000000F8H.6 SFRSYM    DATA     BIT       SPI0CN0_WCOL
      000000F8H.2 SFRSYM    DATA     BIT       SPI0CN0_NSSMD0
      000000D0H.7 SFRSYM    DATA     BIT       PSW_CY
      000000A3H   SFRSYM    DATA     BYTE      SPI0DAT
      000000F8H.3 SFRSYM    DATA     BIT       SPI0CN0_NSSMD1
      000000BDH   SFRSYM    DATA     WORD      ADC0
      000000B9H   SFRSYM    DATA     BYTE      SMBTC
      000000D0H   SFRSYM    DATA     BYTE      PSW
      000000C8H.5 SFRSYM    DATA     BIT       TMR5CN0_TF5LEN
      000000B7H   SFRSYM    DATA     BYTE      FLKEY
      00000090H.4 SFRSYM    DATA     BIT       BtnUpGpio

LX51 LINKER/LOCATER V4.66.66.0                                                        03/09/2017  11:29:19  PAGE 191


      0100753CH   BLOCK     CODE     ---       LVL=0
      02000A18H   SYMBOL    XDATA    BYTE      IdxBtn
      0100753CH   LINE      CODE     ---       #3
      01007541H   LINE      CODE     ---       #4
      0100755AH   LINE      CODE     ---       #5
      0100755AH   LINE      CODE     ---       #6
      01007560H   LINE      CODE     ---       #7
      01007563H   LINE      CODE     ---       #8
      01007563H   LINE      CODE     ---       #9
      01007569H   LINE      CODE     ---       #10
      0100756CH   LINE      CODE     ---       #11
      0100756CH   LINE      CODE     ---       #12
      01007572H   LINE      CODE     ---       #13
      01007575H   LINE      CODE     ---       #14
      01007575H   LINE      CODE     ---       #15
      0100757BH   LINE      CODE     ---       #16
      0100757EH   LINE      CODE     ---       #17
      0100757EH   LINE      CODE     ---       #18
      01007580H   LINE      CODE     ---       #19
      ---         BLOCKEND  ---      ---       LVL=0

      ---         MODULE    ---      ---       ?C?FPADD
      0100171BH   PUBLIC    CODE     ---       ?C?FPADD
      01001717H   PUBLIC    CODE     ---       ?C?FPSUB

      ---         MODULE    ---      ---       ?C?FPMUL
      0100180CH   PUBLIC    CODE     ---       ?C?FPMUL

      ---         MODULE    ---      ---       ?C?FPDIV
      01001915H   PUBLIC    CODE     ---       ?C?FPDIV

      ---         MODULE    ---      ---       ?C?FCAST
      010019BCH   PUBLIC    CODE     ---       ?C?FCASTC
      010019B7H   PUBLIC    CODE     ---       ?C?FCASTI
      010019B2H   PUBLIC    CODE     ---       ?C?FCASTL

      ---         MODULE    ---      ---       PRINTF
      02000830H   PUBLIC    XDATA    ---       ?_PRINTF?BYTE
      02000830H   PUBLIC    XDATA    ---       ?_SPRINTF?BYTE
      01002642H   PUBLIC    CODE     ---       _PRINTF
      0100263CH   PUBLIC    CODE     ---       _SPRINTF

      ---         MODULE    ---      ---       ?C?FPGETOPN
      010019F0H   PUBLIC    CODE     ---       ?C?FPGETOPN2
      01001A25H   PUBLIC    CODE     ---       ?C?FPNANRESULT
      01001A2FH   PUBLIC    CODE     ---       ?C?FPOVERFLOW
      01001A07H   PUBLIC    CODE     ---       ?C?FPRESULT
      01001A1BH   PUBLIC    CODE     ---       ?C?FPRESULT2
      01001A2CH   PUBLIC    CODE     ---       ?C?FPUNDERFLOW

      ---         MODULE    ---      ---       ?C?FPROUND
      01001A3AH   PUBLIC    CODE     ---       ?C?FPROUND

      ---         MODULE    ---      ---       ?C?FPCONVERT
      01001A77H   PUBLIC    CODE     ---       ?C?FPCONVERT

      ---         MODULE    ---      ---       ?C?FTNPWR
      01001BACH   PUBLIC    CODE     ---       ?C?FTNPWR

      ---         MODULE    ---      ---       ?C_STARTUP
      01000000H   PUBLIC    CODE     ---       ?C_STARTUP

      ---         MODULE    ---      ---       ?C?CLDPTR
      01001BECH   PUBLIC    CODE     ---       ?C?CLDPTR

LX51 LINKER/LOCATER V4.66.66.0                                                        03/09/2017  11:29:19  PAGE 192


      ---         MODULE    ---      ---       ?C?CLDOPTR
      01001C05H   PUBLIC    CODE     ---       ?C?CLDOPTR

      ---         MODULE    ---      ---       ?C?CILDOPTR
      01001C32H   PUBLIC    CODE     ---       ?C?CILDOPTR

      ---         MODULE    ---      ---       ?C?CSTPTR
      01001C65H   PUBLIC    CODE     ---       ?C?CSTPTR

      ---         MODULE    ---      ---       ?C?CSTOPTR
      01001C77H   PUBLIC    CODE     ---       ?C?CSTOPTR

      ---         MODULE    ---      ---       ?C?IMUL
      01001C99H   PUBLIC    CODE     ---       ?C?IMUL

      ---         MODULE    ---      ---       ?C?UIDIV
      01001CABH   PUBLIC    CODE     ---       ?C?UIDIV

      ---         MODULE    ---      ---       ?C?SIDIV
      01001D00H   PUBLIC    CODE     ---       ?C?SIDIV

      ---         MODULE    ---      ---       ?C?IILDX
      01001D36H   PUBLIC    CODE     ---       ?C?IILDX

      ---         MODULE    ---      ---       ?C?ILDIX
      01001D4CH   PUBLIC    CODE     ---       ?C?ILDIX

      ---         MODULE    ---      ---       ?C?ILDPTR
      01001D62H   PUBLIC    CODE     ---       ?C?ILDPTR

      ---         MODULE    ---      ---       ?C?ILDOPTR
      01001D8DH   PUBLIC    CODE     ---       ?C?ILDOPTR

      ---         MODULE    ---      ---       ?C?IILDPTR
      01001DC5H   PUBLIC    CODE     ---       ?C?IILDPTR

      ---         MODULE    ---      ---       ?C?ISTPTR
      01001DFDH   PUBLIC    CODE     ---       ?C?ISTPTR

      ---         MODULE    ---      ---       ?C?LMUL
      01001E1CH   PUBLIC    CODE     ---       ?C?LMUL

      ---         MODULE    ---      ---       ?C?ULDIV
      01001EA7H   PUBLIC    CODE     ---       ?C?ULDIV

      ---         MODULE    ---      ---       ?C?LNOT
      01001F39H   PUBLIC    CODE     ---       ?C?LNOT

      ---         MODULE    ---      ---       ?C?LNEG
      01001F46H   PUBLIC    CODE     ---       ?C?LNEG

      ---         MODULE    ---      ---       ?C?LSHL
      01001F54H   PUBLIC    CODE     ---       ?C?LSHL

      ---         MODULE    ---      ---       ?C?LSTXDATA
      01001F67H   PUBLIC    CODE     ---       ?C?LSTXDATA

      ---         MODULE    ---      ---       ?C?LSTKXDATA
      01001F73H   PUBLIC    CODE     ---       ?C?LSTKXDATA

      ---         MODULE    ---      ---       ?C?OFFX256
      01001FA4H   PUBLIC    CODE     ---       ?C?OFFX256

      ---         MODULE    ---      ---       ?C?OFFXADD
      01001FB5H   PUBLIC    CODE     ---       ?C?OFFXADD
LX51 LINKER/LOCATER V4.66.66.0                                                        03/09/2017  11:29:19  PAGE 193



      ---         MODULE    ---      ---       ?C?PLDIXDATA
      01001FC1H   PUBLIC    CODE     ---       ?C?PLDIXDATA

      ---         MODULE    ---      ---       ?C?PSTXDATA
      01001FD8H   PUBLIC    CODE     ---       ?C?PSTXDATA

      ---         MODULE    ---      ---       ?C?PLDPTR
      01001FE1H   PUBLIC    CODE     ---       ?C?PLDPTR

      ---         MODULE    ---      ---       ?C?PLDOPTR
      01002001H   PUBLIC    CODE     ---       ?C?PLDOPTR

      ---         MODULE    ---      ---       ?C?CCASE
      01002031H   PUBLIC    CODE     ---       ?C?CCASE

      ---         MODULE    ---      ---       ?C?ICALL
      01002057H   PUBLIC    CODE     ---       ?C?ICALL
      0100205BH   PUBLIC    CODE     ---       ?C?ICALL2

      ---         MODULE    ---      ---       PUTCHAR
      01007837H   PUBLIC    CODE     ---       _PUTCHAR

      ---         MODULE    ---      ---       ABS
      01000076H   PUBLIC    CODE     ---       _ABS

      ---         MODULE    ---      ---       STRLEN
      01007963H   PUBLIC    CODE     ---       _STRLEN

      ---         MODULE    ---      ---       ?C_INIT
      01006C3FH   PUBLIC    CODE     ---       ?C_START

      ---         MODULE    ---      ---       ?C?PLDIDATA
      0100205DH   PUBLIC    CODE     ---       ?C?PLDIDATA

      ---         MODULE    ---      ---       ?C?PLDXDATA
      01002066H   PUBLIC    CODE     ---       ?C?PLDXDATA

      ---         MODULE    ---      ---       ?C?PLDPDATA
      0100206FH   PUBLIC    CODE     ---       ?C?PLDPDATA

      ---         MODULE    ---      ---       ?C?PLDCODE
      01002078H   PUBLIC    CODE     ---       ?C?PLDCODE



INTER-MODULE CROSS-REFERENCE LISTING


NAME . . . . . . . . . . . . . . . . . . . CLASS    MODULE NAMES
================================================================

?_LcdDrawGeChar?BYTE . . . . . . . . . . . XDATA    LCDDRAW  
?_LcdDrawHLine?BYTE. . . . . . . . . . . . XDATA    LCDDRAW  PAGE  PAGELIPOCELLS  PAGESTABILIZERBUILD  
?_LcdDrawInt?BYTE. . . . . . . . . . . . . XDATA    LCDDRAW  PAGE  PAGELIPOCELLS  
?_LcdDrawLine?BYTE . . . . . . . . . . . . XDATA    LCDDRAW  
?_LcdDrawMiniInt?BYTE. . . . . . . . . . . XDATA    LCDDRAW  PAGE  
?_LcdDrawRect?BYTE . . . . . . . . . . . . XDATA    LCDDRAW  PAGE  PAGELIPOCELLS  PAGESTABILIZERBUILD  
?_LcdDrawVLine?BYTE. . . . . . . . . . . . XDATA    LCDDRAW  
?_LcdWriteAscString?BYTE . . . . . . . . . XDATA    LCDBSAE  
?_PageMenuProc?BYTE. . . . . . . . . . . . XDATA    PAGE  PAGEESC  PAGEESC1TH  PAGEESC2TH  PAGEESC3TH  PAGESTABILIZER  P
                                                    AGESTABILIZERMODE  PAGESTABILIZERPITCHGAIN  PAGESTABILIZERROLLGAIN  
                                                    PAGESTABILIZERYAWGAIN  PAGESTEERING  
?_PRINTF?BYTE. . . . . . . . . . . . . . . XDATA    PRINTF  
?_SPRINTF?BYTE . . . . . . . . . . . . . . XDATA    PRINTF  PAGEESC  PAGEESC1TH  PAGEESC2TH  PAGEESC3TH  
LX51 LINKER/LOCATER V4.66.66.0                                                        03/09/2017  11:29:19  PAGE 194


?C?CCASE . . . . . . . . . . . . . . . . . CODE     ?C?CCASE  INPUTBTNBSP  LIPOCELLS  PRINTF  
?C?CILDOPTR. . . . . . . . . . . . . . . . CODE     ?C?CILDOPTR  PAGE  
?C?CLDOPTR . . . . . . . . . . . . . . . . CODE     ?C?CLDOPTR  LCDBSAE  LCDDRAW  PAGE  PRINTF  STABLIZER  
?C?CLDPTR. . . . . . . . . . . . . . . . . CODE     ?C?CLDPTR  LCDBSAE  LCDDRAW  PAGE  PRINTF  STRLEN  
?C?CODESEG . . . . . . . . . . . . . . . . NUMBER   ** LX51 GENERATED **  
?C?CSTOPTR . . . . . . . . . . . . . . . . CODE     ?C?CSTOPTR  PAGE  
?C?CSTPTR. . . . . . . . . . . . . . . . . CODE     ?C?CSTPTR  PAGE  PRINTF  
?C?FCASTC. . . . . . . . . . . . . . . . . CODE     ?C?FCAST  
?C?FCASTI. . . . . . . . . . . . . . . . . CODE     ?C?FCAST  PAGEESC  PAGEESC1TH  PAGEESC2TH  
?C?FCASTL. . . . . . . . . . . . . . . . . CODE     ?C?FCAST  
?C?FPADD . . . . . . . . . . . . . . . . . CODE     ?C?FPADD  ?C?FPCONVERT  PAGEESC  PAGEESC1TH  
?C?FPCONVERT . . . . . . . . . . . . . . . CODE     ?C?FPCONVERT  PRINTF  
?C?FPDIV . . . . . . . . . . . . . . . . . CODE     ?C?FPDIV  ?C?FPCONVERT  PAGEESC  PAGEESC1TH  PAGEESC2TH  
?C?FPGETOPN2 . . . . . . . . . . . . . . . CODE     ?C?FPGETOPN  ?C?FPADD  ?C?FPDIV  ?C?FPMUL  
?C?FPMUL . . . . . . . . . . . . . . . . . CODE     ?C?FPMUL  ?C?FPCONVERT  ?C?FTNPWR  PAGEESC  
?C?FPNANRESULT . . . . . . . . . . . . . . CODE     ?C?FPGETOPN  ?C?FPADD  ?C?FPDIV  ?C?FPMUL  
?C?FPOVERFLOW. . . . . . . . . . . . . . . CODE     ?C?FPGETOPN  ?C?FPADD  ?C?FPDIV  ?C?FPMUL  
?C?FPRESULT. . . . . . . . . . . . . . . . CODE     ?C?FPGETOPN  ?C?FPADD  ?C?FPDIV  ?C?FPMUL  
?C?FPRESULT2 . . . . . . . . . . . . . . . CODE     ?C?FPGETOPN  ?C?FPDIV  ?C?FPMUL  
?C?FPROUND . . . . . . . . . . . . . . . . CODE     ?C?FPROUND  PRINTF  
?C?FPSUB . . . . . . . . . . . . . . . . . CODE     ?C?FPADD  
?C?FPUNDERFLOW . . . . . . . . . . . . . . CODE     ?C?FPGETOPN  ?C?FPADD  ?C?FPDIV  ?C?FPMUL  
?C?FTNPWR. . . . . . . . . . . . . . . . . CODE     ?C?FTNPWR  ?C?FPCONVERT  
?C?ICALL . . . . . . . . . . . . . . . . . CODE     ?C?ICALL  
?C?ICALL2. . . . . . . . . . . . . . . . . CODE     ?C?ICALL  MAIN  PAGE  
?C?IILDPTR . . . . . . . . . . . . . . . . CODE     ?C?IILDPTR  PAGE  
?C?IILDX . . . . . . . . . . . . . . . . . CODE     ?C?IILDX  ?C?IILDPTR  LCDBSAE  LCDDRAW  
?C?ILDIX . . . . . . . . . . . . . . . . . CODE     ?C?ILDIX  LCDDRAW  
?C?ILDOPTR . . . . . . . . . . . . . . . . CODE     ?C?ILDOPTR  ESC  PAGE  STABLIZER  
?C?ILDPTR. . . . . . . . . . . . . . . . . CODE     ?C?ILDPTR  LCDDRAW  PAGE  
?C?IMUL. . . . . . . . . . . . . . . . . . CODE     ?C?IMUL  LCDBSAE  LCDDRAW  PAGE  PAGEESC2TH  STABLIZER  STERRING  
?C?ISTPTR. . . . . . . . . . . . . . . . . CODE     ?C?ISTPTR  PAGE  
?C?LMUL. . . . . . . . . . . . . . . . . . CODE     ?C?LMUL  LIPOCELLS  
?C?LNEG. . . . . . . . . . . . . . . . . . CODE     ?C?LNEG  ?C?FCAST  
?C?LNOT. . . . . . . . . . . . . . . . . . CODE     ?C?LNOT  LCDDRAW  
?C?LSHL. . . . . . . . . . . . . . . . . . CODE     ?C?LSHL  LCDDRAW  
?C?LSTKXDATA . . . . . . . . . . . . . . . CODE     ?C?LSTKXDATA  LCDDRAW  
?C?LSTXDATA. . . . . . . . . . . . . . . . CODE     ?C?LSTXDATA  LCDDRAW  LIPOCELLS  PAGEESC  PAGEESC1TH  PAGEESC2TH  
?C?OFFX256 . . . . . . . . . . . . . . . . CODE     ?C?OFFX256  PAGE  
?C?OFFXADD . . . . . . . . . . . . . . . . CODE     ?C?OFFXADD  LCDDRAW  
?C?PLDCODE . . . . . . . . . . . . . . . . CODE     ?C?PLDCODE  ?C?PLDOPTR  ?C?PLDPTR  
?C?PLDIDATA. . . . . . . . . . . . . . . . CODE     ?C?PLDIDATA  ?C?PLDOPTR  ?C?PLDPTR  
?C?PLDIXDATA . . . . . . . . . . . . . . . CODE     ?C?PLDIXDATA  PRINTF  
?C?PLDOPTR . . . . . . . . . . . . . . . . CODE     ?C?PLDOPTR  PAGE  
?C?PLDPDATA. . . . . . . . . . . . . . . . CODE     ?C?PLDPDATA  ?C?PLDOPTR  ?C?PLDPTR  
?C?PLDPTR. . . . . . . . . . . . . . . . . CODE     ?C?PLDPTR  PAGE  
?C?PLDXDATA. . . . . . . . . . . . . . . . CODE     ?C?PLDXDATA  ?C?PLDOPTR  ?C?PLDPTR  
?C?PSTXDATA. . . . . . . . . . . . . . . . CODE     ?C?PSTXDATA  PRINTF  
?C?SIDIV . . . . . . . . . . . . . . . . . CODE     ?C?SIDIV  LCDDRAW  
?C?UIDIV . . . . . . . . . . . . . . . . . CODE     ?C?UIDIV  ?C?SIDIV  PAGELIPOCELLS  
?C?ULDIV . . . . . . . . . . . . . . . . . CODE     ?C?ULDIV  LIPOCELLS  
?C?XDATASEG. . . . . . . . . . . . . . . . NUMBER   ** LX51 GENERATED **  
?C_START . . . . . . . . . . . . . . . . . CODE     ?C_INIT  ?C_STARTUP  
?C_STARTUP . . . . . . . . . . . . . . . . CODE     ?C_STARTUP  MAIN  
_ABS . . . . . . . . . . . . . . . . . . . CODE     ABS  LCDDRAW  
_BtnClearDown. . . . . . . . . . . . . . . CODE     INPUTBTN  
_BtnGetState . . . . . . . . . . . . . . . CODE     INPUTBTNBSP  INPUTBTN  
_BtnTstDown. . . . . . . . . . . . . . . . CODE     INPUTBTN  PAGE  PAGEESC  PAGEESC1TH  PAGEESC2TH  PAGEESC3TH  PAGELIP
                                                    OCELLS  PAGESTABILIZER  PAGESTABILIZERBUILD  PAGESTABILIZERMODE  PAG
                                                    ESTABILIZERPITCHGAIN  PAGESTABILIZERROLLGAIN  PAGESTABILIZERYAWGAIN 
                                                     PAGESTEERING  
_BtnTstHold. . . . . . . . . . . . . . . . CODE     INPUTBTN  
_BtnTstStat. . . . . . . . . . . . . . . . CODE     INPUTBTN  
_DelayMs . . . . . . . . . . . . . . . . . CODE     GLOBAL  ESC  
_DetectChargeParameter . . . . . . . . . . CODE     STABLIZER  PAGESTABILIZER  PAGESTABILIZERBUILD  PAGESTABILIZERMODE  
LX51 LINKER/LOCATER V4.66.66.0                                                        03/09/2017  11:29:19  PAGE 195


                                                    PAGESTABILIZERPITCHGAIN  PAGESTABILIZERROLLGAIN  PAGESTABILIZERYAWGA
                                                    IN  
_EscDatCharge. . . . . . . . . . . . . . . CODE     ESC  PAGEESC1TH  PAGEESC2TH  PAGEESC3TH  
_Lcd_SetColumn . . . . . . . . . . . . . . CODE     LCDBSAE  
_Lcd_SetPage . . . . . . . . . . . . . . . CODE     LCDBSAE  
_Lcd_SetPageColumn . . . . . . . . . . . . CODE     LCDBSAE  
_LcdDrawAscChar. . . . . . . . . . . . . . CODE     LCDDRAW  
_LcdDrawBmpToArray . . . . . . . . . . . . CODE     LCDDRAW  MAIN  
_LcdDrawChsChar. . . . . . . . . . . . . . CODE     LCDDRAW  
_LcdDrawClr. . . . . . . . . . . . . . . . CODE     LCDDRAW  MAIN  PAGEESC  PAGEESC1TH  PAGEESC2TH  PAGEESC3TH  PAGELIPO
                                                    CELLS  PAGESTABILIZER  PAGESTABILIZERBUILD  PAGESTABILIZERMODE  PAGE
                                                    STABILIZERPITCHGAIN  PAGESTABILIZERROLLGAIN  PAGESTABILIZERYAWGAIN  
                                                    PAGESTEERING  
_LcdDrawGeChar . . . . . . . . . . . . . . CODE     LCDDRAW  
_LcdDrawHLine. . . . . . . . . . . . . . . CODE     LCDDRAW  PAGE  PAGELIPOCELLS  PAGESTABILIZERBUILD  
_LcdDrawInt. . . . . . . . . . . . . . . . CODE     LCDDRAW  PAGE  PAGELIPOCELLS  
_LcdDrawLine . . . . . . . . . . . . . . . CODE     LCDDRAW  
_LcdDrawMiniAsc. . . . . . . . . . . . . . CODE     LCDDRAW  
_LcdDrawMiniBmp. . . . . . . . . . . . . . CODE     LCDDRAW  PAGE  
_LcdDrawMiniInt. . . . . . . . . . . . . . CODE     LCDDRAW  PAGE  
_LcdDrawPixelXY. . . . . . . . . . . . . . CODE     LCDDRAW  
_LcdDrawRect . . . . . . . . . . . . . . . CODE     LCDDRAW  PAGE  PAGELIPOCELLS  PAGESTABILIZERBUILD  
_LcdDrawTextString . . . . . . . . . . . . CODE     LCDDRAW  MAIN  PAGE  PAGEESC  PAGELIPOCELLS  PAGESTABILIZERBUILD  
_LcdDrawVLine. . . . . . . . . . . . . . . CODE     LCDDRAW  
_LcdWriteAscChar . . . . . . . . . . . . . CODE     LCDBSAE  
_LcdWriteAscString . . . . . . . . . . . . CODE     LCDBSAE  
_LcdWriteClr . . . . . . . . . . . . . . . CODE     LCDBSAE  MAIN  
_LcdWriteClrline . . . . . . . . . . . . . CODE     LCDBSAE  
_LcdWriteDatLine . . . . . . . . . . . . . CODE     LCDBSAE  
_PageAutoFly . . . . . . . . . . . . . . . CODE     PAGESTABILIZER  MAIN  
_PageAutoFlyMode . . . . . . . . . . . . . CODE     PAGESTABILIZERMODE  PAGESTABILIZER  
_PageAutoFlyPitchGain. . . . . . . . . . . CODE     PAGESTABILIZERPITCHGAIN  PAGESTABILIZER  
_PageAutoFlyRollGain . . . . . . . . . . . CODE     PAGESTABILIZERROLLGAIN  PAGESTABILIZER  
_PageAutoFlyYawGain. . . . . . . . . . . . CODE     PAGESTABILIZERYAWGAIN  PAGESTABILIZER  
_PageBatVolt . . . . . . . . . . . . . . . CODE     PAGELIPOCELLS  MAIN  
_PageEnter . . . . . . . . . . . . . . . . CODE     PAGE  PAGEESC1TH  PAGEESC2TH  PAGEESC3TH  PAGESTABILIZER  PAGESTABIL
                                                    IZERMODE  PAGESTABILIZERPITCHGAIN  PAGESTABILIZERROLLGAIN  PAGESTABI
                                                    LIZERYAWGAIN  PAGESTEERING  
_PageEsc1th. . . . . . . . . . . . . . . . CODE     PAGEESC1TH  MAIN  
_PageEsc1thRst . . . . . . . . . . . . . . CODE     PAGEESC  PAGEESC1TH  
_PageEsc2th. . . . . . . . . . . . . . . . CODE     PAGEESC2TH  MAIN  
_PageEsc2thRst . . . . . . . . . . . . . . CODE     PAGEESC  PAGEESC2TH  
_PageEsc3th. . . . . . . . . . . . . . . . CODE     PAGEESC3TH  MAIN  
_PageEsc3thAbout . . . . . . . . . . . . . CODE     PAGEESC  PAGEESC3TH  
_PageEsc3thRst . . . . . . . . . . . . . . CODE     PAGEESC  PAGEESC3TH  
_PageEscParam. . . . . . . . . . . . . . . CODE     PAGEESC  PAGEESC1TH  PAGEESC2TH  
_PageGoto. . . . . . . . . . . . . . . . . CODE     PAGE  
_PageInit. . . . . . . . . . . . . . . . . CODE     PAGE  MAIN  
_PageMenuProc. . . . . . . . . . . . . . . CODE     PAGE  PAGEESC  PAGEESC1TH  PAGEESC2TH  PAGEESC3TH  PAGESTABILIZER  P
                                                    AGESTABILIZERMODE  PAGESTABILIZERPITCHGAIN  PAGESTABILIZERROLLGAIN  
                                                    PAGESTABILIZERYAWGAIN  PAGESTEERING  
_PageReturn. . . . . . . . . . . . . . . . CODE     PAGE  PAGEESC  PAGEESC1TH  PAGEESC2TH  PAGEESC3TH  PAGELIPOCELLS  PA
                                                    GESTABILIZER  PAGESTABILIZERBUILD  PAGESTABILIZERMODE  PAGESTABILIZE
                                                    RPITCHGAIN  PAGESTABILIZERROLLGAIN  PAGESTABILIZERYAWGAIN  PAGESTEER
                                                    ING  
_PageStablizerBuild. . . . . . . . . . . . CODE     PAGESTABILIZERBUILD  PAGESTABILIZER  
_PageSterring. . . . . . . . . . . . . . . CODE     PAGESTEERING  MAIN  
_PRINTF. . . . . . . . . . . . . . . . . . CODE     PRINTF  
_PUTCHAR . . . . . . . . . . . . . . . . . CODE     PUTCHAR  PRINTF  
_SPRINTF . . . . . . . . . . . . . . . . . CODE     PRINTF  PAGEESC  PAGEESC1TH  PAGEESC2TH  PAGEESC3TH  
_STRLEN. . . . . . . . . . . . . . . . . . CODE     STRLEN  PAGE  
_SysHandleProcess. . . . . . . . . . . . . CODE     MAIN  
_UART1_Write_Buffer. . . . . . . . . . . . CODE     STABLIZER  
ACC. . . . . . . . . . . . . . . . . . . . DATA     INITDEVICE  
ACC_ACC0 . . . . . . . . . . . . . . . . . DATA     INITDEVICE  
LX51 LINKER/LOCATER V4.66.66.0                                                        03/09/2017  11:29:19  PAGE 196


ACC_ACC1 . . . . . . . . . . . . . . . . . DATA     INITDEVICE  
ACC_ACC2 . . . . . . . . . . . . . . . . . DATA     INITDEVICE  
ACC_ACC3 . . . . . . . . . . . . . . . . . DATA     INITDEVICE  
ACC_ACC4 . . . . . . . . . . . . . . . . . DATA     INITDEVICE  
ACC_ACC5 . . . . . . . . . . . . . . . . . DATA     INITDEVICE  
ACC_ACC6 . . . . . . . . . . . . . . . . . DATA     INITDEVICE  
ACC_ACC7 . . . . . . . . . . . . . . . . . DATA     INITDEVICE  
ADC0 . . . . . . . . . . . . . . . . . . . DATA     INITDEVICE  
ADC0CF . . . . . . . . . . . . . . . . . . DATA     INITDEVICE  
ADC0CN0. . . . . . . . . . . . . . . . . . DATA     INITDEVICE  
ADC0CN0_ADBUSY . . . . . . . . . . . . . . DATA     INITDEVICE  
ADC0CN0_ADCM0. . . . . . . . . . . . . . . DATA     INITDEVICE  
ADC0CN0_ADCM1. . . . . . . . . . . . . . . DATA     INITDEVICE  
ADC0CN0_ADCM2. . . . . . . . . . . . . . . DATA     INITDEVICE  
ADC0CN0_ADEN . . . . . . . . . . . . . . . DATA     INITDEVICE  
ADC0CN0_ADINT. . . . . . . . . . . . . . . DATA     INITDEVICE  
ADC0CN0_ADTM . . . . . . . . . . . . . . . DATA     INITDEVICE  
ADC0CN0_ADWINT . . . . . . . . . . . . . . DATA     INITDEVICE  
ADC0EOC_ISR. . . . . . . . . . . . . . . . CODE     LIPOCELLS  
ADC0GT . . . . . . . . . . . . . . . . . . DATA     INITDEVICE  
ADC0GTH. . . . . . . . . . . . . . . . . . DATA     INITDEVICE  
ADC0GTL. . . . . . . . . . . . . . . . . . DATA     INITDEVICE  
ADC0H. . . . . . . . . . . . . . . . . . . DATA     INITDEVICE  
ADC0L. . . . . . . . . . . . . . . . . . . DATA     INITDEVICE  
ADC0LT . . . . . . . . . . . . . . . . . . DATA     INITDEVICE  
ADC0LTH. . . . . . . . . . . . . . . . . . DATA     INITDEVICE  
ADC0LTL. . . . . . . . . . . . . . . . . . DATA     INITDEVICE  
ADC_0_enter_DefaultMode_from_RESET . . . . CODE     INITDEVICE  
AdcCovEnTrigger. . . . . . . . . . . . . . XDATA    LIPOCELLS  PAGELIPOCELLS  
AdcCovOkFlag . . . . . . . . . . . . . . . XDATA    LIPOCELLS  PAGELIPOCELLS  
AdcValue . . . . . . . . . . . . . . . . . XDATA    LIPOCELLS  
AdcVoltage . . . . . . . . . . . . . . . . XDATA    LIPOCELLS  
AMX0N. . . . . . . . . . . . . . . . . . . DATA     INITDEVICE  
AMX0P. . . . . . . . . . . . . . . . . . . DATA     INITDEVICE  
AscFontTableMask . . . . . . . . . . . . . CONST    PAGERES  LCDBSAE  LCDDRAW  
AutoFlyModeMs. . . . . . . . . . . . . . . XDATA    PAGESTABILIZERMODE  PAGE  
AutoFlyMs. . . . . . . . . . . . . . . . . XDATA    PAGESTABILIZER  PAGE  
AutoFlyPitchGainMs . . . . . . . . . . . . XDATA    PAGESTABILIZERPITCHGAIN  PAGE  
AutoFlyRollGainMs. . . . . . . . . . . . . XDATA    PAGESTABILIZERROLLGAIN  PAGE  
AutoFlyYawGainMs . . . . . . . . . . . . . XDATA    PAGESTABILIZERYAWGAIN  PAGE  
B. . . . . . . . . . . . . . . . . . . . . DATA     INITDEVICE  
B_B0 . . . . . . . . . . . . . . . . . . . DATA     INITDEVICE  
B_B1 . . . . . . . . . . . . . . . . . . . DATA     INITDEVICE  
B_B2 . . . . . . . . . . . . . . . . . . . DATA     INITDEVICE  
B_B3 . . . . . . . . . . . . . . . . . . . DATA     INITDEVICE  
B_B4 . . . . . . . . . . . . . . . . . . . DATA     INITDEVICE  
B_B5 . . . . . . . . . . . . . . . . . . . DATA     INITDEVICE  
B_B6 . . . . . . . . . . . . . . . . . . . DATA     INITDEVICE  
B_B7 . . . . . . . . . . . . . . . . . . . DATA     INITDEVICE  
BatVoltage . . . . . . . . . . . . . . . . XDATA    LIPOCELLS  PAGELIPOCELLS  
BtnCnt . . . . . . . . . . . . . . . . . . XDATA    INPUTBTN  
BtnDatInit . . . . . . . . . . . . . . . . CODE     INPUTBTN  MAIN  
BtnDown. . . . . . . . . . . . . . . . . . XDATA    INPUTBTN  
BtnDownBuffer. . . . . . . . . . . . . . . XDATA    INPUTBTN  
BtnDwGpio. . . . . . . . . . . . . . . . . DATA     MAIN  
BtnEntGpio . . . . . . . . . . . . . . . . DATA     MAIN  
BtnExtGpio . . . . . . . . . . . . . . . . DATA     MAIN  
BtnFlush . . . . . . . . . . . . . . . . . CODE     INPUTBTN  
BtnHold. . . . . . . . . . . . . . . . . . XDATA    INPUTBTN  
BtnHoldBuffer. . . . . . . . . . . . . . . XDATA    INPUTBTN  
BtnScanHandle. . . . . . . . . . . . . . . CODE     INPUTBTN  GLOBAL  
BtnStat. . . . . . . . . . . . . . . . . . XDATA    INPUTBTN  
BtnStopCnt . . . . . . . . . . . . . . . . CODE     INPUTBTN  
BtnTickCnt . . . . . . . . . . . . . . . . DATA     INPUTBTN  
BtnTickOverFlow. . . . . . . . . . . . . . DATA     INPUTBTN  
LX51 LINKER/LOCATER V4.66.66.0                                                        03/09/2017  11:29:19  PAGE 197


BtnTmpCache. . . . . . . . . . . . . . . . XDATA    INPUTBTN  
BtnUpdate. . . . . . . . . . . . . . . . . XDATA    INPUTBTN  
BtnUpGpio. . . . . . . . . . . . . . . . . DATA     MAIN  
ChsFontTableMask . . . . . . . . . . . . . CONST    PAGERES  LCDDRAW  
CKCON0 . . . . . . . . . . . . . . . . . . DATA     INITDEVICE  
CKCON1 . . . . . . . . . . . . . . . . . . DATA     INITDEVICE  
CLKSEL . . . . . . . . . . . . . . . . . . DATA     INITDEVICE  
CLOCK_0_enter_DefaultMode_from_RESET . . . CODE     INITDEVICE  
CMP0CN0. . . . . . . . . . . . . . . . . . DATA     INITDEVICE  
CMP0MD . . . . . . . . . . . . . . . . . . DATA     INITDEVICE  
CMP0MX . . . . . . . . . . . . . . . . . . DATA     INITDEVICE  
CMP1CN0. . . . . . . . . . . . . . . . . . DATA     INITDEVICE  
CMP1MD . . . . . . . . . . . . . . . . . . DATA     INITDEVICE  
CMP1MX . . . . . . . . . . . . . . . . . . DATA     INITDEVICE  
DataPulseCnt . . . . . . . . . . . . . . . DATA     ESC  
DetectStablizerTickCnt . . . . . . . . . . DATA     STABLIZER  
DetectStablizerTickOverFlow. . . . . . . . DATA     STABLIZER  
DP . . . . . . . . . . . . . . . . . . . . DATA     INITDEVICE  
DPH. . . . . . . . . . . . . . . . . . . . DATA     INITDEVICE  
DPL. . . . . . . . . . . . . . . . . . . . DATA     INITDEVICE  
EIE1 . . . . . . . . . . . . . . . . . . . DATA     INITDEVICE  
EIE2 . . . . . . . . . . . . . . . . . . . DATA     INITDEVICE  
EIP1 . . . . . . . . . . . . . . . . . . . DATA     INITDEVICE  
EIP2 . . . . . . . . . . . . . . . . . . . DATA     INITDEVICE  
EMI0CF . . . . . . . . . . . . . . . . . . DATA     INITDEVICE  
EMI0CN . . . . . . . . . . . . . . . . . . DATA     INITDEVICE  
EMI0TC . . . . . . . . . . . . . . . . . . DATA     INITDEVICE  
enter_DefaultMode_from_RESET . . . . . . . CODE     INITDEVICE  MAIN  
Esc1thDatProccess. . . . . . . . . . . . . CODE     PAGEESC1TH  
Esc1thMs . . . . . . . . . . . . . . . . . XDATA    PAGEESC1TH  PAGE  
Esc2thDatPreproccess . . . . . . . . . . . CODE     PAGEESC2TH  
Esc2thMs . . . . . . . . . . . . . . . . . XDATA    PAGEESC2TH  PAGE  
Esc3thDatProccess. . . . . . . . . . . . . CODE     PAGEESC3TH  
Esc3thMs . . . . . . . . . . . . . . . . . XDATA    PAGEESC3TH  PAGE  
EscDatInit . . . . . . . . . . . . . . . . CODE     ESC  MAIN  
EscDatSum. . . . . . . . . . . . . . . . . XDATA    ESC  
EscDatSumPre . . . . . . . . . . . . . . . XDATA    ESC  
EscDetect. . . . . . . . . . . . . . . . . CODE     ESC  MAIN  
EscMs. . . . . . . . . . . . . . . . . . . XDATA    PAGEESC  PAGE  
EscParam . . . . . . . . . . . . . . . . . XDATA    ESC  MAIN  PAGEESC  PAGEESC1TH  PAGEESC2TH  PAGEESC3TH  
EscTxParam . . . . . . . . . . . . . . . . XDATA    ESC  PAGEESC1TH  PAGEESC2TH  PAGEESC3TH  
EXTINT_0_enter_DefaultMode_from_RESET. . . CODE     INITDEVICE  
FLKEY. . . . . . . . . . . . . . . . . . . DATA     INITDEVICE  
FLSCL. . . . . . . . . . . . . . . . . . . DATA     INITDEVICE  
HFO0CAL. . . . . . . . . . . . . . . . . . DATA     INITDEVICE  
HFO0CN . . . . . . . . . . . . . . . . . . DATA     INITDEVICE  
HFOSC_0_enter_DefaultMode_from_RESET . . . CODE     INITDEVICE  
i. . . . . . . . . . . . . . . . . . . . . XDATA    LIPOCELLS  
IdxChs . . . . . . . . . . . . . . . . . . XDATA    LIPOCELLS  
IdxStatue. . . . . . . . . . . . . . . . . XDATA    PAGESTABILIZERBUILD  
IE . . . . . . . . . . . . . . . . . . . . DATA     INITDEVICE  
IE_EA. . . . . . . . . . . . . . . . . . . DATA     INITDEVICE  
IE_ES0 . . . . . . . . . . . . . . . . . . DATA     INITDEVICE  
IE_ESPI0 . . . . . . . . . . . . . . . . . DATA     INITDEVICE  
IE_ET0 . . . . . . . . . . . . . . . . . . DATA     INITDEVICE  
IE_ET1 . . . . . . . . . . . . . . . . . . DATA     INITDEVICE  
IE_ET2 . . . . . . . . . . . . . . . . . . DATA     INITDEVICE  
IE_EX0 . . . . . . . . . . . . . . . . . . DATA     INITDEVICE  
IE_EX1 . . . . . . . . . . . . . . . . . . DATA     INITDEVICE  
InitPulseCnt . . . . . . . . . . . . . . . DATA     ESC  
InPulseIdx . . . . . . . . . . . . . . . . XDATA    ESC  
INT0_ISR . . . . . . . . . . . . . . . . . CODE     ESC  
INTERRUPT_0_enter_DefaultMode_from_RESET . CODE     INITDEVICE  
IP . . . . . . . . . . . . . . . . . . . . DATA     INITDEVICE  
IP_PS0 . . . . . . . . . . . . . . . . . . DATA     INITDEVICE  
LX51 LINKER/LOCATER V4.66.66.0                                                        03/09/2017  11:29:19  PAGE 198


IP_PSPI0 . . . . . . . . . . . . . . . . . DATA     INITDEVICE  
IP_PT0 . . . . . . . . . . . . . . . . . . DATA     INITDEVICE  
IP_PT1 . . . . . . . . . . . . . . . . . . DATA     INITDEVICE  
IP_PT2 . . . . . . . . . . . . . . . . . . DATA     INITDEVICE  
IP_PX0 . . . . . . . . . . . . . . . . . . DATA     INITDEVICE  
IP_PX1 . . . . . . . . . . . . . . . . . . DATA     INITDEVICE  
IT01CF . . . . . . . . . . . . . . . . . . DATA     INITDEVICE  
LCD_CS . . . . . . . . . . . . . . . . . . DATA     MAIN  
Lcd_Init . . . . . . . . . . . . . . . . . CODE     LCDBSAE  MAIN  
LCD_RS . . . . . . . . . . . . . . . . . . DATA     MAIN  
LCD_RST. . . . . . . . . . . . . . . . . . DATA     MAIN  
LCD_SCK. . . . . . . . . . . . . . . . . . DATA     MAIN  
LCD_SDA. . . . . . . . . . . . . . . . . . DATA     MAIN  
LcdBw. . . . . . . . . . . . . . . . . . . XDATA    LCDDRAW  PAGE  
LcdDatInit . . . . . . . . . . . . . . . . CODE     LCDDRAW  
LcdDir . . . . . . . . . . . . . . . . . . XDATA    LCDDRAW  
LcdDispBuf . . . . . . . . . . . . . . . . XDATA    LCDDRAW  LCDBSAE  
LcdDispImg . . . . . . . . . . . . . . . . XDATA    LCDDRAW  LCDBSAE  
LcdDrawBufferRefresh . . . . . . . . . . . CODE     LCDBSAE  MAIN  PAGE  PAGEESC  PAGELIPOCELLS  PAGESTABILIZERBUILD  
LcdDrawInit. . . . . . . . . . . . . . . . CODE     LCDDRAW  
LcdLeft. . . . . . . . . . . . . . . . . . XDATA    LCDDRAW  
LcdRight . . . . . . . . . . . . . . . . . XDATA    LCDDRAW  
LcdXpos. . . . . . . . . . . . . . . . . . XDATA    LCDDRAW  
LcdYpos. . . . . . . . . . . . . . . . . . XDATA    LCDDRAW  
LFO0CN . . . . . . . . . . . . . . . . . . DATA     INITDEVICE  
LipoCellsDatInit . . . . . . . . . . . . . CODE     LIPOCELLS  MAIN  
LipoCellsDetect. . . . . . . . . . . . . . CODE     LIPOCELLS  MAIN  
LipoCellsEscMs . . . . . . . . . . . . . . XDATA    PAGELIPOCELLS  PAGE  
LipoCellsProcessHandle . . . . . . . . . . CODE     LIPOCELLS  MAIN  
main . . . . . . . . . . . . . . . . . . . CODE     MAIN  ?C_INIT  
MaxCurr. . . . . . . . . . . . . . . . . . XDATA    PAGEESC  
MaxTemp. . . . . . . . . . . . . . . . . . XDATA    PAGEESC  
MenuItemAutoFly. . . . . . . . . . . . . . CONST    PAGESTABILIZER  
MenuItemAutoFlyMode. . . . . . . . . . . . CONST    PAGESTABILIZERMODE  
MenuItemAutoFlyPitchGain . . . . . . . . . CONST    PAGESTABILIZERPITCHGAIN  
MenuItemAutoFlyRollGain. . . . . . . . . . CONST    PAGESTABILIZERROLLGAIN  
MenuItemAutoFlyYawGain . . . . . . . . . . CONST    PAGESTABILIZERYAWGAIN  
MenuItemEsc1th . . . . . . . . . . . . . . CONST    PAGEESC1TH  
MenuItemEsc2th . . . . . . . . . . . . . . CONST    PAGEESC2TH  
MenuItemEsc3th . . . . . . . . . . . . . . CONST    PAGEESC3TH  
MenuItemParamEsc . . . . . . . . . . . . . CONST    PAGEESC  
MenuItemSterring . . . . . . . . . . . . . CONST    PAGESTEERING  
MinFontTableMask . . . . . . . . . . . . . CONST    PAGERES  LCDDRAW  
MinVolt. . . . . . . . . . . . . . . . . . XDATA    PAGEESC  
OutPulseIdx. . . . . . . . . . . . . . . . XDATA    ESC  
P0 . . . . . . . . . . . . . . . . . . . . DATA     INITDEVICE  
P0_B0. . . . . . . . . . . . . . . . . . . DATA     INITDEVICE  
P0_B1. . . . . . . . . . . . . . . . . . . DATA     INITDEVICE  
P0_B2. . . . . . . . . . . . . . . . . . . DATA     INITDEVICE  
P0_B3. . . . . . . . . . . . . . . . . . . DATA     INITDEVICE  
P0_B4. . . . . . . . . . . . . . . . . . . DATA     INITDEVICE  
P0_B5. . . . . . . . . . . . . . . . . . . DATA     INITDEVICE  
P0_B6. . . . . . . . . . . . . . . . . . . DATA     INITDEVICE  
P0_B7. . . . . . . . . . . . . . . . . . . DATA     INITDEVICE  
P0MDIN . . . . . . . . . . . . . . . . . . DATA     INITDEVICE  
P0MDOUT. . . . . . . . . . . . . . . . . . DATA     INITDEVICE  
P0SKIP . . . . . . . . . . . . . . . . . . DATA     INITDEVICE  
P1 . . . . . . . . . . . . . . . . . . . . DATA     INITDEVICE  
P1_B0. . . . . . . . . . . . . . . . . . . DATA     INITDEVICE  
P1_B1. . . . . . . . . . . . . . . . . . . DATA     INITDEVICE  
P1_B2. . . . . . . . . . . . . . . . . . . DATA     INITDEVICE  
P1_B3. . . . . . . . . . . . . . . . . . . DATA     INITDEVICE  
P1_B4. . . . . . . . . . . . . . . . . . . DATA     INITDEVICE  
P1_B5. . . . . . . . . . . . . . . . . . . DATA     INITDEVICE  
P1_B6. . . . . . . . . . . . . . . . . . . DATA     INITDEVICE  
LX51 LINKER/LOCATER V4.66.66.0                                                        03/09/2017  11:29:19  PAGE 199


P1_B7. . . . . . . . . . . . . . . . . . . DATA     INITDEVICE  
P1MDIN . . . . . . . . . . . . . . . . . . DATA     INITDEVICE  
P1MDOUT. . . . . . . . . . . . . . . . . . DATA     INITDEVICE  
P1SKIP . . . . . . . . . . . . . . . . . . DATA     INITDEVICE  
P2 . . . . . . . . . . . . . . . . . . . . DATA     INITDEVICE  
P2_B0. . . . . . . . . . . . . . . . . . . DATA     INITDEVICE  
P2_B1. . . . . . . . . . . . . . . . . . . DATA     INITDEVICE  
P2_B2. . . . . . . . . . . . . . . . . . . DATA     INITDEVICE  
P2_B3. . . . . . . . . . . . . . . . . . . DATA     INITDEVICE  
P2_B4. . . . . . . . . . . . . . . . . . . DATA     INITDEVICE  
P2_B5. . . . . . . . . . . . . . . . . . . DATA     INITDEVICE  
P2_B6. . . . . . . . . . . . . . . . . . . DATA     INITDEVICE  
P2_B7. . . . . . . . . . . . . . . . . . . DATA     INITDEVICE  
P2MDIN . . . . . . . . . . . . . . . . . . DATA     INITDEVICE  
P2MDOUT. . . . . . . . . . . . . . . . . . DATA     INITDEVICE  
P2SKIP . . . . . . . . . . . . . . . . . . DATA     INITDEVICE  
P3 . . . . . . . . . . . . . . . . . . . . DATA     INITDEVICE  
P3_B0. . . . . . . . . . . . . . . . . . . DATA     INITDEVICE  
P3_B1. . . . . . . . . . . . . . . . . . . DATA     INITDEVICE  
P3_B2. . . . . . . . . . . . . . . . . . . DATA     INITDEVICE  
P3_B3. . . . . . . . . . . . . . . . . . . DATA     INITDEVICE  
P3_B4. . . . . . . . . . . . . . . . . . . DATA     INITDEVICE  
P3_B5. . . . . . . . . . . . . . . . . . . DATA     INITDEVICE  
P3_B6. . . . . . . . . . . . . . . . . . . DATA     INITDEVICE  
P3_B7. . . . . . . . . . . . . . . . . . . DATA     INITDEVICE  
P3MDIN . . . . . . . . . . . . . . . . . . DATA     INITDEVICE  
P3MDOUT. . . . . . . . . . . . . . . . . . DATA     INITDEVICE  
P3SKIP . . . . . . . . . . . . . . . . . . DATA     INITDEVICE  
P4 . . . . . . . . . . . . . . . . . . . . DATA     INITDEVICE  
P4MDIN . . . . . . . . . . . . . . . . . . DATA     INITDEVICE  
P4MDOUT. . . . . . . . . . . . . . . . . . DATA     INITDEVICE  
PageMainBmp. . . . . . . . . . . . . . . . CONST    PAGERES  MAIN  
PageMenuStatDatInit. . . . . . . . . . . . CODE     PAGE  MAIN  
PageOptionAutoFlyPitchGain . . . . . . . . CONST    PAGESTABILIZERPITCHGAIN  
PageOptionAutoFlyYawGain . . . . . . . . . CONST    PAGESTABILIZERYAWGAIN  
PageOptionFlyMode. . . . . . . . . . . . . CONST    PAGESTABILIZERMODE  
PageOptionGainDir. . . . . . . . . . . . . CONST    PAGESTABILIZERROLLGAIN  
PageOptionMountingDir. . . . . . . . . . . CONST    PAGESTABILIZER  
PageOptionSterringMode . . . . . . . . . . CONST    PAGESTEERING  
PageOptionSwitch . . . . . . . . . . . . . CONST    PAGESTABILIZERMODE  
PageOptionWingType . . . . . . . . . . . . CONST    PAGESTABILIZER  
PageStablizerBindTickCnt . . . . . . . . . DATA     PAGESTABILIZERBUILD  
PageStablizerBindTickOverFlow. . . . . . . DATA     PAGESTABILIZERBUILD  
PageStack. . . . . . . . . . . . . . . . . DATA     PAGE  MAIN  
PageStackIdx . . . . . . . . . . . . . . . DATA     PAGE  MAIN  
ParamEscDatProccess. . . . . . . . . . . . CODE     PAGEESC  
PBCFG_0_enter_DefaultMode_from_RESET . . . CODE     INITDEVICE  
PCA0 . . . . . . . . . . . . . . . . . . . DATA     INITDEVICE  
PCA0CN0. . . . . . . . . . . . . . . . . . DATA     INITDEVICE  
PCA0CN0_CCF0 . . . . . . . . . . . . . . . DATA     INITDEVICE  
PCA0CN0_CCF1 . . . . . . . . . . . . . . . DATA     INITDEVICE  
PCA0CN0_CCF2 . . . . . . . . . . . . . . . DATA     INITDEVICE  
PCA0CN0_CCF3 . . . . . . . . . . . . . . . DATA     INITDEVICE  
PCA0CN0_CCF4 . . . . . . . . . . . . . . . DATA     INITDEVICE  
PCA0CN0_CF . . . . . . . . . . . . . . . . DATA     INITDEVICE  
PCA0CN0_CR . . . . . . . . . . . . . . . . DATA     INITDEVICE  
PCA0CP0. . . . . . . . . . . . . . . . . . DATA     INITDEVICE  
PCA0CP1. . . . . . . . . . . . . . . . . . DATA     INITDEVICE  
PCA0CP2. . . . . . . . . . . . . . . . . . DATA     INITDEVICE  
PCA0CP3. . . . . . . . . . . . . . . . . . DATA     INITDEVICE  
PCA0CP4. . . . . . . . . . . . . . . . . . DATA     INITDEVICE  
PCA0CPH0 . . . . . . . . . . . . . . . . . DATA     INITDEVICE  
PCA0CPH1 . . . . . . . . . . . . . . . . . DATA     INITDEVICE  
PCA0CPH2 . . . . . . . . . . . . . . . . . DATA     INITDEVICE  
PCA0CPH3 . . . . . . . . . . . . . . . . . DATA     INITDEVICE  
LX51 LINKER/LOCATER V4.66.66.0                                                        03/09/2017  11:29:19  PAGE 200


PCA0CPH4 . . . . . . . . . . . . . . . . . DATA     INITDEVICE  
PCA0CPL0 . . . . . . . . . . . . . . . . . DATA     INITDEVICE  
PCA0CPL1 . . . . . . . . . . . . . . . . . DATA     INITDEVICE  
PCA0CPL2 . . . . . . . . . . . . . . . . . DATA     INITDEVICE  
PCA0CPL3 . . . . . . . . . . . . . . . . . DATA     INITDEVICE  
PCA0CPL4 . . . . . . . . . . . . . . . . . DATA     INITDEVICE  
PCA0CPM0 . . . . . . . . . . . . . . . . . DATA     INITDEVICE  
PCA0CPM1 . . . . . . . . . . . . . . . . . DATA     INITDEVICE  
PCA0CPM2 . . . . . . . . . . . . . . . . . DATA     INITDEVICE  
PCA0CPM3 . . . . . . . . . . . . . . . . . DATA     INITDEVICE  
PCA0CPM4 . . . . . . . . . . . . . . . . . DATA     INITDEVICE  
PCA0H. . . . . . . . . . . . . . . . . . . DATA     INITDEVICE  
PCA0L. . . . . . . . . . . . . . . . . . . DATA     INITDEVICE  
PCA0MD . . . . . . . . . . . . . . . . . . DATA     INITDEVICE  
PCA_0_enter_DefaultMode_from_RESET . . . . CODE     INITDEVICE  
PCACH_0_enter_DefaultMode_from_RESET . . . CODE     INITDEVICE  
PCACH_4_enter_DefaultMode_from_RESET . . . CODE     INITDEVICE  
PCON0. . . . . . . . . . . . . . . . . . . DATA     INITDEVICE  
PFE0CN . . . . . . . . . . . . . . . . . . DATA     INITDEVICE  
PgmStatus. . . . . . . . . . . . . . . . . XDATA    ESC  PAGEESC1TH  PAGEESC2TH  PAGEESC3TH  
PORTS_0_enter_DefaultMode_from_RESET . . . CODE     INITDEVICE  
PORTS_1_enter_DefaultMode_from_RESET . . . CODE     INITDEVICE  
PORTS_2_enter_DefaultMode_from_RESET . . . CODE     INITDEVICE  
PSCTL. . . . . . . . . . . . . . . . . . . DATA     INITDEVICE  
PSW. . . . . . . . . . . . . . . . . . . . DATA     INITDEVICE  
PSW_AC . . . . . . . . . . . . . . . . . . DATA     INITDEVICE  
PSW_CY . . . . . . . . . . . . . . . . . . DATA     INITDEVICE  
PSW_F0 . . . . . . . . . . . . . . . . . . DATA     INITDEVICE  
PSW_F1 . . . . . . . . . . . . . . . . . . DATA     INITDEVICE  
PSW_OV . . . . . . . . . . . . . . . . . . DATA     INITDEVICE  
PSW_PARITY . . . . . . . . . . . . . . . . DATA     INITDEVICE  
PSW_RS0. . . . . . . . . . . . . . . . . . DATA     INITDEVICE  
PSW_RS1. . . . . . . . . . . . . . . . . . DATA     INITDEVICE  
PwmOnRef . . . . . . . . . . . . . . . . . DATA     ESC  
PwmOutCnt. . . . . . . . . . . . . . . . . DATA     ESC  
PwmOutNum. . . . . . . . . . . . . . . . . DATA     ESC  
RC_OUT . . . . . . . . . . . . . . . . . . DATA     MAIN  
REF0CN . . . . . . . . . . . . . . . . . . DATA     INITDEVICE  
REG01CN. . . . . . . . . . . . . . . . . . DATA     INITDEVICE  
RSTSRC . . . . . . . . . . . . . . . . . . DATA     INITDEVICE  
RxDataEnable . . . . . . . . . . . . . . . XDATA    ESC  
RxDatHandle. . . . . . . . . . . . . . . . XDATA    STABLIZER  
RxPackageCnt . . . . . . . . . . . . . . . XDATA    STABLIZER  
RxPackageData. . . . . . . . . . . . . . . XDATA    STABLIZER  
RxPackageLength. . . . . . . . . . . . . . XDATA    STABLIZER  
RxSocketDat. . . . . . . . . . . . . . . . XDATA    STABLIZER  
RxSocketDeCode . . . . . . . . . . . . . . CODE     STABLIZER  
RxSocketHandler. . . . . . . . . . . . . . CODE     STABLIZER  
RxStatusIdx. . . . . . . . . . . . . . . . XDATA    STABLIZER  
RxTxStatue . . . . . . . . . . . . . . . . XDATA    STABLIZER  
SBCON1 . . . . . . . . . . . . . . . . . . DATA     INITDEVICE  
SBRL1. . . . . . . . . . . . . . . . . . . DATA     INITDEVICE  
SBRLH1 . . . . . . . . . . . . . . . . . . DATA     INITDEVICE  
SBRLL1 . . . . . . . . . . . . . . . . . . DATA     INITDEVICE  
SBUF0. . . . . . . . . . . . . . . . . . . DATA     INITDEVICE  
SBUF1. . . . . . . . . . . . . . . . . . . DATA     INITDEVICE  
SCON0. . . . . . . . . . . . . . . . . . . DATA     INITDEVICE  
SCON0_MCE. . . . . . . . . . . . . . . . . DATA     INITDEVICE  
SCON0_RB8. . . . . . . . . . . . . . . . . DATA     INITDEVICE  
SCON0_REN. . . . . . . . . . . . . . . . . DATA     INITDEVICE  
SCON0_RI . . . . . . . . . . . . . . . . . DATA     INITDEVICE  
SCON0_SMODE. . . . . . . . . . . . . . . . DATA     INITDEVICE  
SCON0_TB8. . . . . . . . . . . . . . . . . DATA     INITDEVICE  
SCON0_TI . . . . . . . . . . . . . . . . . DATA     INITDEVICE  
SCON1. . . . . . . . . . . . . . . . . . . DATA     INITDEVICE  
LX51 LINKER/LOCATER V4.66.66.0                                                        03/09/2017  11:29:19  PAGE 201


SFRPAGE. . . . . . . . . . . . . . . . . . DATA     INITDEVICE  
ShowText1thActiveFw. . . . . . . . . . . . XDATA    PAGEESC1TH  
ShowText1thAirBecVoltage . . . . . . . . . XDATA    PAGEESC1TH  
ShowText1thAirCutVoltage . . . . . . . . . XDATA    PAGEESC1TH  
ShowText1thAirLipoCells. . . . . . . . . . XDATA    PAGEESC1TH  
ShowText1thArReStartTime . . . . . . . . . XDATA    PAGEESC1TH  
ShowText1thArTime. . . . . . . . . . . . . XDATA    PAGEESC1TH  
ShowText1thBrakeForce. . . . . . . . . . . XDATA    PAGEESC1TH  
ShowText1thBrakeType . . . . . . . . . . . XDATA    PAGEESC1TH  
ShowText1thCutType . . . . . . . . . . . . XDATA    PAGEESC1TH  
ShowText1thFlightMode. . . . . . . . . . . XDATA    PAGEESC1TH  
ShowText1thGovParamI . . . . . . . . . . . XDATA    PAGEESC1TH  
ShowText1thGovParamP . . . . . . . . . . . XDATA    PAGEESC1TH  
ShowText1thRotateDirection . . . . . . . . XDATA    PAGEESC1TH  
ShowText1thStartUpTime . . . . . . . . . . XDATA    PAGEESC1TH  
ShowText1thTiming. . . . . . . . . . . . . XDATA    PAGEESC1TH  
ShowText2thBecVoltage. . . . . . . . . . . XDATA    PAGEESC2TH  
ShowText2thCutVoltage. . . . . . . . . . . XDATA    PAGEESC2TH  
ShowText2thDragBrake . . . . . . . . . . . XDATA    PAGEESC2TH  
ShowText2thEscThermal. . . . . . . . . . . XDATA    PAGEESC2TH  
ShowText2thLipoCells . . . . . . . . . . . XDATA    PAGEESC2TH  
ShowText2thMaxBrake. . . . . . . . . . . . XDATA    PAGEESC2TH  
ShowText2thMaxReverse. . . . . . . . . . . XDATA    PAGEESC2TH  
ShowText2thPunch . . . . . . . . . . . . . XDATA    PAGEESC2TH  
ShowText2thRunMode . . . . . . . . . . . . XDATA    PAGEESC2TH  
ShowText3thBatteryType . . . . . . . . . . XDATA    PAGEESC3TH  
ShowText3thBrake . . . . . . . . . . . . . XDATA    PAGEESC3TH  
ShowText3thCutOffType. . . . . . . . . . . XDATA    PAGEESC3TH  
ShowText3thCutOffVoltage . . . . . . . . . XDATA    PAGEESC3TH  
ShowText3thFirmware. . . . . . . . . . . . XDATA    PAGEESC  
ShowText3thHardware. . . . . . . . . . . . XDATA    PAGEESC  
ShowText3thSoftWare. . . . . . . . . . . . XDATA    PAGEESC  
ShowText3thStartMode . . . . . . . . . . . XDATA    PAGEESC3TH  
ShowText3thTimingMode. . . . . . . . . . . XDATA    PAGEESC3TH  
ShowTextMaxCurr. . . . . . . . . . . . . . XDATA    PAGEESC  
ShowTextMaxTemp. . . . . . . . . . . . . . XDATA    PAGEESC  
ShowTextMinVolt. . . . . . . . . . . . . . XDATA    PAGEESC  
SMB0ADM. . . . . . . . . . . . . . . . . . DATA     INITDEVICE  
SMB0ADR. . . . . . . . . . . . . . . . . . DATA     INITDEVICE  
SMB0CF . . . . . . . . . . . . . . . . . . DATA     INITDEVICE  
SMB0CN0. . . . . . . . . . . . . . . . . . DATA     INITDEVICE  
SMB0CN0_ACK. . . . . . . . . . . . . . . . DATA     INITDEVICE  
SMB0CN0_ACKRQ. . . . . . . . . . . . . . . DATA     INITDEVICE  
SMB0CN0_ARBLOST. . . . . . . . . . . . . . DATA     INITDEVICE  
SMB0CN0_MASTER . . . . . . . . . . . . . . DATA     INITDEVICE  
SMB0CN0_SI . . . . . . . . . . . . . . . . DATA     INITDEVICE  
SMB0CN0_STA. . . . . . . . . . . . . . . . DATA     INITDEVICE  
SMB0CN0_STO. . . . . . . . . . . . . . . . DATA     INITDEVICE  
SMB0CN0_TXMODE . . . . . . . . . . . . . . DATA     INITDEVICE  
SMB0DAT. . . . . . . . . . . . . . . . . . DATA     INITDEVICE  
SMB1ADM. . . . . . . . . . . . . . . . . . DATA     INITDEVICE  
SMB1ADR. . . . . . . . . . . . . . . . . . DATA     INITDEVICE  
SMB1CF . . . . . . . . . . . . . . . . . . DATA     INITDEVICE  
SMB1CN0. . . . . . . . . . . . . . . . . . DATA     INITDEVICE  
SMB1CN0_ACK. . . . . . . . . . . . . . . . DATA     INITDEVICE  
SMB1CN0_ACKRQ. . . . . . . . . . . . . . . DATA     INITDEVICE  
SMB1CN0_ARBLOST. . . . . . . . . . . . . . DATA     INITDEVICE  
SMB1CN0_MASTER . . . . . . . . . . . . . . DATA     INITDEVICE  
SMB1CN0_SI . . . . . . . . . . . . . . . . DATA     INITDEVICE  
SMB1CN0_STA. . . . . . . . . . . . . . . . DATA     INITDEVICE  
SMB1CN0_STO. . . . . . . . . . . . . . . . DATA     INITDEVICE  
SMB1CN0_TXMODE . . . . . . . . . . . . . . DATA     INITDEVICE  
SMB1DAT. . . . . . . . . . . . . . . . . . DATA     INITDEVICE  
SMBTC. . . . . . . . . . . . . . . . . . . DATA     INITDEVICE  
SMOD1. . . . . . . . . . . . . . . . . . . DATA     INITDEVICE  
LX51 LINKER/LOCATER V4.66.66.0                                                        03/09/2017  11:29:19  PAGE 202


SP . . . . . . . . . . . . . . . . . . . . DATA     INITDEVICE  
SPI0CFG. . . . . . . . . . . . . . . . . . DATA     INITDEVICE  
SPI0CKR. . . . . . . . . . . . . . . . . . DATA     INITDEVICE  
SPI0CN0. . . . . . . . . . . . . . . . . . DATA     INITDEVICE  
SPI0CN0_MODF . . . . . . . . . . . . . . . DATA     INITDEVICE  
SPI0CN0_NSSMD0 . . . . . . . . . . . . . . DATA     INITDEVICE  
SPI0CN0_NSSMD1 . . . . . . . . . . . . . . DATA     INITDEVICE  
SPI0CN0_RXOVRN . . . . . . . . . . . . . . DATA     INITDEVICE  
SPI0CN0_SPIEN. . . . . . . . . . . . . . . DATA     INITDEVICE  
SPI0CN0_SPIF . . . . . . . . . . . . . . . DATA     INITDEVICE  
SPI0CN0_TXBMT. . . . . . . . . . . . . . . DATA     INITDEVICE  
SPI0CN0_WCOL . . . . . . . . . . . . . . . DATA     INITDEVICE  
SPI0DAT. . . . . . . . . . . . . . . . . . DATA     INITDEVICE  
StabilizerParam. . . . . . . . . . . . . . XDATA    STABLIZER  PAGESTABILIZER  PAGESTABILIZERBUILD  PAGESTABILIZERMODE  
                                                    PAGESTABILIZERPITCHGAIN  PAGESTABILIZERROLLGAIN  PAGESTABILIZERYAWGA
                                                    IN  
StablizerDatInit . . . . . . . . . . . . . CODE     STABLIZER  MAIN  
StablizerDetect. . . . . . . . . . . . . . CODE     STABLIZER  MAIN  
StablizerProcessHandle . . . . . . . . . . CODE     STABLIZER  MAIN  
StablizerTickCnt . . . . . . . . . . . . . DATA     STABLIZER  
StablizerTickOverFlow. . . . . . . . . . . DATA     STABLIZER  
SterringDatInit. . . . . . . . . . . . . . CODE     STERRING  MAIN  
SterringDetect . . . . . . . . . . . . . . CODE     STERRING  MAIN  
SterringMs . . . . . . . . . . . . . . . . XDATA    PAGESTEERING  PAGE  STERRING  
SterringParam. . . . . . . . . . . . . . . XDATA    STERRING  PAGESTEERING  
SterringProcessHandle. . . . . . . . . . . CODE     STERRING  MAIN  
SterringPwmCnt . . . . . . . . . . . . . . DATA     STERRING  
SterringPwmPeriod. . . . . . . . . . . . . DATA     STERRING  
SterringPwmPulse . . . . . . . . . . . . . DATA     STERRING  
SterringStepState. . . . . . . . . . . . . DATA     STERRING  
SterringTickTime . . . . . . . . . . . . . DATA     STERRING  
Sum. . . . . . . . . . . . . . . . . . . . XDATA    STABLIZER  
SumPre . . . . . . . . . . . . . . . . . . XDATA    STABLIZER  
SysDatInit . . . . . . . . . . . . . . . . CODE     GLOBAL  MAIN  
SysModuleEnable. . . . . . . . . . . . . . XDATA    GLOBAL  ESC  LIPOCELLS  MAIN  STABLIZER  STERRING  
SysTaskHandle. . . . . . . . . . . . . . . XDATA    GLOBAL  MAIN  
TCON . . . . . . . . . . . . . . . . . . . DATA     INITDEVICE  
TCON_IE0 . . . . . . . . . . . . . . . . . DATA     INITDEVICE  
TCON_IE1 . . . . . . . . . . . . . . . . . DATA     INITDEVICE  
TCON_IT0 . . . . . . . . . . . . . . . . . DATA     INITDEVICE  
TCON_IT1 . . . . . . . . . . . . . . . . . DATA     INITDEVICE  
TCON_TF0 . . . . . . . . . . . . . . . . . DATA     INITDEVICE  
TCON_TF1 . . . . . . . . . . . . . . . . . DATA     INITDEVICE  
TCON_TR0 . . . . . . . . . . . . . . . . . DATA     INITDEVICE  
TCON_TR1 . . . . . . . . . . . . . . . . . DATA     INITDEVICE  
TH0. . . . . . . . . . . . . . . . . . . . DATA     INITDEVICE  
TH1. . . . . . . . . . . . . . . . . . . . DATA     INITDEVICE  
TickCnt1ms . . . . . . . . . . . . . . . . DATA     GLOBAL  INPUTBTN  PAGESTABILIZERBUILD  STABLIZER  
TIMER01_0_enter_DefaultMode_from_RESET . . CODE     INITDEVICE  
TIMER0_ISR . . . . . . . . . . . . . . . . CODE     ESC  
TIMER16_2_enter_DefaultMode_from_RESET . . CODE     INITDEVICE  
TIMER16_3_enter_DefaultMode_from_RESET . . CODE     INITDEVICE  
TIMER1_ISR . . . . . . . . . . . . . . . . CODE     GLOBAL  
TIMER2_ISR . . . . . . . . . . . . . . . . CODE     ESC  
TIMER3_ISR . . . . . . . . . . . . . . . . CODE     STERRING  
TIMER_SETUP_0_enter_DefaultMode_from_... . CODE     INITDEVICE  
TL0. . . . . . . . . . . . . . . . . . . . DATA     INITDEVICE  
TL1. . . . . . . . . . . . . . . . . . . . DATA     INITDEVICE  
TMOD . . . . . . . . . . . . . . . . . . . DATA     INITDEVICE  
TMR2 . . . . . . . . . . . . . . . . . . . DATA     INITDEVICE  
TMR2CN0. . . . . . . . . . . . . . . . . . DATA     INITDEVICE  
TMR2CN0_T2CSS. . . . . . . . . . . . . . . DATA     INITDEVICE  
TMR2CN0_T2SPLIT. . . . . . . . . . . . . . DATA     INITDEVICE  
TMR2CN0_T2XCLK . . . . . . . . . . . . . . DATA     INITDEVICE  
TMR2CN0_TF2CEN . . . . . . . . . . . . . . DATA     INITDEVICE  
LX51 LINKER/LOCATER V4.66.66.0                                                        03/09/2017  11:29:19  PAGE 203


TMR2CN0_TF2H . . . . . . . . . . . . . . . DATA     INITDEVICE  
TMR2CN0_TF2L . . . . . . . . . . . . . . . DATA     INITDEVICE  
TMR2CN0_TF2LEN . . . . . . . . . . . . . . DATA     INITDEVICE  
TMR2CN0_TR2. . . . . . . . . . . . . . . . DATA     INITDEVICE  
TMR2H. . . . . . . . . . . . . . . . . . . DATA     INITDEVICE  
TMR2L. . . . . . . . . . . . . . . . . . . DATA     INITDEVICE  
TMR2RL . . . . . . . . . . . . . . . . . . DATA     INITDEVICE  
TMR2RLH. . . . . . . . . . . . . . . . . . DATA     INITDEVICE  
TMR2RLL. . . . . . . . . . . . . . . . . . DATA     INITDEVICE  
TMR3 . . . . . . . . . . . . . . . . . . . DATA     INITDEVICE  
TMR3CN0. . . . . . . . . . . . . . . . . . DATA     INITDEVICE  
TMR3H. . . . . . . . . . . . . . . . . . . DATA     INITDEVICE  
TMR3L. . . . . . . . . . . . . . . . . . . DATA     INITDEVICE  
TMR3RL . . . . . . . . . . . . . . . . . . DATA     INITDEVICE  
TMR3RLH. . . . . . . . . . . . . . . . . . DATA     INITDEVICE  
TMR3RLL. . . . . . . . . . . . . . . . . . DATA     INITDEVICE  
TMR4 . . . . . . . . . . . . . . . . . . . DATA     INITDEVICE  
TMR4CN0. . . . . . . . . . . . . . . . . . DATA     INITDEVICE  
TMR4H. . . . . . . . . . . . . . . . . . . DATA     INITDEVICE  
TMR4L. . . . . . . . . . . . . . . . . . . DATA     INITDEVICE  
TMR4RL . . . . . . . . . . . . . . . . . . DATA     INITDEVICE  
TMR4RLH. . . . . . . . . . . . . . . . . . DATA     INITDEVICE  
TMR4RLL. . . . . . . . . . . . . . . . . . DATA     INITDEVICE  
TMR5 . . . . . . . . . . . . . . . . . . . DATA     INITDEVICE  
TMR5CN0. . . . . . . . . . . . . . . . . . DATA     INITDEVICE  
TMR5CN0_T5SPLIT. . . . . . . . . . . . . . DATA     INITDEVICE  
TMR5CN0_T5XCLK . . . . . . . . . . . . . . DATA     INITDEVICE  
TMR5CN0_TF5H . . . . . . . . . . . . . . . DATA     INITDEVICE  
TMR5CN0_TF5L . . . . . . . . . . . . . . . DATA     INITDEVICE  
TMR5CN0_TF5LEN . . . . . . . . . . . . . . DATA     INITDEVICE  
TMR5CN0_TR5. . . . . . . . . . . . . . . . DATA     INITDEVICE  
TMR5H. . . . . . . . . . . . . . . . . . . DATA     INITDEVICE  
TMR5L. . . . . . . . . . . . . . . . . . . DATA     INITDEVICE  
TMR5RL . . . . . . . . . . . . . . . . . . DATA     INITDEVICE  
TMR5RLH. . . . . . . . . . . . . . . . . . DATA     INITDEVICE  
TMR5RLL. . . . . . . . . . . . . . . . . . DATA     INITDEVICE  
TxInitPulse. . . . . . . . . . . . . . . . XDATA    ESC  
TxNextDelayCnt . . . . . . . . . . . . . . XDATA    ESC  
TxSocketDat. . . . . . . . . . . . . . . . XDATA    STABLIZER  
TxSys. . . . . . . . . . . . . . . . . . . XDATA    GLOBAL  PAGELIPOCELLS  
UART1_ISR. . . . . . . . . . . . . . . . . CODE     STABLIZER  
UART1_Read_Encode. . . . . . . . . . . . . CODE     STABLIZER  
UART1_Write_Encode . . . . . . . . . . . . CODE     STABLIZER  
UARTE_1_enter_DefaultMode_from_RESET . . . CODE     INITDEVICE  
USB0ADR. . . . . . . . . . . . . . . . . . DATA     INITDEVICE  
USB0DAT. . . . . . . . . . . . . . . . . . DATA     INITDEVICE  
USB0XCN. . . . . . . . . . . . . . . . . . DATA     INITDEVICE  
VDM0CN . . . . . . . . . . . . . . . . . . DATA     INITDEVICE  
XBR0 . . . . . . . . . . . . . . . . . . . DATA     INITDEVICE  
XBR1 . . . . . . . . . . . . . . . . . . . DATA     INITDEVICE  
XBR2 . . . . . . . . . . . . . . . . . . . DATA     INITDEVICE  
XOSC0CN. . . . . . . . . . . . . . . . . . DATA     INITDEVICE  

Program Size: data=68.1 xdata=2585 const=5291 code=31281
LX51 RUN COMPLETE.  0 WARNING(S),  0 ERROR(S)
