BL51 BANKED LINKER/LOCATER V6.22                                                        09/10/2018  09:41:02  PAGE 1


BL51 BANKED LINKER/LOCATER V6.22, INVOKED BY:
C:\KEIL_V5\C51\BIN\BL51.EXE .\Objects\InitDevice.obj, .\Objects\A_StartUp.obj, .\Objects\A_AppInit.obj, .\Objects\Main.o
>> bj, .\Objects\Global.obj, .\Objects\Esc.obj, .\Objects\Stablizer.obj, .\Objects\LipoCells.obj, .\Objects\Sterring.obj
>> , .\Objects\PageRes.obj, .\Objects\LcdBsae.obj, .\Objects\LcdDraw.obj, .\Objects\Page.obj, .\Objects\PageEsc.obj, .\O
>> bjects\PageEsc1th.obj, .\Objects\PageEsc2th.obj, .\Objects\PageEsc3th.obj, .\Objects\PageLipoCells.obj, .\Objects\Pag
>> eStabilizer.obj, .\Objects\PageStabilizerBuild.obj, .\Objects\PageStabilizerMode.obj, .\Objects\PageStabilizerPitchGa
>> in.obj, .\Objects\PageStabilizerRollGain.obj, .\Objects\PageStabilizerYawGain.obj, .\Objects\PageSteering.obj, .\Obje
>> cts\InputBtn.obj, .\Objects\InputBtnBsp.obj TO .\Objects\Keil_Silicon PRINT (.\Listings\Keil_Silicon.m51) IXREF RAMSI
>> ZE (256) DISABLEWARNING (16, 57) OVERLAY (?PR?_PAGEESCPARAM?PAGEESC ! *, ?PR?_PAGEESC1TH?PAGEESC1TH ! *, ?PR?_PAGEESC
>> 1THRST?PAGEESC ! *, ?PR?_PAGEESC2TH?PAGEESC2TH ! *, ?PR?_PAGEESC2THRST?PAGEESC ! *, ?PR?_PAGEESC3TH?PAGEESC3TH ! *, ?
>> PR?_PAGEESC3THRST?PAGEESC ! *, ?PR?_PAGEESC3THABOUT?PAGEESC ! *, ?PR?PARAMESCDATPROCCESS?PAGEESC ! *, ?PR?_PAGESTABLI
>> ZERBUILD?PAGESTABILIZERBUILD ! *, ?PR?_PAGEAUTOFLY?PAGESTABILIZER ! *, ?PR?_PAGEAUTOFLYMODE?PAGESTABILIZERMODE ! *, ?
>> PR?_PAGEAUTOFLYPITCHGAIN?PAGESTABILIZERPITCHGAIN ! *, ?PR?_PAGEAUTOFLYROLLGAIN?PAGESTABILIZERROLLGAIN ! *, ?PR?_PAGEA
>> UTOFLYYAWGAIN?PAGESTABILIZERYAWGAIN ! *, ?PR?_PAGEBATVOLT?PAGELIPOCELLS ! *) CODE (0X4000-0XF9FF) XDATA (0X0000-0X0FF
>> F)


MEMORY MODEL: LARGE WITH FLOATING POINT ARITHMETIC


INPUT MODULES INCLUDED:
  .\Objects\InitDevice.obj (INITDEVICE)
  .\Objects\A_StartUp.obj (?C_STARTUP)
  .\Objects\A_AppInit.obj (?A_APPINIT)
  .\Objects\Main.obj (MAIN)
  .\Objects\Global.obj (GLOBAL)
  .\Objects\Esc.obj (ESC)
  .\Objects\Stablizer.obj (STABLIZER)
  .\Objects\LipoCells.obj (LIPOCELLS)
  .\Objects\Sterring.obj (STERRING)
  .\Objects\PageRes.obj (PAGERES)
  .\Objects\LcdBsae.obj (LCDBSAE)
  .\Objects\LcdDraw.obj (LCDDRAW)
  .\Objects\Page.obj (PAGE)
  .\Objects\PageEsc.obj (PAGEESC)
  .\Objects\PageEsc1th.obj (PAGEESC1TH)
  .\Objects\PageEsc2th.obj (PAGEESC2TH)
  .\Objects\PageEsc3th.obj (PAGEESC3TH)
  .\Objects\PageLipoCells.obj (PAGELIPOCELLS)
  .\Objects\PageStabilizer.obj (PAGESTABILIZER)
  .\Objects\PageStabilizerBuild.obj (PAGESTABILIZERBUILD)
  .\Objects\PageStabilizerMode.obj (PAGESTABILIZERMODE)
  .\Objects\PageStabilizerPitchGain.obj (PAGESTABILIZERPITCHGAIN)
  .\Objects\PageStabilizerRollGain.obj (PAGESTABILIZERROLLGAIN)
  .\Objects\PageStabilizerYawGain.obj (PAGESTABILIZERYAWGAIN)
  .\Objects\PageSteering.obj (PAGESTEERING)
  .\Objects\InputBtn.obj (INPUTBTN)
  .\Objects\InputBtnBsp.obj (INPUTBTNBSP)
  C:\KEIL_V5\C51\LIB\C51FPL.LIB (?C?FPADD)
  C:\KEIL_V5\C51\LIB\C51FPL.LIB (?C?FPMUL)
  C:\KEIL_V5\C51\LIB\C51FPL.LIB (?C?FPDIV)
  C:\KEIL_V5\C51\LIB\C51FPL.LIB (?C?FCAST)
  C:\KEIL_V5\C51\LIB\C51FPL.LIB (PRINTF)
  C:\KEIL_V5\C51\LIB\C51FPL.LIB (?C?FPGETOPN)
  C:\KEIL_V5\C51\LIB\C51FPL.LIB (?C?FPROUND)
  C:\KEIL_V5\C51\LIB\C51FPL.LIB (?C?FPCONVERT)
  C:\KEIL_V5\C51\LIB\C51FPL.LIB (?C?FTNPWR)
  C:\KEIL_V5\C51\LIB\C51L.LIB (?C_INIT)
BL51 BANKED LINKER/LOCATER V6.22                                                      09/10/2018  09:41:02  PAGE 2


  C:\KEIL_V5\C51\LIB\C51L.LIB (?C?CLDPTR)
  C:\KEIL_V5\C51\LIB\C51L.LIB (?C?CLDOPTR)
  C:\KEIL_V5\C51\LIB\C51L.LIB (?C?CILDOPTR)
  C:\KEIL_V5\C51\LIB\C51L.LIB (?C?CSTPTR)
  C:\KEIL_V5\C51\LIB\C51L.LIB (?C?CSTOPTR)
  C:\KEIL_V5\C51\LIB\C51L.LIB (?C?IMUL)
  C:\KEIL_V5\C51\LIB\C51L.LIB (?C?UIDIV)
  C:\KEIL_V5\C51\LIB\C51L.LIB (?C?SIDIV)
  C:\KEIL_V5\C51\LIB\C51L.LIB (?C?IILDX)
  C:\KEIL_V5\C51\LIB\C51L.LIB (?C?ILDIX)
  C:\KEIL_V5\C51\LIB\C51L.LIB (?C?ILDPTR)
  C:\KEIL_V5\C51\LIB\C51L.LIB (?C?ILDOPTR)
  C:\KEIL_V5\C51\LIB\C51L.LIB (?C?IILDPTR)
  C:\KEIL_V5\C51\LIB\C51L.LIB (?C?ISTPTR)
  C:\KEIL_V5\C51\LIB\C51L.LIB (?C?LMUL)
  C:\KEIL_V5\C51\LIB\C51L.LIB (?C?ULDIV)
  C:\KEIL_V5\C51\LIB\C51L.LIB (?C?LNOT)
  C:\KEIL_V5\C51\LIB\C51L.LIB (?C?LNEG)
  C:\KEIL_V5\C51\LIB\C51L.LIB (?C?LSHL)
  C:\KEIL_V5\C51\LIB\C51L.LIB (?C?LSTXDATA)
  C:\KEIL_V5\C51\LIB\C51L.LIB (?C?LSTKXDATA)
  C:\KEIL_V5\C51\LIB\C51L.LIB (?C?OFFX256)
  C:\KEIL_V5\C51\LIB\C51L.LIB (?C?OFFXADD)
  C:\KEIL_V5\C51\LIB\C51L.LIB (?C?PLDIXDATA)
  C:\KEIL_V5\C51\LIB\C51L.LIB (?C?PSTXDATA)
  C:\KEIL_V5\C51\LIB\C51L.LIB (?C?PLDPTR)
  C:\KEIL_V5\C51\LIB\C51L.LIB (?C?PLDOPTR)
  C:\KEIL_V5\C51\LIB\C51L.LIB (?C?CCASE)
  C:\KEIL_V5\C51\LIB\C51L.LIB (?C?ICALL)
  C:\KEIL_V5\C51\LIB\C51L.LIB (PUTCHAR)
  C:\KEIL_V5\C51\LIB\C51L.LIB (ABS)
  C:\KEIL_V5\C51\LIB\C51L.LIB (STRLEN)
  C:\KEIL_V5\C51\LIB\C51L.LIB (?C?PLDIDATA)
  C:\KEIL_V5\C51\LIB\C51L.LIB (?C?PLDXDATA)
  C:\KEIL_V5\C51\LIB\C51L.LIB (?C?PLDPDATA)
  C:\KEIL_V5\C51\LIB\C51L.LIB (?C?PLDCODE)


LINK MAP OF MODULE:  .\Objects\Keil_Silicon (INITDEVICE)


            TYPE    BASE      LENGTH    RELOCATION   SEGMENT NAME
            -----------------------------------------------------

            * * * * * * *   D A T A   M E M O R Y   * * * * * * *
            REG     0000H     0008H     ABSOLUTE     "REG BANK 0"
            DATA    0008H     0014H     UNIT         ?DT?PAGE
            DATA    001CH     0004H     UNIT         ?DT?INPUTBTN
                    0020H.0   0000H.1                *** GAP ***
            BIT     0020H.1   0000H.1   ABSOLUTE     
            BIT     0020H.2   0001H.1   UNIT         _BIT_GROUP_
                    0021H.3   0000H.5                *** GAP ***
            DATA    0022H     0009H     UNIT         ?DT?ESC
            DATA    002BH     0009H     UNIT         ?DT?STERRING
            DATA    0034H     0006H     UNIT         ?DT?STABLIZER
            DATA    003AH     0005H     UNIT         _DATA_GROUP_
            DATA    003FH     0003H     UNIT         ?DT?PAGESTABILIZERBUILD
BL51 BANKED LINKER/LOCATER V6.22                                                      09/10/2018  09:41:02  PAGE 3


            DATA    0042H     0002H     UNIT         ?DT?GLOBAL
            IDATA   0044H     0001H     UNIT         ?STACK

            * * * * * * *  X D A T A   M E M O R Y  * * * * * * *
            XDATA   0000H     048AH     UNIT         ?XD?LCDDRAW
            XDATA   048AH     0132H     UNIT         ?XD?PAGEESC1TH
            XDATA   05BCH     00BAH     UNIT         ?XD?PAGEESC2TH
            XDATA   0676H     008AH     UNIT         ?XD?PAGEESC
            XDATA   0700H     007EH     UNIT         ?XD?PAGEESC3TH
            XDATA   077EH     006AH     UNIT         ?XD?ESC
            XDATA   07E8H     0048H     UNIT         ?XD?STABLIZER
            XDATA   0830H     0030H     UNIT         _XDATA_GROUP_
            XDATA   0860H     001CH     UNIT         ?XD?LIPOCELLS
            XDATA   087CH     0016H     UNIT         ?XD?_LCDDRAWLINE?LCDDRAW
            XDATA   0892H     0013H     UNIT         ?XD?_LCDDRAWBMPTOARRAY?LCDDRAW
            XDATA   08A5H     0012H     UNIT         ?XD?_LCDDRAWINT?LCDDRAW
            XDATA   08B7H     0012H     UNIT         ?XD?_LCDDRAWMINIINT?LCDDRAW
            XDATA   08C9H     0011H     UNIT         ?XD?_LCDDRAWCHSCHAR?LCDDRAW
            XDATA   08DAH     0010H     UNIT         ?XD?GLOBAL
            XDATA   08EAH     000FH     UNIT         ?XD?_LCDDRAWGECHAR?LCDDRAW
            XDATA   08F9H     000CH     UNIT         ?XD?_LCDDRAWHZLINE?LCDDRAW
            XDATA   0905H     000CH     UNIT         ?XD?_LCDDRAWRECT?LCDDRAW
            XDATA   0911H     000BH     UNIT         ?XD?_LCDDRAWASCCHAR?LCDDRAW
            XDATA   091CH     000AH     UNIT         ?XD?_LCDDRAWMASKX?LCDDRAW
            XDATA   0926H     000AH     UNIT         ?XD?_LCDDRAWMASKY?LCDDRAW
            XDATA   0930H     0009H     UNIT         ?XD?_LCDDRAWSTART?LCDDRAW
            XDATA   0939H     0009H     UNIT         ?XD?_PAGEMENUPROC?PAGE
            XDATA   0942H     0008H     UNIT         ?XD?LCDDRAWBUFFERREFRESH?LCDBSAE
            XDATA   094AH     0008H     UNIT         ?XD?_LCDDRAWHLINE?LCDDRAW
            XDATA   0952H     0008H     UNIT         ?XD?_LCDDRAWVLINE?LCDDRAW
            XDATA   095AH     0008H     UNIT         ?XD?_LCDDRAWMINIASC?LCDDRAW
            XDATA   0962H     0008H     UNIT         ?XD?INPUTBTN
            XDATA   096AH     0007H     UNIT         ?XD?_LCDWRITEASCCHAR?LCDBSAE
            XDATA   0971H     0007H     UNIT         ?XD?_LCDDRAWTEXTSTRING?LCDDRAW
            XDATA   0978H     0006H     UNIT         ?XD?STERRING
            XDATA   097EH     0006H     UNIT         ?XD?_LCDWRITEASCSTRING?LCDBSAE
            XDATA   0984H     0006H     UNIT         ?XD?_LCDDRAWPIXELXY?LCDDRAW
            XDATA   098AH     0006H     UNIT         ?XD?_LCDDRAWMINIBMP?LCDDRAW
            XDATA   0990H     0006H     UNIT         ?XD?PAGELIPOCELLS
            XDATA   0996H     0006H     UNIT         ?XD?PAGESTABILIZER
            XDATA   099CH     0006H     UNIT         ?XD?PAGESTABILIZERMODE
            XDATA   09A2H     0006H     UNIT         ?XD?PAGESTABILIZERPITCHGAIN
            XDATA   09A8H     0006H     UNIT         ?XD?PAGESTABILIZERROLLGAIN
            XDATA   09AEH     0006H     UNIT         ?XD?PAGESTABILIZERYAWGAIN
            XDATA   09B4H     0006H     UNIT         ?XD?PAGESTEERING
            XDATA   09BAH     0005H     UNIT         ?XD?_DELAYMS?GLOBAL
            XDATA   09BFH     0005H     UNIT         ?XD?_ESCDATCHARGE?ESC
            XDATA   09C4H     0005H     UNIT         ?XD?_UART1_WRITE_BUFFER?STABLIZER
            XDATA   09C9H     0005H     UNIT         ?XD?_DETECTCHARGEPARAMETER?STABLIZER
            XDATA   09CEH     0004H     UNIT         ?XD?_LCDDRAWPIXEL?LCDDRAW
            XDATA   09D2H     0004H     UNIT         ?XD?_PAGEINIT?PAGE
            XDATA   09D6H     0004H     UNIT         ?XD?_PAGEGOTO?PAGE
            XDATA   09DAH     0004H     UNIT         ?XD?_PAGEENTER?PAGE
            XDATA   09DEH     0003H     UNIT         ?XD?_LCDWRITECLR?LCDBSAE
            XDATA   09E1H     0003H     UNIT         ?XD?_LCDDRAWCLR?LCDDRAW
            XDATA   09E4H     0002H     UNIT         ?XD?RXSOCKETHANDLER?STABLIZER
            XDATA   09E6H     0002H     UNIT         ?XD?_DELAY?LCDBSAE
BL51 BANKED LINKER/LOCATER V6.22                                                      09/10/2018  09:41:02  PAGE 4


            XDATA   09E8H     0002H     UNIT         ?XD?_SPI_SWRITEBYTE?LCDBSAE
            XDATA   09EAH     0002H     UNIT         ?XD?_LCD_SETPAGECOLUMN?LCDBSAE
            XDATA   09ECH     0002H     UNIT         ?XD?_LCDWRITECLRLINE?LCDBSAE
            XDATA   09EEH     0002H     UNIT         ?XD?LCDDATINIT?LCDDRAW
            XDATA   09F0H     0002H     UNIT         ?XD?_PAGEESC3THABOUT?PAGEESC
            XDATA   09F2H     0001H     UNIT         ?XD?ENTER_DEFAULTMODE_FROM_RESET?INITDEVICE
            XDATA   09F3H     0001H     UNIT         ?XD?TIMER01_0_ENTER_DEFAULTMODE_FROM_RESET?INITDEVICE
            XDATA   09F4H     0001H     UNIT         ?XD?TIMER16_2_ENTER_DEFAULTMODE_FROM_RESET?INITDEVICE
            XDATA   09F5H     0001H     UNIT         ?XD?TIMER16_3_ENTER_DEFAULTMODE_FROM_RESET?INITDEVICE
            XDATA   09F6H     0001H     UNIT         ?XD?_SYSHANDLEPROCESS?MAIN
            XDATA   09F7H     0001H     UNIT         ?XD?ESCDATINIT?ESC
            XDATA   09F8H     0001H     UNIT         ?XD?ESCDETECT?ESC
            XDATA   09F9H     0001H     UNIT         ?XD?STABLIZERDATINIT?STABLIZER
            XDATA   09FAH     0001H     UNIT         ?XD?STABLIZERDETECT?STABLIZER
            XDATA   09FBH     0001H     UNIT         ?XD?_LCD_RST?LCDBSAE
            XDATA   09FCH     0001H     UNIT         ?XD?_LCD_CMD?LCDBSAE
            XDATA   09FDH     0001H     UNIT         ?XD?_LCD_DAT?LCDBSAE
            XDATA   09FEH     0001H     UNIT         ?XD?_LCD_SETPAGE?LCDBSAE
            XDATA   09FFH     0001H     UNIT         ?XD?_LCD_SETCOLUMN?LCDBSAE
            XDATA   0A00H     0001H     UNIT         ?XD?_LCDWRITEDATLINE?LCDBSAE
            XDATA   0A01H     0001H     UNIT         ?XD?_PAGERETURN?PAGE
            XDATA   0A02H     0001H     UNIT         ?XD?_PAGEESCPARAM?PAGEESC
            XDATA   0A03H     0001H     UNIT         ?XD?_PAGEESC1THRST?PAGEESC
            XDATA   0A04H     0001H     UNIT         ?XD?_PAGEESC2THRST?PAGEESC
            XDATA   0A05H     0001H     UNIT         ?XD?_PAGEESC3THRST?PAGEESC
            XDATA   0A06H     0001H     UNIT         ?XD?_PAGEESC1TH?PAGEESC1TH
            XDATA   0A07H     0001H     UNIT         ?XD?_PAGEESC2TH?PAGEESC2TH
            XDATA   0A08H     0001H     UNIT         ?XD?_PAGEESC3TH?PAGEESC3TH
            XDATA   0A09H     0001H     UNIT         ?XD?_PAGEBATVOLT?PAGELIPOCELLS
            XDATA   0A0AH     0001H     UNIT         ?XD?_PAGEAUTOFLY?PAGESTABILIZER
            XDATA   0A0BH     0001H     UNIT         ?XD?_PAGESTABLIZERBUILD?PAGESTABILIZERBUILD
            XDATA   0A0CH     0001H     UNIT         ?XD?PAGESTABILIZERBUILD
            XDATA   0A0DH     0001H     UNIT         ?XD?_PAGEAUTOFLYMODE?PAGESTABILIZERMODE
            XDATA   0A0EH     0001H     UNIT         ?XD?_PAGEAUTOFLYPITCHGAIN?PAGESTABILIZERPITCHGAIN
            XDATA   0A0FH     0001H     UNIT         ?XD?_PAGEAUTOFLYROLLGAIN?PAGESTABILIZERROLLGAIN
            XDATA   0A10H     0001H     UNIT         ?XD?_PAGEAUTOFLYYAWGAIN?PAGESTABILIZERYAWGAIN
            XDATA   0A11H     0001H     UNIT         ?XD?_PAGESTERRING?PAGESTEERING
            XDATA   0A12H     0001H     UNIT         ?XD?_BTNCLEARDOWN?INPUTBTN
            XDATA   0A13H     0001H     UNIT         ?XD?_BTNTSTSTAT?INPUTBTN
            XDATA   0A14H     0001H     UNIT         ?XD?_BTNTSTDOWN?INPUTBTN
            XDATA   0A15H     0001H     UNIT         ?XD?_BTNTSTHOLD?INPUTBTN
            XDATA   0A16H     0001H     UNIT         ?XD?_BTNGETSTATE?INPUTBTNBSP

            * * * * * * *   C O D E   M E M O R Y   * * * * * * *
            CODE    0000H     0003H     ABSOLUTE     
            CODE    0003H     0003H     ABSOLUTE     
                    0006H     0005H                  *** GAP ***
            CODE    000BH     0003H     ABSOLUTE     
                    000EH     000DH                  *** GAP ***
            CODE    001BH     0003H     ABSOLUTE     
                    001EH     000DH                  *** GAP ***
            CODE    002BH     0003H     ABSOLUTE     
                    002EH     0025H                  *** GAP ***
            CODE    0053H     0003H     ABSOLUTE     
                    0056H     001DH                  *** GAP ***
            CODE    0073H     0003H     ABSOLUTE     
                    0076H     000DH                  *** GAP ***
BL51 BANKED LINKER/LOCATER V6.22                                                      09/10/2018  09:41:02  PAGE 5


            CODE    0083H     0003H     ABSOLUTE     
                    0086H     3F7AH                  *** GAP ***
            CODE    4000H     0003H     ABSOLUTE     
            CODE    4003H     0DBAH     UNIT         ?PR?ESC1THDATPROCCESS?PAGEESC1TH
            CODE    4DBDH     0CD2H     UNIT         ?PR?_PAGEMENUPROC?PAGE
            CODE    5A8FH     0970H     UNIT         ?C?LIB_CODE
            CODE    63FFH     0836H     UNIT         ?CO?PAGERES
            CODE    6C35H     0777H     UNIT         ?PR?ESC2THDATPREPROCCESS?PAGEESC2TH
            CODE    73ACH     04F2H     UNIT         ?PR?ESC3THDATPROCCESS?PAGEESC3TH
            CODE    789EH     0483H     UNIT         ?PR?PRINTF?PRINTF
            CODE    7D21H     039BH     UNIT         ?PR?_PAGEBATVOLT?PAGELIPOCELLS
            CODE    80BCH     0323H     UNIT         ?PR?_LCDDRAWBMPTOARRAY?LCDDRAW
            CODE    83DFH     0312H     UNIT         ?CO?PAGEESC1TH
            CODE    86F1H     02EBH     UNIT         ?PR?_LCDDRAWMINIINT?LCDDRAW
            CODE    89DCH     02DAH     UNIT         ?PR?_LCDDRAWINT?LCDDRAW
            CODE    8CB6H     02D5H     UNIT         ?PR?_LCDDRAWLINE?LCDDRAW
            CODE    8F8BH     0238H     UNIT         ?PR?RXSOCKETDECODE?STABLIZER
            CODE    91C3H     0202H     UNIT         ?CO?PAGEESC2TH
            CODE    93C5H     01F3H     UNIT         ?PR?ADC0EOC_ISR?LIPOCELLS
            CODE    95B8H     01E2H     UNIT         ?PR?_LCDDRAWCHSCHAR?LCDDRAW
            CODE    979AH     01C9H     UNIT         ?PR?UART1_WRITE_ENCODE?STABLIZER
            CODE    9963H     01C7H     UNIT         ?PR?_PAGESTABLIZERBUILD?PAGESTABILIZERBUILD
            CODE    9B2AH     01A3H     UNIT         ?PR?TIMER3_ISR?STERRING
            CODE    9CCDH     019FH     UNIT         ?PR?PARAMESCDATPROCCESS?PAGEESC
            CODE    9E6CH     0185H     UNIT         ?PR?MAIN?MAIN
            CODE    9FF1H     017AH     UNIT         ?PR?_LCDDRAWGECHAR?LCDDRAW
            CODE    A16BH     0177H     UNIT         ?CO?PAGESTABILIZER
            CODE    A2E2H     016AH     UNIT         ?PR?LCDDRAWBUFFERREFRESH?LCDBSAE
            CODE    A44CH     0159H     UNIT         ?PR?_LCDDRAWPIXEL?LCDDRAW
            CODE    A5A5H     0157H     UNIT         ?PR?BTNSCANHANDLE?INPUTBTN
            CODE    A6FCH     0155H     UNIT         ?CO?PAGEESC3TH
            CODE    A851H     014BH     UNIT         ?PR?PAGEMENUSTATDATINIT?PAGE
            CODE    A99CH     0130H     UNIT         ?PR?_LCDDRAWMINIASC?LCDDRAW
            CODE    AACCH     0127H     UNIT         ?PR?_PAGEESC3THABOUT?PAGEESC
            CODE    ABF3H     011FH     UNIT         ?PR?ESCDETECT?ESC
            CODE    AD12H     0111H     UNIT         ?PR?_PAGEESC1TH?PAGEESC1TH
            CODE    AE23H     0111H     UNIT         ?PR?_PAGEESC2TH?PAGEESC2TH
            CODE    AF34H     010FH     UNIT         ?PR?_PAGEESC3TH?PAGEESC3TH
            CODE    B043H     010DH     UNIT         ?CO?PAGEESC
            CODE    B150H     010CH     UNIT         ?PR?_PAGEAUTOFLY?PAGESTABILIZER
            CODE    B25CH     010CH     UNIT         ?PR?_PAGEAUTOFLYMODE?PAGESTABILIZERMODE
            CODE    B368H     010CH     UNIT         ?PR?_PAGEAUTOFLYPITCHGAIN?PAGESTABILIZERPITCHGAIN
            CODE    B474H     010CH     UNIT         ?PR?_PAGEAUTOFLYROLLGAIN?PAGESTABILIZERROLLGAIN
            CODE    B580H     010CH     UNIT         ?PR?_PAGEAUTOFLYYAWGAIN?PAGESTABILIZERYAWGAIN
            CODE    B68CH     0103H     UNIT         ?PR?TIMER0_ISR?ESC
            CODE    B78FH     0101H     UNIT         ?PR?_PAGESTERRING?PAGESTEERING
            CODE    B890H     00FFH     UNIT         ?PR?_PAGEESC1THRST?PAGEESC
            CODE    B98FH     00F9H     UNIT         ?PR?UART1_ISR?STABLIZER
            CODE    BA88H     00F9H     UNIT         ?PR?_PAGEESC2THRST?PAGEESC
            CODE    BB81H     00F6H     UNIT         ?PR?_PAGEESC3THRST?PAGEESC
            CODE    BC77H     00DCH     UNIT         ?PR?_LCDDRAWASCCHAR?LCDDRAW
            CODE    BD53H     00CCH     UNIT         ?PR?_DETECTCHARGEPARAMETER?STABLIZER
            CODE    BE1FH     00C9H     UNIT         ?PR?_LCDDRAWTEXTSTRING?LCDDRAW
            CODE    BEE8H     00BCH     UNIT         ?PR?_LCDDRAWMASKX?LCDDRAW
            CODE    BFA4H     00BCH     UNIT         ?PR?_LCDDRAWMASKY?LCDDRAW
            CODE    C060H     00B4H     UNIT         ?PR?RXSOCKETHANDLER?STABLIZER
            CODE    C114H     00AAH     UNIT         ?CO?PAGESTEERING
BL51 BANKED LINKER/LOCATER V6.22                                                      09/10/2018  09:41:02  PAGE 6


            CODE    C1BEH     00A7H     UNIT         ?PR?STABLIZERDATINIT?STABLIZER
            CODE    C265H     00A7H     UNIT         ?PR?_LCDDRAWHZLINE?LCDDRAW
            CODE    C30CH     00A7H     UNIT         ?CO?PAGESTABILIZERMODE
            CODE    C3B3H     00A2H     UNIT         ?PR?LCDDATINIT?LCDDRAW
            CODE    C455H     009FH     UNIT         ?PR?STABLIZERDETECT?STABLIZER
            CODE    C4F4H     009EH     UNIT         ?PR?_LCDDRAWCLR?LCDDRAW
            CODE    C592H     009AH     UNIT         ?PR?_LCDDRAWRECT?LCDDRAW
            CODE    C62CH     0092H     UNIT         ?CO?PAGESTABILIZERPITCHGAIN
            CODE    C6BEH     0091H     UNIT         ?CO?PAGESTABILIZERROLLGAIN
            CODE    C74FH     0090H     UNIT         ?CO?PAGESTABILIZERYAWGAIN
            CODE    C7DFH     008EH     UNIT         ?C_C51STARTUP
            CODE    C86DH     008EH     UNIT         ?PR?_ESCDATCHARGE?ESC
            CODE    C8FBH     008BH     UNIT         ?PR?_LCDWRITEASCCHAR?LCDBSAE
            CODE    C986H     0085H     UNIT         ?PR?_DELAYMS?GLOBAL
            CODE    CA0BH     0083H     UNIT         ?PR?STABLIZERPROCESSHANDLE?STABLIZER
            CODE    CA8EH     0082H     UNIT         ?PR?_PAGEESCPARAM?PAGEESC
            CODE    CB10H     0080H     UNIT         ?PR?_LCDDRAWSTART?LCDDRAW
            CODE    CB90H     007EH     UNIT         ?PR?_LCDDRAWMINIBMP?LCDDRAW
            CODE    CC0EH     007EH     UNIT         ?CO?PAGELIPOCELLS
            CODE    CC8CH     006EH     UNIT         ?PR?_PAGEINIT?PAGE
            CODE    CCFAH     006BH     UNIT         ?PR?ESCDATINIT?ESC
            CODE    CD65H     0068H     UNIT         ?PR?_LCDWRITECLR?LCDBSAE
            CODE    CDCDH     0067H     UNIT         ?PR?TIMER2_ISR?ESC
            CODE    CE34H     0063H     UNIT         ?PR?LCD_INIT?LCDBSAE
            CODE    CE97H     0059H     UNIT         ?PR?LIPOCELLSDATINIT?LIPOCELLS
            CODE    CEF0H     0057H     UNIT         ?CO?PAGESTABILIZERBUILD
            CODE    CF47H     0055H     UNIT         ?PR?_UART1_WRITE_BUFFER?STABLIZER
            CODE    CF9CH     0052H     UNIT         ?PR?_LCDWRITEASCSTRING?LCDBSAE
            CODE    CFEEH     0052H     UNIT         ?PR?_LCDDRAWHLINE?LCDDRAW
            CODE    D040H     0052H     UNIT         ?PR?_LCDDRAWVLINE?LCDDRAW
            CODE    D092H     004EH     UNIT         ?PR?_PAGEENTER?PAGE
            CODE    D0E0H     004BH     UNIT         ?PR?TIMER1_ISR?GLOBAL
            CODE    D12BH     0047H     UNIT         ?PR?SYSDATINIT?GLOBAL
            CODE    D172H     0045H     UNIT         ?PR?_PAGEGOTO?PAGE
            CODE    D1B7H     0045H     UNIT         ?PR?_BTNGETSTATE?INPUTBTNBSP
            CODE    D1FCH     0044H     UNIT         ?PR?_LCDDRAWPIXELXY?LCDDRAW
            CODE    D240H     0042H     UNIT         ?PR?INT0_ISR?ESC
            CODE    D282H     0041H     UNIT         ?PR?ENTER_DEFAULTMODE_FROM_RESET?INITDEVICE
            CODE    D2C3H     003EH     UNIT         ?PR?_SPI_SWRITEBYTE?LCDBSAE
            CODE    D301H     003BH     UNIT         ?PR?LIPOCELLSDETECT?LIPOCELLS
            CODE    D33CH     0038H     UNIT         ?PR?BTNDATINIT?INPUTBTN
            CODE    D374H     0034H     UNIT         ?PR?_LCD_SETPAGECOLUMN?LCDBSAE
            CODE    D3A8H     002DH     UNIT         ?PR?UART1_READ_ENCODE?STABLIZER
            CODE    D3D5H     002DH     UNIT         ?PR?_PAGERETURN?PAGE
            CODE    D402H     002DH     UNIT         ?PR?_BTNTSTDOWN?INPUTBTN
            CODE    D42FH     002DH     UNIT         ?PR?_BTNTSTHOLD?INPUTBTN
            CODE    D45CH     002CH     UNIT         ?CO?MAIN
            CODE    D488H     002BH     UNIT         ?PR?TIMER01_0_ENTER_DEFAULTMODE_FROM_RESET?INITDEVICE
            CODE    D4B3H     002BH     UNIT         ?PR?STERRINGDATINIT?STERRING
            CODE    D4DEH     0027H     UNIT         ?PR?PUTCHAR?PUTCHAR
            CODE    D505H     0023H     UNIT         ?PR?_LCD_SETCOLUMN?LCDBSAE
            CODE    D528H     0022H     UNIT         ?PR?TIMER16_2_ENTER_DEFAULTMODE_FROM_RESET?INITDEVICE
            CODE    D54AH     0022H     UNIT         ?PR?TIMER16_3_ENTER_DEFAULTMODE_FROM_RESET?INITDEVICE
            CODE    D56CH     0020H     UNIT         ?PR?_LCD_RST?LCDBSAE
            CODE    D58CH     001FH     UNIT         ?PR?_LCDWRITECLRLINE?LCDBSAE
            CODE    D5ABH     001DH     UNIT         ?PR?_DELAY?LCDBSAE
            CODE    D5C8H     001DH     UNIT         ?C_INITSEG
BL51 BANKED LINKER/LOCATER V6.22                                                      09/10/2018  09:41:02  PAGE 7


            CODE    D5E5H     001CH     UNIT         ?PR?_BTNTSTSTAT?INPUTBTN
            CODE    D601H     0019H     UNIT         ?PR?LIPOCELLSPROCESSHANDLE?LIPOCELLS
            CODE    D61AH     0018H     UNIT         ?PR?BTNFLUSH?INPUTBTN
            CODE    D632H     0018H     UNIT         ?PR?_BTNCLEARDOWN?INPUTBTN
            CODE    D64AH     0015H     UNIT         ?PR?_STRLEN?STRLEN
            CODE    D65FH     0013H     UNIT         ?PR?INTERRUPT_0_ENTER_DEFAULTMODE_FROM_RESET?INITDEVICE
            CODE    D672H     0012H     UNIT         ?PR?_SYSHANDLEPROCESS?MAIN
            CODE    D684H     0012H     UNIT         ?PR?_LCD_SETPAGE?LCDBSAE
            CODE    D696H     0010H     UNIT         ?PR?_LCD_CMD?LCDBSAE
            CODE    D6A6H     0010H     UNIT         ?PR?_LCD_DAT?LCDBSAE
            CODE    D6B6H     000FH     UNIT         ?PR?STERRINGDETECT?STERRING
            CODE    D6C5H     000EH     UNIT         ?PR?_LCDWRITEDATLINE?LCDBSAE
            CODE    D6D3H     000DH     UNIT         ?PR?ADC_0_ENTER_DEFAULTMODE_FROM_RESET?INITDEVICE
            CODE    D6E0H     000DH     UNIT         ?PR?UARTE_1_ENTER_DEFAULTMODE_FROM_RESET?INITDEVICE
            CODE    D6EDH     000CH     UNIT         ?PR?_ABS?ABS
            CODE    D6F9H     000BH     UNIT         ?CO?PAGE
            CODE    D704H     000AH     UNIT         ?PR?PCA_0_ENTER_DEFAULTMODE_FROM_RESET?INITDEVICE
            CODE    D70EH     000AH     UNIT         ?PR?PORTS_0_ENTER_DEFAULTMODE_FROM_RESET?INITDEVICE
            CODE    D718H     000AH     UNIT         ?PR?PORTS_1_ENTER_DEFAULTMODE_FROM_RESET?INITDEVICE
            CODE    D722H     000AH     UNIT         ?PR?PORTS_2_ENTER_DEFAULTMODE_FROM_RESET?INITDEVICE
            CODE    D72CH     000AH     UNIT         ?PR?TIMER_SETUP_0_ENTER_DEFAULTMODE_FROM_RESET?INITDEVICE
            CODE    D736H     0007H     UNIT         ?PR?PBCFG_0_ENTER_DEFAULTMODE_FROM_RESET?INITDEVICE
            CODE    D73DH     0007H     UNIT         ?PR?SPI_INTI?LCDBSAE
            CODE    D744H     0007H     UNIT         ?PR?BTNSTOPCNT?INPUTBTN
            CODE    D74BH     0006H     UNIT         ?PR?LCDDRAWINIT?LCDDRAW
            CODE    D751H     0004H     UNIT         ?PR?PCACH_4_ENTER_DEFAULTMODE_FROM_RESET?INITDEVICE
            CODE    D755H     0004H     UNIT         ?PR?HFOSC_0_ENTER_DEFAULTMODE_FROM_RESET?INITDEVICE
            CODE    D759H     0004H     UNIT         ?PR?CLOCK_0_ENTER_DEFAULTMODE_FROM_RESET?INITDEVICE
            CODE    D75DH     0004H     UNIT         ?PR?EXTINT_0_ENTER_DEFAULTMODE_FROM_RESET?INITDEVICE
            CODE    D761H     0001H     UNIT         ?PR?PCACH_0_ENTER_DEFAULTMODE_FROM_RESET?INITDEVICE
            CODE    D762H     0001H     UNIT         ?C_APPINIT
            CODE    D763H     0001H     UNIT         ?PR?STERRINGPROCESSHANDLE?STERRING



OVERLAY MAP OF MODULE:   .\Objects\Keil_Silicon (INITDEVICE)


SEGMENT                                             BIT_GROUP          DATA_GROUP          XDATA_GROUP
  +--> CALLED SEGMENT                            START    LENGTH     START    LENGTH     START    LENGTH
--------------------------------------------------------------------------------------------------------
?C_C51STARTUP                                    -----    -----      -----    -----      -----    -----
  +--> ?PR?MAIN?MAIN
  +--> ?C_INITSEG

?PR?MAIN?MAIN                                    -----    -----      -----    -----      -----    -----
  +--> ?PR?ENTER_DEFAULTMODE_FROM_RESET?INIT...
  +--> ?PR?SYSDATINIT?GLOBAL
  +--> ?PR?BTNDATINIT?INPUTBTN
  +--> ?PR?STABLIZERDATINIT?STABLIZER
  +--> ?PR?STABLIZERDETECT?STABLIZER
  +--> ?PR?_PAGEESC1TH?PAGEESC1TH
  +--> ?PR?_PAGEINIT?PAGE
  +--> ?PR?_PAGEESC2TH?PAGEESC2TH
  +--> ?PR?_PAGEESC3TH?PAGEESC3TH
  +--> ?PR?_PAGEBATVOLT?PAGELIPOCELLS
  +--> ?PR?_PAGEAUTOFLY?PAGESTABILIZER
BL51 BANKED LINKER/LOCATER V6.22                                                      09/10/2018  09:41:02  PAGE 8


  +--> ?PR?_PAGESTERRING?PAGESTEERING
  +--> ?PR?_LCDDRAWCLR?LCDDRAW
  +--> ?CO?MAIN
  +--> ?PR?_LCDDRAWTEXTSTRING?LCDDRAW
  +--> ?PR?LCDDRAWBUFFERREFRESH?LCDBSAE
  +--> ?PR?_SYSHANDLEPROCESS?MAIN

?PR?ENTER_DEFAULTMODE_FROM_RESET?INIT...         -----    -----      -----    -----      -----    -----
  +--> ?PR?PCA_0_ENTER_DEFAULTMODE_FROM_RESE...
  +--> ?PR?PCACH_0_ENTER_DEFAULTMODE_FROM_RE...
  +--> ?PR?PCACH_4_ENTER_DEFAULTMODE_FROM_RE...
  +--> ?PR?PORTS_0_ENTER_DEFAULTMODE_FROM_RE...
  +--> ?PR?PORTS_1_ENTER_DEFAULTMODE_FROM_RE...
  +--> ?PR?PORTS_2_ENTER_DEFAULTMODE_FROM_RE...
  +--> ?PR?PBCFG_0_ENTER_DEFAULTMODE_FROM_RE...
  +--> ?PR?ADC_0_ENTER_DEFAULTMODE_FROM_RESE...
  +--> ?PR?HFOSC_0_ENTER_DEFAULTMODE_FROM_RE...
  +--> ?PR?CLOCK_0_ENTER_DEFAULTMODE_FROM_RE...
  +--> ?PR?TIMER01_0_ENTER_DEFAULTMODE_FROM_...
  +--> ?PR?TIMER16_2_ENTER_DEFAULTMODE_FROM_...
  +--> ?PR?TIMER16_3_ENTER_DEFAULTMODE_FROM_...
  +--> ?PR?TIMER_SETUP_0_ENTER_DEFAULTMODE_F...
  +--> ?PR?UARTE_1_ENTER_DEFAULTMODE_FROM_RE...
  +--> ?PR?EXTINT_0_ENTER_DEFAULTMODE_FROM_R...
  +--> ?PR?INTERRUPT_0_ENTER_DEFAULTMODE_FRO...

?PR?STABLIZERDETECT?STABLIZER                    -----    -----      -----    -----      -----    -----
  +--> ?PR?UART1_READ_ENCODE?STABLIZER
  +--> ?PR?_UART1_WRITE_BUFFER?STABLIZER

?PR?_PAGEESC1TH?PAGEESC1TH                       -----    -----      -----    -----      -----    -----
  +--> ?PR?_LCDDRAWCLR?LCDDRAW
  +--> ?PR?_ESCDATCHARGE?ESC
  +--> ?CO?PAGEESC1TH
  +--> ?PR?ESC1THDATPROCCESS?PAGEESC1TH
  +--> ?PR?_PAGEMENUPROC?PAGE
  +--> ?PR?_BTNTSTDOWN?INPUTBTN
  +--> ?PR?_PAGEENTER?PAGE
  +--> ?PR?_PAGERETURN?PAGE

?CO?PAGEESC1TH                                   -----    -----      -----    -----      -----    -----
  +--> ?PR?_PAGEESCPARAM?PAGEESC
  +--> ?PR?_PAGEESC1THRST?PAGEESC
  +--> ?PR?_PAGEESC3THABOUT?PAGEESC

?PR?_PAGEESCPARAM?PAGEESC                        -----    -----      -----    -----      -----    -----
  +--> ?PR?_LCDDRAWCLR?LCDDRAW
  +--> ?CO?PAGEESC
  +--> ?PR?PARAMESCDATPROCCESS?PAGEESC
  +--> ?PR?_PAGEMENUPROC?PAGE
  +--> ?PR?_BTNTSTDOWN?INPUTBTN
  +--> ?PR?_PAGERETURN?PAGE

?PR?PARAMESCDATPROCCESS?PAGEESC                  -----    -----      -----    -----      -----    -----
  +--> ?CO?PAGEESC
  +--> ?PR?PRINTF?PRINTF

BL51 BANKED LINKER/LOCATER V6.22                                                      09/10/2018  09:41:02  PAGE 9


?PR?PRINTF?PRINTF                                0020H.2  0001H.1    003AH    0005H      0830H    0030H
  +--> ?PR?PUTCHAR?PUTCHAR

?PR?_PAGEMENUPROC?PAGE                           -----    -----      -----    -----      -----    -----
  +--> ?PR?_LCDDRAWRECT?LCDDRAW
  +--> ?PR?_LCDDRAWTEXTSTRING?LCDDRAW
  +--> ?PR?_LCDDRAWHLINE?LCDDRAW
  +--> ?PR?_LCDDRAWMINIINT?LCDDRAW
  +--> ?PR?_LCDDRAWMINIBMP?LCDDRAW
  +--> ?CO?PAGE
  +--> ?PR?_STRLEN?STRLEN
  +--> ?PR?_LCDDRAWINT?LCDDRAW
  +--> ?PR?LCDDRAWBUFFERREFRESH?LCDBSAE
  +--> ?PR?_BTNTSTDOWN?INPUTBTN

?PR?_LCDDRAWRECT?LCDDRAW                         -----    -----      -----    -----      -----    -----
  +--> ?PR?_LCDDRAWPIXELXY?LCDDRAW

?PR?_LCDDRAWPIXELXY?LCDDRAW                      -----    -----      -----    -----      -----    -----
  +--> ?PR?_LCDDRAWPIXEL?LCDDRAW

?PR?_LCDDRAWTEXTSTRING?LCDDRAW                   -----    -----      -----    -----      -----    -----
  +--> ?PR?_LCDDRAWCHSCHAR?LCDDRAW
  +--> ?PR?_LCDDRAWASCCHAR?LCDDRAW

?PR?_LCDDRAWCHSCHAR?LCDDRAW                      -----    -----      -----    -----      -----    -----
  +--> ?CO?PAGERES
  +--> ?PR?_LCDDRAWHZLINE?LCDDRAW

?PR?_LCDDRAWHZLINE?LCDDRAW                       -----    -----      -----    -----      -----    -----
  +--> ?PR?_LCDDRAWPIXELXY?LCDDRAW

?PR?_LCDDRAWASCCHAR?LCDDRAW                      -----    -----      -----    -----      -----    -----
  +--> ?CO?PAGERES
  +--> ?PR?_LCDDRAWHZLINE?LCDDRAW

?PR?_LCDDRAWHLINE?LCDDRAW                        -----    -----      -----    -----      -----    -----
  +--> ?PR?_LCDDRAWPIXELXY?LCDDRAW

?PR?_LCDDRAWMINIINT?LCDDRAW                      -----    -----      -----    -----      -----    -----
  +--> ?PR?_LCDDRAWMINIBMP?LCDDRAW

?PR?_LCDDRAWMINIBMP?LCDDRAW                      -----    -----      -----    -----      -----    -----
  +--> ?CO?PAGERES
  +--> ?PR?_LCDDRAWMASKY?LCDDRAW

?PR?_LCDDRAWMASKY?LCDDRAW                        -----    -----      -----    -----      -----    -----
  +--> ?PR?_LCDDRAWPIXELXY?LCDDRAW

?PR?_LCDDRAWINT?LCDDRAW                          -----    -----      -----    -----      -----    -----
  +--> ?PR?_LCDDRAWASCCHAR?LCDDRAW

?PR?LCDDRAWBUFFERREFRESH?LCDBSAE                 -----    -----      -----    -----      -----    -----
  +--> ?PR?_LCD_SETPAGECOLUMN?LCDBSAE
  +--> ?PR?_LCD_SETCOLUMN?LCDBSAE
  +--> ?PR?_LCD_DAT?LCDBSAE

BL51 BANKED LINKER/LOCATER V6.22                                                      09/10/2018  09:41:02  PAGE 10


?PR?_LCD_SETPAGECOLUMN?LCDBSAE                   -----    -----      -----    -----      -----    -----
  +--> ?PR?_LCD_CMD?LCDBSAE

?PR?_LCD_CMD?LCDBSAE                             -----    -----      -----    -----      -----    -----
  +--> ?PR?_SPI_SWRITEBYTE?LCDBSAE

?PR?_LCD_SETCOLUMN?LCDBSAE                       -----    -----      -----    -----      -----    -----
  +--> ?PR?_LCD_CMD?LCDBSAE

?PR?_LCD_DAT?LCDBSAE                             -----    -----      -----    -----      -----    -----
  +--> ?PR?_SPI_SWRITEBYTE?LCDBSAE

?PR?_PAGEESC1THRST?PAGEESC                       -----    -----      -----    -----      -----    -----
  +--> ?PR?_LCDDRAWCLR?LCDDRAW
  +--> ?CO?PAGEESC
  +--> ?PR?_LCDDRAWTEXTSTRING?LCDDRAW
  +--> ?PR?LCDDRAWBUFFERREFRESH?LCDBSAE
  +--> ?PR?_BTNTSTDOWN?INPUTBTN
  +--> ?PR?_PAGERETURN?PAGE

?PR?_PAGEESC3THABOUT?PAGEESC                     -----    -----      -----    -----      -----    -----
  +--> ?PR?_LCDDRAWCLR?LCDDRAW
  +--> ?CO?PAGEESC
  +--> ?PR?_LCDDRAWTEXTSTRING?LCDDRAW
  +--> ?PR?LCDDRAWBUFFERREFRESH?LCDBSAE
  +--> ?PR?_BTNTSTDOWN?INPUTBTN
  +--> ?PR?_ESCDATCHARGE?ESC
  +--> ?PR?_PAGERETURN?PAGE

?PR?ESC1THDATPROCCESS?PAGEESC1TH                 -----    -----      -----    -----      -----    -----
  +--> ?CO?PAGEESC1TH
  +--> ?PR?PRINTF?PRINTF

?PR?_PAGEESC2TH?PAGEESC2TH                       -----    -----      -----    -----      -----    -----
  +--> ?PR?_LCDDRAWCLR?LCDDRAW
  +--> ?PR?_ESCDATCHARGE?ESC
  +--> ?CO?PAGEESC2TH
  +--> ?PR?ESC2THDATPREPROCCESS?PAGEESC2TH
  +--> ?PR?_PAGEMENUPROC?PAGE
  +--> ?PR?_BTNTSTDOWN?INPUTBTN
  +--> ?PR?_PAGEENTER?PAGE
  +--> ?PR?_PAGERETURN?PAGE

?CO?PAGEESC2TH                                   -----    -----      -----    -----      -----    -----
  +--> ?PR?_PAGEESCPARAM?PAGEESC
  +--> ?PR?_PAGEESC2THRST?PAGEESC
  +--> ?PR?_PAGEESC3THABOUT?PAGEESC

?PR?_PAGEESC2THRST?PAGEESC                       -----    -----      -----    -----      -----    -----
  +--> ?PR?_LCDDRAWCLR?LCDDRAW
  +--> ?CO?PAGEESC
  +--> ?PR?_LCDDRAWTEXTSTRING?LCDDRAW
  +--> ?PR?LCDDRAWBUFFERREFRESH?LCDBSAE
  +--> ?PR?_BTNTSTDOWN?INPUTBTN
  +--> ?PR?_PAGERETURN?PAGE

?PR?ESC2THDATPREPROCCESS?PAGEESC2TH              -----    -----      -----    -----      -----    -----
BL51 BANKED LINKER/LOCATER V6.22                                                      09/10/2018  09:41:02  PAGE 11


  +--> ?CO?PAGEESC2TH
  +--> ?PR?PRINTF?PRINTF

?PR?_PAGEESC3TH?PAGEESC3TH                       -----    -----      -----    -----      -----    -----
  +--> ?PR?_LCDDRAWCLR?LCDDRAW
  +--> ?PR?_ESCDATCHARGE?ESC
  +--> ?CO?PAGEESC3TH
  +--> ?PR?ESC3THDATPROCCESS?PAGEESC3TH
  +--> ?PR?_PAGEMENUPROC?PAGE
  +--> ?PR?_BTNTSTDOWN?INPUTBTN
  +--> ?PR?_PAGEENTER?PAGE
  +--> ?PR?_PAGERETURN?PAGE

?CO?PAGEESC3TH                                   -----    -----      -----    -----      -----    -----
  +--> ?PR?_PAGEESC3THRST?PAGEESC
  +--> ?PR?_PAGEESC3THABOUT?PAGEESC

?PR?_PAGEESC3THRST?PAGEESC                       -----    -----      -----    -----      -----    -----
  +--> ?PR?_LCDDRAWCLR?LCDDRAW
  +--> ?CO?PAGEESC
  +--> ?PR?_LCDDRAWTEXTSTRING?LCDDRAW
  +--> ?PR?LCDDRAWBUFFERREFRESH?LCDBSAE
  +--> ?PR?_BTNTSTDOWN?INPUTBTN
  +--> ?PR?_PAGERETURN?PAGE

?PR?ESC3THDATPROCCESS?PAGEESC3TH                 -----    -----      -----    -----      -----    -----
  +--> ?CO?PAGEESC3TH
  +--> ?PR?PRINTF?PRINTF

?PR?_PAGEBATVOLT?PAGELIPOCELLS                   -----    -----      -----    -----      -----    -----
  +--> ?PR?_LCDDRAWCLR?LCDDRAW
  +--> ?PR?_LCDDRAWRECT?LCDDRAW
  +--> ?CO?PAGELIPOCELLS
  +--> ?PR?_LCDDRAWTEXTSTRING?LCDDRAW
  +--> ?PR?_LCDDRAWHLINE?LCDDRAW
  +--> ?PR?_LCDDRAWINT?LCDDRAW
  +--> ?PR?LCDDRAWBUFFERREFRESH?LCDBSAE
  +--> ?PR?_BTNTSTDOWN?INPUTBTN
  +--> ?PR?_PAGERETURN?PAGE

?PR?_PAGEAUTOFLY?PAGESTABILIZER                  -----    -----      -----    -----      -----    -----
  +--> ?PR?_LCDDRAWCLR?LCDDRAW
  +--> ?CO?PAGESTABILIZER
  +--> ?PR?_DETECTCHARGEPARAMETER?STABLIZER
  +--> ?PR?_PAGEMENUPROC?PAGE
  +--> ?PR?_BTNTSTDOWN?INPUTBTN
  +--> ?PR?_PAGEENTER?PAGE
  +--> ?PR?_PAGERETURN?PAGE

?CO?PAGESTABILIZER                               -----    -----      -----    -----      -----    -----
  +--> ?PR?_PAGEAUTOFLYMODE?PAGESTABILIZERMODE
  +--> ?PR?_PAGEAUTOFLYYAWGAIN?PAGESTABILIZE...
  +--> ?PR?_PAGEAUTOFLYROLLGAIN?PAGESTABILIZ...
  +--> ?PR?_PAGEAUTOFLYPITCHGAIN?PAGESTABILI...
  +--> ?PR?_PAGESTABLIZERBUILD?PAGESTABILIZE...

?PR?_PAGEAUTOFLYMODE?PAGESTABILIZERMODE          -----    -----      -----    -----      -----    -----
BL51 BANKED LINKER/LOCATER V6.22                                                      09/10/2018  09:41:02  PAGE 12


  +--> ?PR?_LCDDRAWCLR?LCDDRAW
  +--> ?CO?PAGESTABILIZERMODE
  +--> ?PR?_DETECTCHARGEPARAMETER?STABLIZER
  +--> ?PR?_PAGEMENUPROC?PAGE
  +--> ?PR?_BTNTSTDOWN?INPUTBTN
  +--> ?PR?_PAGEENTER?PAGE
  +--> ?PR?_PAGERETURN?PAGE

?PR?_PAGEAUTOFLYYAWGAIN?PAGESTABILIZE...         -----    -----      -----    -----      -----    -----
  +--> ?PR?_LCDDRAWCLR?LCDDRAW
  +--> ?CO?PAGESTABILIZERYAWGAIN
  +--> ?PR?_DETECTCHARGEPARAMETER?STABLIZER
  +--> ?PR?_PAGEMENUPROC?PAGE
  +--> ?PR?_BTNTSTDOWN?INPUTBTN
  +--> ?PR?_PAGEENTER?PAGE
  +--> ?PR?_PAGERETURN?PAGE

?PR?_PAGEAUTOFLYROLLGAIN?PAGESTABILIZ...         -----    -----      -----    -----      -----    -----
  +--> ?PR?_LCDDRAWCLR?LCDDRAW
  +--> ?CO?PAGESTABILIZERROLLGAIN
  +--> ?PR?_DETECTCHARGEPARAMETER?STABLIZER
  +--> ?PR?_PAGEMENUPROC?PAGE
  +--> ?PR?_BTNTSTDOWN?INPUTBTN
  +--> ?PR?_PAGEENTER?PAGE
  +--> ?PR?_PAGERETURN?PAGE

?PR?_PAGEAUTOFLYPITCHGAIN?PAGESTABILI...         -----    -----      -----    -----      -----    -----
  +--> ?PR?_LCDDRAWCLR?LCDDRAW
  +--> ?CO?PAGESTABILIZERPITCHGAIN
  +--> ?PR?_DETECTCHARGEPARAMETER?STABLIZER
  +--> ?PR?_PAGEMENUPROC?PAGE
  +--> ?PR?_BTNTSTDOWN?INPUTBTN
  +--> ?PR?_PAGEENTER?PAGE
  +--> ?PR?_PAGERETURN?PAGE

?PR?_PAGESTABLIZERBUILD?PAGESTABILIZE...         -----    -----      -----    -----      -----    -----
  +--> ?PR?_LCDDRAWCLR?LCDDRAW
  +--> ?CO?PAGESTABILIZERBUILD
  +--> ?PR?_LCDDRAWTEXTSTRING?LCDDRAW
  +--> ?PR?_LCDDRAWHLINE?LCDDRAW
  +--> ?PR?_BTNTSTDOWN?INPUTBTN
  +--> ?PR?_PAGERETURN?PAGE
  +--> ?PR?_LCDDRAWRECT?LCDDRAW
  +--> ?PR?LCDDRAWBUFFERREFRESH?LCDBSAE
  +--> ?PR?_DETECTCHARGEPARAMETER?STABLIZER

?PR?_PAGESTERRING?PAGESTEERING                   -----    -----      -----    -----      -----    -----
  +--> ?PR?_LCDDRAWCLR?LCDDRAW
  +--> ?CO?PAGESTEERING
  +--> ?PR?_PAGEMENUPROC?PAGE
  +--> ?PR?_BTNTSTDOWN?INPUTBTN
  +--> ?PR?_PAGEENTER?PAGE
  +--> ?PR?_PAGERETURN?PAGE

?PR?_SYSHANDLEPROCESS?MAIN                       -----    -----      -----    -----      -----    -----
  +--> ?PR?STABLIZERPROCESSHANDLE?STABLIZER

BL51 BANKED LINKER/LOCATER V6.22                                                      09/10/2018  09:41:02  PAGE 13


?PR?STABLIZERPROCESSHANDLE?STABLIZER             -----    -----      -----    -----      -----    -----
  +--> ?PR?RXSOCKETHANDLER?STABLIZER
  +--> ?PR?UART1_READ_ENCODE?STABLIZER
  +--> ?PR?_UART1_WRITE_BUFFER?STABLIZER
  +--> ?PR?UART1_WRITE_ENCODE?STABLIZER

?PR?RXSOCKETHANDLER?STABLIZER                    -----    -----      -----    -----      -----    -----
  +--> ?PR?RXSOCKETDECODE?STABLIZER

*** NEW ROOT ***************************************************

?PR?TIMER1_ISR?GLOBAL                            -----    -----      -----    -----      -----    -----
  +--> ?PR?BTNSCANHANDLE?INPUTBTN

?PR?BTNSCANHANDLE?INPUTBTN                       -----    -----      -----    -----      -----    -----
  +--> ?PR?_BTNGETSTATE?INPUTBTNBSP



SYMBOL TABLE OF MODULE:  .\Objects\Keil_Silicon (INITDEVICE)

  VALUE           TYPE          NAME
  ----------------------------------

  -------         MODULE        INITDEVICE
  C:0000H         SYMBOL        _ICE_DUMMY_
  D:00BCH         PUBLIC        ADC0CF
  D:00E6H         PUBLIC        EIE1
  D:00E7H         PUBLIC        EIE2
  D:00E4H         PUBLIC        IT01CF
  C:D6D3H         PUBLIC        ADC_0_enter_DefaultMode_from_RESET
  D:00BFH         PUBLIC        SFRPAGE
  D:00A4H         PUBLIC        P0MDOUT
  D:00A5H         PUBLIC        P1MDOUT
  D:00CBH         PUBLIC        TMR2RLH
  D:00A6H         PUBLIC        P2MDOUT
  D:00A8H         PUBLIC        IE
  D:0093H         PUBLIC        TMR3RLH
  D:00F6H         PUBLIC        EIP1
  D:00F7H         PUBLIC        EIP2
  D:00CAH         PUBLIC        TMR2RLL
  C:D65FH         PUBLIC        INTERRUPT_0_enter_DefaultMode_from_RESET
  D:0092H         PUBLIC        TMR3RLL
  C:D704H         PUBLIC        PCA_0_enter_DefaultMode_from_RESET
  D:00D9H         PUBLIC        PCA0MD
  D:00B8H         PUBLIC        IP
  D:00DEH         PUBLIC        PCA0CPM4
  D:00E2H         PUBLIC        XBR1
  D:00E3H         PUBLIC        XBR2
  C:D75DH         PUBLIC        EXTINT_0_enter_DefaultMode_from_RESET
  D:00B2H         PUBLIC        HFO0CN
  D:008EH         PUBLIC        CKCON0
  C:D761H         PUBLIC        PCACH_0_enter_DefaultMode_from_RESET
  C:D736H         PUBLIC        PBCFG_0_enter_DefaultMode_from_RESET
  C:D488H         PUBLIC        TIMER01_0_enter_DefaultMode_from_RESET
  C:D751H         PUBLIC        PCACH_4_enter_DefaultMode_from_RESET
  D:00ACH         PUBLIC        SBCON1
BL51 BANKED LINKER/LOCATER V6.22                                                      09/10/2018  09:41:02  PAGE 14


  D:00F1H         PUBLIC        P0MDIN
  D:00F2H         PUBLIC        P1MDIN
  D:00F3H         PUBLIC        P2MDIN
  C:D528H         PUBLIC        TIMER16_2_enter_DefaultMode_from_RESET
  D:00B5H         PUBLIC        SBRLH1
  C:D54AH         PUBLIC        TIMER16_3_enter_DefaultMode_from_RESET
  C:D759H         PUBLIC        CLOCK_0_enter_DefaultMode_from_RESET
  D:00B4H         PUBLIC        SBRLL1
  D:0089H         PUBLIC        TMOD
  D:0088H         PUBLIC        TCON
  C:D755H         PUBLIC        HFOSC_0_enter_DefaultMode_from_RESET
  C:D72CH         PUBLIC        TIMER_SETUP_0_enter_DefaultMode_from_RESET
  D:00D4H         PUBLIC        P0SKIP
  D:00D5H         PUBLIC        P1SKIP
  D:00D6H         PUBLIC        P2SKIP
  D:00E8H         PUBLIC        ADC0CN0
  D:00A9H         PUBLIC        CLKSEL
  C:D6E0H         PUBLIC        UARTE_1_enter_DefaultMode_from_RESET
  D:008CH         PUBLIC        TH0
  D:008DH         PUBLIC        TH1
  C:D282H         PUBLIC        enter_DefaultMode_from_RESET
  D:008BH         PUBLIC        TL1
  C:D70EH         PUBLIC        PORTS_0_enter_DefaultMode_from_RESET
  C:D718H         PUBLIC        PORTS_1_enter_DefaultMode_from_RESET
  C:D722H         PUBLIC        PORTS_2_enter_DefaultMode_from_RESET
  D:00D2H         PUBLIC        SCON1
  D:00BAH         PUBLIC        AMX0N
  D:00BBH         PUBLIC        AMX0P
  D:00C8H         PUBLIC        TMR2CN0
  D:0091H         PUBLIC        TMR3CN0
  D:00CDH         PUBLIC        TMR2H
  D:0095H         PUBLIC        TMR3H
  D:00CCH         PUBLIC        TMR2L
  D:0094H         PUBLIC        TMR3L
  -------         PROC          ENTER_DEFAULTMODE_FROM_RESET
  -------         DO            
  X:09F2H         SYMBOL        SFRPAGE_save
  -------         ENDDO         
  C:D282H         LINE#         23
  C:D282H         LINE#         26
  C:D288H         LINE#         27
  C:D28BH         LINE#         28
  C:D28EH         LINE#         29
  C:D291H         LINE#         30
  C:D294H         LINE#         31
  C:D297H         LINE#         32
  C:D29AH         LINE#         33
  C:D29DH         LINE#         34
  C:D2A0H         LINE#         35
  C:D2A3H         LINE#         36
  C:D2A6H         LINE#         37
  C:D2A9H         LINE#         38
  C:D2ACH         LINE#         39
  C:D2AFH         LINE#         40
  C:D2B2H         LINE#         41
  C:D2B5H         LINE#         42
  C:D2B8H         LINE#         43
BL51 BANKED LINKER/LOCATER V6.22                                                      09/10/2018  09:41:02  PAGE 15


  C:D2BBH         LINE#         45
  C:D2C2H         LINE#         49
  -------         ENDPROC       ENTER_DEFAULTMODE_FROM_RESET
  -------         PROC          PCA_0_ENTER_DEFAULTMODE_FROM_RESET
  C:D704H         LINE#         55
  C:D704H         LINE#         66
  C:D707H         LINE#         67
  C:D70AH         LINE#         68
  C:D70DH         LINE#         82
  -------         ENDPROC       PCA_0_ENTER_DEFAULTMODE_FROM_RESET
  -------         PROC          PCACH_0_ENTER_DEFAULTMODE_FROM_RESET
  C:D761H         LINE#         87
  C:D761H         LINE#         101
  -------         ENDPROC       PCACH_0_ENTER_DEFAULTMODE_FROM_RESET
  -------         PROC          PCACH_4_ENTER_DEFAULTMODE_FROM_RESET
  C:D751H         LINE#         106
  C:D751H         LINE#         118
  C:D754H         LINE#         133
  -------         ENDPROC       PCACH_4_ENTER_DEFAULTMODE_FROM_RESET
  -------         PROC          PORTS_0_ENTER_DEFAULTMODE_FROM_RESET
  C:D70EH         LINE#         138
  C:D70EH         LINE#         153
  C:D711H         LINE#         169
  C:D714H         LINE#         185
  C:D717H         LINE#         191
  -------         ENDPROC       PORTS_0_ENTER_DEFAULTMODE_FROM_RESET
  -------         PROC          PORTS_1_ENTER_DEFAULTMODE_FROM_RESET
  C:D718H         LINE#         196
  C:D718H         LINE#         211
  C:D71BH         LINE#         227
  C:D71EH         LINE#         243
  C:D721H         LINE#         249
  -------         ENDPROC       PORTS_1_ENTER_DEFAULTMODE_FROM_RESET
  -------         PROC          PORTS_2_ENTER_DEFAULTMODE_FROM_RESET
  C:D722H         LINE#         254
  C:D722H         LINE#         269
  C:D725H         LINE#         285
  C:D728H         LINE#         301
  C:D72BH         LINE#         307
  -------         ENDPROC       PORTS_2_ENTER_DEFAULTMODE_FROM_RESET
  -------         PROC          PBCFG_0_ENTER_DEFAULTMODE_FROM_RESET
  C:D736H         LINE#         312
  C:D736H         LINE#         322
  C:D739H         LINE#         334
  C:D73CH         LINE#         338
  -------         ENDPROC       PBCFG_0_ENTER_DEFAULTMODE_FROM_RESET
  -------         PROC          ADC_0_ENTER_DEFAULTMODE_FROM_RESET
  C:D6D3H         LINE#         343
  C:D6D3H         LINE#         349
  C:D6D6H         LINE#         368
  C:D6D9H         LINE#         375
  C:D6DCH         LINE#         382
  C:D6DFH         LINE#         386
  -------         ENDPROC       ADC_0_ENTER_DEFAULTMODE_FROM_RESET
  -------         PROC          HFOSC_0_ENTER_DEFAULTMODE_FROM_RESET
  C:D755H         LINE#         391
  C:D755H         LINE#         396
BL51 BANKED LINKER/LOCATER V6.22                                                      09/10/2018  09:41:02  PAGE 16


  C:D758H         LINE#         400
  -------         ENDPROC       HFOSC_0_ENTER_DEFAULTMODE_FROM_RESET
  -------         PROC          CLOCK_0_ENTER_DEFAULTMODE_FROM_RESET
  C:D759H         LINE#         405
  C:D759H         LINE#         412
  C:D75CH         LINE#         416
  -------         ENDPROC       CLOCK_0_ENTER_DEFAULTMODE_FROM_RESET
  -------         PROC          TIMER01_0_ENTER_DEFAULTMODE_FROM_RESET
  -------         DO            
  X:09F3H         SYMBOL        TCON_save
  -------         ENDDO         
  C:D488H         LINE#         421
  C:D488H         LINE#         425
  C:D48EH         LINE#         427
  C:D491H         LINE#         435
  C:D494H         LINE#         445
  C:D497H         LINE#         452
  C:D49AH         LINE#         457
  C:D4B2H         LINE#         462
  -------         ENDPROC       TIMER01_0_ENTER_DEFAULTMODE_FROM_RESET
  -------         PROC          TIMER16_2_ENTER_DEFAULTMODE_FROM_RESET
  -------         DO            
  X:09F4H         SYMBOL        TMR2CN0_TR2_save
  -------         ENDDO         
  C:D528H         LINE#         467
  C:D528H         LINE#         471
  C:D532H         LINE#         473
  C:D535H         LINE#         483
  C:D538H         LINE#         490
  C:D53BH         LINE#         497
  C:D53EH         LINE#         504
  C:D541H         LINE#         512
  C:D549H         LINE#         516
  -------         ENDPROC       TIMER16_2_ENTER_DEFAULTMODE_FROM_RESET
  -------         PROC          TIMER16_3_ENTER_DEFAULTMODE_FROM_RESET
  -------         DO            
  X:09F5H         SYMBOL        TMR3CN0_TR3_save
  -------         ENDDO         
  C:D54AH         LINE#         521
  C:D54AH         LINE#         525
  C:D554H         LINE#         527
  C:D557H         LINE#         537
  C:D55AH         LINE#         544
  C:D55DH         LINE#         551
  C:D560H         LINE#         558
  C:D563H         LINE#         566
  C:D56BH         LINE#         570
  -------         ENDPROC       TIMER16_3_ENTER_DEFAULTMODE_FROM_RESET
  -------         PROC          TIMER_SETUP_0_ENTER_DEFAULTMODE_FROM_RESET
  C:D72CH         LINE#         575
  C:D72CH         LINE#         586
  C:D72FH         LINE#         603
  C:D732H         LINE#         613
  C:D735H         LINE#         617
  -------         ENDPROC       TIMER_SETUP_0_ENTER_DEFAULTMODE_FROM_RESET
  -------         PROC          UARTE_1_ENTER_DEFAULTMODE_FROM_RESET
  C:D6E0H         LINE#         622
BL51 BANKED LINKER/LOCATER V6.22                                                      09/10/2018  09:41:02  PAGE 17


  C:D6E0H         LINE#         628
  C:D6E3H         LINE#         638
  C:D6E6H         LINE#         645
  C:D6E9H         LINE#         652
  C:D6ECH         LINE#         656
  -------         ENDPROC       UARTE_1_ENTER_DEFAULTMODE_FROM_RESET
  -------         PROC          EXTINT_0_ENTER_DEFAULTMODE_FROM_RESET
  C:D75DH         LINE#         661
  C:D75DH         LINE#         669
  C:D760H         LINE#         674
  -------         ENDPROC       EXTINT_0_ENTER_DEFAULTMODE_FROM_RESET
  -------         PROC          INTERRUPT_0_ENTER_DEFAULTMODE_FROM_RESET
  C:D65FH         LINE#         679
  C:D65FH         LINE#         691
  C:D662H         LINE#         707
  C:D665H         LINE#         722
  C:D668H         LINE#         736
  C:D66BH         LINE#         748
  C:D66EH         LINE#         760
  C:D671H         LINE#         765
  -------         ENDPROC       INTERRUPT_0_ENTER_DEFAULTMODE_FROM_RESET
  -------         ENDMOD        INITDEVICE

  -------         MODULE        ?C_STARTUP
  C:C7DFH         SEGMENT       ?C_C51STARTUP
  I:0044H         SEGMENT       ?STACK
  C:0000H         PUBLIC        ?C_STARTUP
  B:0020H.1       SYMBOL        ?B_BLFLAG
  D:00E0H         SYMBOL        ACC
  D:00F0H         SYMBOL        B
  D:0083H         SYMBOL        DPH
  D:0082H         SYMBOL        DPL
  N:0000H         SYMBOL        IBPSTACK
  N:0100H         SYMBOL        IBPSTACKTOP
  N:0080H         SYMBOL        IDATALEN
  C:C7E2H         SYMBOL        IDATALOOP
  N:0000H         SYMBOL        PBPSTACK
  N:0100H         SYMBOL        PBPSTACKTOP
  N:0000H         SYMBOL        PDATALEN
  N:0000H         SYMBOL        PDATASTART
  N:0000H         SYMBOL        PPAGE
  N:0000H         SYMBOL        PPAGEENABLE
  D:00A0H         SYMBOL        PPAGE_SFR
  D:0081H         SYMBOL        SP
  C:C7DFH         SYMBOL        STARTUP1
  N:0000H         SYMBOL        XBPSTACK
  N:0000H         SYMBOL        XBPSTACKTOP
  N:0000H         SYMBOL        XDATALEN
  N:0000H         SYMBOL        XDATASTART
  C:0000H         LINE#         128
  C:C7DFH         LINE#         135
  C:C7E1H         LINE#         136
  C:C7E2H         LINE#         137
  C:C7E3H         LINE#         138
  C:C7E5H         LINE#         187
  C:C7E8H         LINE#         198
  C:C7EAH         LINE#         200
BL51 BANKED LINKER/LOCATER V6.22                                                      09/10/2018  09:41:02  PAGE 18


  -------         ENDMOD        ?C_STARTUP

  -------         MODULE        ?A_APPINIT
  C:D762H         SEGMENT       ?C_APPINIT
  C:D762H         PUBLIC        ?A_APPINIT
  C:4000H         LINE#         16
  C:4001H         LINE#         17
  C:4002H         LINE#         18
  C:D762H         LINE#         21
  -------         ENDMOD        ?A_APPINIT

  -------         MODULE        MAIN
  C:0000H         SYMBOL        _ICE_DUMMY_
  C:9E6CH         PUBLIC        main
  D:0091H         PUBLIC        TMR3CN0
  C:D672H         PUBLIC        _SysHandleProcess
  -------         PROC          _SYSHANDLEPROCESS
  X:09F6H         SYMBOL        HandleCfg
  C:D672H         LINE#         6
  C:D677H         LINE#         11
  C:D683H         LINE#         13
  -------         ENDPROC       _SYSHANDLEPROCESS
  -------         PROC          MAIN
  C:9E6CH         LINE#         18
  C:9E6CH         LINE#         20
  C:9E6FH         LINE#         22
  C:9E72H         LINE#         23
  C:9E75H         LINE#         26
  C:9E78H         LINE#         40
  C:9E7BH         LINE#         43
  C:9E8AH         LINE#         44
  C:9E98H         LINE#         45
  C:9EA6H         LINE#         46
  C:9EB1H         LINE#         47
  C:9EC2H         LINE#         48
  C:9ED0H         LINE#         49
  C:9EDBH         LINE#         50
  C:9EEFH         LINE#         51
  C:9EFDH         LINE#         52
  C:9F08H         LINE#         53
  C:9F08H         LINE#         54
  C:9F17H         LINE#         55
  C:9F25H         LINE#         56
  C:9F30H         LINE#         57
  C:9F3FH         LINE#         58
  C:9F4DH         LINE#         59
  C:9F58H         LINE#         60
  C:9F66H         LINE#         61
  C:9F74H         LINE#         63
  C:9F7EH         LINE#         64
  C:9F89H         LINE#         65
  C:9F8BH         LINE#         66
  C:9F90H         LINE#         67
  C:9FA1H         LINE#         68
  C:9FB2H         LINE#         69
  C:9FC3H         LINE#         70
  C:9FC6H         LINE#         71
BL51 BANKED LINKER/LOCATER V6.22                                                      09/10/2018  09:41:02  PAGE 19


  C:9FC8H         LINE#         72
  C:9FC8H         LINE#         74
  C:9FC8H         LINE#         75
  C:9FD3H         LINE#         76
  C:9FEEH         LINE#         77
  C:9FF0H         LINE#         78
  -------         ENDPROC       MAIN
  -------         ENDMOD        MAIN

  -------         MODULE        GLOBAL
  C:0000H         SYMBOL        _ICE_DUMMY_
  C:D0E0H         PUBLIC        TIMER1_ISR
  X:08DAH         PUBLIC        TxSys
  X:08E6H         PUBLIC        SysTaskHandle
  C:C986H         PUBLIC        _DelayMs
  D:0042H         PUBLIC        TickCnt1ms
  D:008DH         PUBLIC        TH1
  D:008BH         PUBLIC        TL1
  B:0088H.7       PUBLIC        TCON_TF1
  C:D12BH         PUBLIC        SysDatInit
  X:08E8H         PUBLIC        SysModuleEnable
  -------         PROC          SYSDATINIT
  C:D12BH         LINE#         9
  C:D12BH         LINE#         10
  C:D131H         LINE#         12
  C:D139H         LINE#         13
  C:D141H         LINE#         15
  C:D149H         LINE#         16
  C:D151H         LINE#         17
  C:D159H         LINE#         18
  C:D161H         LINE#         19
  C:D169H         LINE#         20
  C:D171H         LINE#         21
  -------         ENDPROC       SYSDATINIT
  -------         PROC          _DELAYMS
  X:09BAH         SYMBOL        mTim
  -------         DO            
  X:09BCH         SYMBOL        TickOverFlow
  X:09BDH         SYMBOL        DelayTickCnt
  -------         ENDDO         
  C:C986H         LINE#         23
  C:C98EH         LINE#         27
  C:C993H         LINE#         28
  C:C9ABH         LINE#         29
  C:C9C8H         LINE#         31
  C:C9C8H         LINE#         32
  C:C9D1H         LINE#         33
  C:C9EBH         LINE#         34
  C:C9EDH         LINE#         35
  C:C9EFH         LINE#         36
  C:C9F4H         LINE#         37
  C:C9F4H         LINE#         38
  C:C9F6H         LINE#         39
  C:CA08H         LINE#         40
  C:CA08H         LINE#         41
  C:CA0AH         LINE#         42
  -------         ENDPROC       _DELAYMS
BL51 BANKED LINKER/LOCATER V6.22                                                      09/10/2018  09:41:02  PAGE 20


  -------         PROC          TIMER1_ISR
  C:D0E0H         LINE#         44
  C:D0FDH         LINE#         45
  C:D0FFH         LINE#         46
  C:D102H         LINE#         47
  C:D105H         LINE#         49
  C:D10DH         LINE#         50
  C:D110H         LINE#         51
  -------         ENDPROC       TIMER1_ISR
  -------         ENDMOD        GLOBAL

  -------         MODULE        ESC
  C:0000H         SYMBOL        _ICE_DUMMY_
  C:B68CH         PUBLIC        TIMER0_ISR
  C:CDCDH         PUBLIC        TIMER2_ISR
  C:C86DH         PUBLIC        _EscDatCharge
  X:077EH         PUBLIC        TxNextDelayCnt
  D:00A4H         PUBLIC        P0MDOUT
  X:077FH         PUBLIC        EscParam
  D:0022H         PUBLIC        PwmOnRef
  X:07AFH         PUBLIC        RxDataEnable
  D:0023H         PUBLIC        PwmOutCnt
  X:07B0H         PUBLIC        EscDatSumPre
  D:0025H         PUBLIC        PwmOutNum
  B:00C8H.2       PUBLIC        TMR2CN0_TR2
  D:00F1H         PUBLIC        P0MDIN
  X:07B2H         PUBLIC        PgmStatus
  D:0027H         PUBLIC        DataPulseCnt
  B:00A8H.0       PUBLIC        IE_EX0
  D:0029H         PUBLIC        InitPulseCnt
  D:008CH         PUBLIC        TH0
  C:CCFAH         PUBLIC        EscDatInit
  D:008AH         PUBLIC        TL0
  B:0088H.1       PUBLIC        TCON_IE0
  X:07B3H         PUBLIC        EscTxParam
  B:00C8H.7       PUBLIC        TMR2CN0_TF2H
  B:0088H.5       PUBLIC        TCON_TF0
  C:D240H         PUBLIC        INT0_ISR
  X:07E3H         PUBLIC        InPulseIdx
  B:0088H.4       PUBLIC        TCON_TR0
  X:07E4H         PUBLIC        OutPulseIdx
  X:07E5H         PUBLIC        EscDatSum
  B:0080H.4       PUBLIC        RC_OUT
  X:07E7H         PUBLIC        TxInitPulse
  C:ABF3H         PUBLIC        EscDetect
  -------         PROC          ESCDATINIT
  -------         DO            
  X:09F7H         SYMBOL        i
  -------         ENDDO         
  C:CCFAH         LINE#         35
  C:CCFAH         LINE#         38
  C:CCFFH         LINE#         39
  C:CD0FH         LINE#         40
  C:CD25H         LINE#         41
  C:CD2DH         LINE#         43
  C:CD38H         LINE#         44
  C:CD3DH         LINE#         46
BL51 BANKED LINKER/LOCATER V6.22                                                      09/10/2018  09:41:02  PAGE 21


  C:CD49H         LINE#         47
  C:CD55H         LINE#         49
  C:CD58H         LINE#         50
  C:CD64H         LINE#         51
  -------         ENDPROC       ESCDATINIT
  -------         PROC          ESCDETECT
  -------         DO            
  X:09F8H         SYMBOL        i
  -------         ENDDO         
  C:ABF3H         LINE#         53
  C:ABF3H         LINE#         57
  C:AC2DH         LINE#         58
  C:AC33H         LINE#         59
  C:AC38H         LINE#         62
  C:AC3AH         LINE#         63
  C:AC47H         LINE#         66
  C:AC7AH         LINE#         67
  C:AC7FH         LINE#         68
  C:AC85H         LINE#         69
  C:AC8CH         LINE#         72
  C:ACC6H         LINE#         73
  C:ACCBH         LINE#         74
  C:ACD0H         LINE#         82
  C:ACE1H         LINE#         83
  C:AD09H         LINE#         84
  C:AD11H         LINE#         85
  -------         ENDPROC       ESCDETECT
  -------         PROC          TIMER0_ISR
  C:B68CH         LINE#         88
  C:B69DH         LINE#         89
  C:B69FH         LINE#         90
  C:B6A1H         LINE#         92
  C:B6A9H         LINE#         93
  C:B6C9H         LINE#         94
  C:B6D2H         LINE#         95
  C:B6DCH         LINE#         96
  C:B6DCH         LINE#         98
  C:B6E2H         LINE#         99
  C:B6E8H         LINE#         100
  C:B6EBH         LINE#         101
  C:B6F3H         LINE#         102
  C:B6FEH         LINE#         103
  C:B704H         LINE#         104
  C:B70FH         LINE#         105
  C:B712H         LINE#         106
  C:B715H         LINE#         107
  C:B717H         LINE#         108
  C:B719H         LINE#         109
  C:B725H         LINE#         110
  C:B72AH         LINE#         111
  C:B738H         LINE#         112
  C:B738H         LINE#         113
  C:B73AH         LINE#         114
  C:B75AH         LINE#         115
  C:B760H         LINE#         117
  C:B763H         LINE#         118
  C:B766H         LINE#         119
BL51 BANKED LINKER/LOCATER V6.22                                                      09/10/2018  09:41:02  PAGE 22


  C:B768H         LINE#         121
  C:B76CH         LINE#         122
  C:B76CH         LINE#         123
  C:B76EH         LINE#         124
  C:B774H         LINE#         126
  C:B777H         LINE#         127
  C:B77AH         LINE#         128
  C:B77CH         LINE#         130
  C:B780H         LINE#         131
  C:B780H         LINE#         132
  C:B780H         LINE#         133
  -------         ENDPROC       TIMER0_ISR
  -------         PROC          TIMER2_ISR
  C:CDCDH         LINE#         136
  C:CDDCH         LINE#         137
  C:CDDEH         LINE#         139
  C:CDEFH         LINE#         140
  C:CDF3H         LINE#         141
  C:CDF5H         LINE#         142
  C:CDF8H         LINE#         143
  C:CDFAH         LINE#         144
  C:CDFCH         LINE#         145
  C:CDFFH         LINE#         147
  C:CE07H         LINE#         148
  C:CE07H         LINE#         149
  C:CE09H         LINE#         150
  C:CE11H         LINE#         151
  C:CE19H         LINE#         152
  C:CE19H         LINE#         153
  C:CE1BH         LINE#         154
  C:CE27H         LINE#         155
  C:CE27H         LINE#         156
  -------         ENDPROC       TIMER2_ISR
  -------         PROC          INT0_ISR
  C:D240H         LINE#         158
  C:D24DH         LINE#         159
  C:D250H         LINE#         160
  C:D254H         LINE#         161
  C:D259H         LINE#         162
  C:D25CH         LINE#         163
  C:D267H         LINE#         164
  C:D26AH         LINE#         165
  C:D26DH         LINE#         166
  C:D26FH         LINE#         167
  C:D26FH         LINE#         168
  C:D277H         LINE#         169
  C:D277H         LINE#         170
  C:D277H         LINE#         171
  -------         ENDPROC       INT0_ISR
  -------         PROC          _ESCDATCHARGE
  X:09BFH         SYMBOL        pDat
  X:09C2H         SYMBOL        DatSize
  -------         DO            
  X:09C3H         SYMBOL        i
  -------         ENDDO         
  C:C86DH         LINE#         174
  C:C87DH         LINE#         177
BL51 BANKED LINKER/LOCATER V6.22                                                      09/10/2018  09:41:02  PAGE 23


  C:C885H         LINE#         178
  C:C899H         LINE#         179
  C:C8C5H         LINE#         180
  C:C8CDH         LINE#         182
  C:C8E5H         LINE#         183
  C:C8F5H         LINE#         184
  C:C8F8H         LINE#         185
  C:C8F8H         LINE#         186
  C:C8FAH         LINE#         187
  -------         ENDPROC       _ESCDATCHARGE
  -------         ENDMOD        ESC

  -------         MODULE        STABLIZER
  C:0000H         SYMBOL        _ICE_DUMMY_
  D:0034H         PUBLIC        StablizerTickOverFlow
  C:D3A8H         PUBLIC        UART1_Read_Encode
  D:00A5H         PUBLIC        P1MDOUT
  C:979AH         PUBLIC        UART1_Write_Encode
  X:07E8H         PUBLIC        RxTxStatue
  C:C455H         PUBLIC        StablizerDetect
  X:07E9H         PUBLIC        StabilizerParam
  C:CF47H         PUBLIC        _UART1_Write_Buffer
  X:080DH         PUBLIC        RxPackageCnt
  D:00F2H         PUBLIC        P1MDIN
  X:080EH         PUBLIC        Sum
  X:0810H         PUBLIC        RxDatHandle
  C:B98FH         PUBLIC        UART1_ISR
  D:0035H         PUBLIC        DetectStablizerTickCnt
  X:0811H         PUBLIC        RxSocketDat
  C:BD53H         PUBLIC        _DetectChargeParameter
  B:0090H.0       PUBLIC        P1_B0
  B:0090H.1       PUBLIC        P1_B1
  X:081EH         PUBLIC        TxSocketDat
  D:0037H         PUBLIC        DetectStablizerTickOverFlow
  X:082BH         PUBLIC        SumPre
  C:8F8BH         PUBLIC        RxSocketDeCode
  X:082DH         PUBLIC        RxPackageLength
  D:00D3H         PUBLIC        SBUF1
  B:0088H.2       PUBLIC        TCON_IT1
  D:00D2H         PUBLIC        SCON1
  C:C1BEH         PUBLIC        StablizerDatInit
  D:0038H         PUBLIC        StablizerTickCnt
  C:CA0BH         PUBLIC        StablizerProcessHandle
  X:082EH         PUBLIC        RxPackageData
  X:082FH         PUBLIC        RxStatusIdx
  C:C060H         PUBLIC        RxSocketHandler
  -------         PROC          _UART1_WRITE_BUFFER
  X:09C4H         SYMBOL        pTxBuffer
  X:09C7H         SYMBOL        SizeBuffer
  -------         DO            
  X:09C8H         SYMBOL        i
  -------         ENDDO         
  C:CF47H         LINE#         25
  C:CF57H         LINE#         26
  C:CF5CH         LINE#         27
  C:CF70H         LINE#         28
  C:CF8BH         LINE#         29
BL51 BANKED LINKER/LOCATER V6.22                                                      09/10/2018  09:41:02  PAGE 24


  C:CF90H         LINE#         30
  C:CF93H         LINE#         31
  C:CF9BH         LINE#         32
  -------         ENDPROC       _UART1_WRITE_BUFFER
  -------         PROC          UART1_READ_ENCODE
  C:D3A8H         LINE#         33
  C:D3A8H         LINE#         34
  C:D3AEH         LINE#         35
  C:D3B4H         LINE#         36
  C:D3BAH         LINE#         37
  C:D3D4H         LINE#         38
  -------         ENDPROC       UART1_READ_ENCODE
  -------         PROC          UART1_WRITE_ENCODE
  C:979AH         LINE#         39
  C:979AH         LINE#         40
  C:97A0H         LINE#         41
  C:97A6H         LINE#         42
  C:97C6H         LINE#         43
  C:97E6H         LINE#         44
  C:9806H         LINE#         45
  C:9826H         LINE#         46
  C:9846H         LINE#         47
  C:9866H         LINE#         48
  C:9877H         LINE#         49
  C:9888H         LINE#         51
  C:98CEH         LINE#         55
  C:9900H         LINE#         58
  C:9962H         LINE#         62
  -------         ENDPROC       UART1_WRITE_ENCODE
  -------         PROC          RXSOCKETDECODE
  C:8F8BH         LINE#         63
  C:8F8BH         LINE#         64
  C:8FA1H         LINE#         65
  C:8FB4H         LINE#         67
  C:8FCAH         LINE#         68
  C:8FDDH         LINE#         70
  C:8FF3H         LINE#         71
  C:9006H         LINE#         73
  C:902BH         LINE#         74
  C:9050H         LINE#         76
  C:9075H         LINE#         77
  C:909AH         LINE#         79
  C:90BFH         LINE#         80
  C:90E4H         LINE#         82
  C:90FBH         LINE#         83
  C:9112H         LINE#         85
  C:9127H         LINE#         86
  C:9142H         LINE#         87
  C:915CH         LINE#         88
  C:9178H         LINE#         90
  C:918DH         LINE#         91
  C:91A8H         LINE#         92
  C:91C2H         LINE#         93
  -------         ENDPROC       RXSOCKETDECODE
  -------         PROC          RXSOCKETHANDLER
  -------         DO            
  X:09E4H         SYMBOL        i
BL51 BANKED LINKER/LOCATER V6.22                                                      09/10/2018  09:41:02  PAGE 25


  X:09E5H         SYMBOL        Crc_Data
  -------         ENDDO         
  C:C060H         LINE#         94
  C:C060H         LINE#         97
  C:C08DH         LINE#         98
  C:C0A4H         LINE#         99
  C:C0ACH         LINE#         101
  C:C0C6H         LINE#         102
  C:C0E1H         LINE#         103
  C:C0EFH         LINE#         104
  C:C102H         LINE#         105
  C:C110H         LINE#         106
  C:C113H         LINE#         107
  C:C113H         LINE#         108
  C:C113H         LINE#         109
  -------         ENDPROC       RXSOCKETHANDLER
  -------         PROC          _DETECTCHARGEPARAMETER
  X:09C9H         SYMBOL        pData
  X:09CCH         SYMBOL        DataSize
  -------         DO            
  X:09CDH         SYMBOL        i
  -------         ENDDO         
  C:BD53H         LINE#         110
  C:BD63H         LINE#         113
  C:BD6BH         LINE#         114
  C:BD7FH         LINE#         115
  C:BDABH         LINE#         116
  C:BDB3H         LINE#         117
  C:BDCBH         LINE#         118
  C:BDDBH         LINE#         119
  C:BDE4H         LINE#         120
  C:BE00H         LINE#         122
  C:BE02H         LINE#         123
  C:BE0EH         LINE#         124
  C:BE19H         LINE#         125
  C:BE1CH         LINE#         126
  C:BE1CH         LINE#         127
  C:BE1EH         LINE#         128
  C:BE1EH         LINE#         129
  C:BE1EH         LINE#         130
  -------         ENDPROC       _DETECTCHARGEPARAMETER
  -------         PROC          STABLIZERDATINIT
  -------         DO            
  X:09F9H         SYMBOL        i
  -------         ENDDO         
  C:C1BEH         LINE#         132
  C:C1BEH         LINE#         135
  C:C1E7H         LINE#         136
  C:C210H         LINE#         137
  C:C23EH         LINE#         139
  C:C243H         LINE#         140
  C:C248H         LINE#         141
  C:C252H         LINE#         143
  C:C25BH         LINE#         144
  C:C264H         LINE#         145
  -------         ENDPROC       STABLIZERDATINIT
  -------         PROC          STABLIZERDETECT
BL51 BANKED LINKER/LOCATER V6.22                                                      09/10/2018  09:41:02  PAGE 26


  -------         DO            
  X:09FAH         SYMBOL        InitDatCnt
  -------         ENDDO         
  C:C455H         LINE#         146
  C:C455H         LINE#         149
  C:C45BH         LINE#         150
  C:C461H         LINE#         152
  C:C461H         LINE#         154
  C:C46AH         LINE#         155
  C:C479H         LINE#         157
  C:C479H         LINE#         159
  C:C47BH         LINE#         160
  C:C480H         LINE#         161
  C:C48BH         LINE#         162
  C:C48FH         LINE#         163
  C:C491H         LINE#         164
  C:C494H         LINE#         165
  C:C494H         LINE#         166
  C:C496H         LINE#         167
  C:C498H         LINE#         168
  C:C4A3H         LINE#         169
  C:C4AFH         LINE#         170
  C:C4BDH         LINE#         171
  C:C4BFH         LINE#         173
  C:C4C5H         LINE#         174
  C:C4C8H         LINE#         175
  C:C4D3H         LINE#         176
  C:C4D3H         LINE#         177
  C:C4D3H         LINE#         178
  C:C4D5H         LINE#         179
  C:C4D8H         LINE#         180
  C:C4E2H         LINE#         181
  C:C4E4H         LINE#         183
  C:C4E7H         LINE#         184
  C:C4F1H         LINE#         185
  C:C4F3H         LINE#         186
  -------         ENDPROC       STABLIZERDETECT
  -------         PROC          STABLIZERPROCESSHANDLE
  C:CA0BH         LINE#         187
  C:CA0BH         LINE#         189
  C:CA13H         LINE#         190
  C:CA1BH         LINE#         191
  C:CA1BH         LINE#         193
  C:CA1DH         LINE#         194
  C:CA22H         LINE#         195
  C:CA2DH         LINE#         196
  C:CA2FH         LINE#         197
  C:CA31H         LINE#         198
  C:CA34H         LINE#         199
  C:CA34H         LINE#         200
  C:CA36H         LINE#         201
  C:CA37H         LINE#         202
  C:CA42H         LINE#         203
  C:CA4EH         LINE#         204
  C:CA5CH         LINE#         205
  C:CA5EH         LINE#         207
  C:CA67H         LINE#         208
BL51 BANKED LINKER/LOCATER V6.22                                                      09/10/2018  09:41:02  PAGE 27


  C:CA6AH         LINE#         209
  C:CA75H         LINE#         210
  C:CA7FH         LINE#         211
  C:CA82H         LINE#         212
  C:CA8DH         LINE#         213
  C:CA8DH         LINE#         214
  C:CA8DH         LINE#         215
  C:CA8DH         LINE#         216
  -------         ENDPROC       STABLIZERPROCESSHANDLE
  -------         PROC          UART1_ISR
  C:B98FH         LINE#         218
  C:B99EH         LINE#         219
  C:B9A6H         LINE#         220
  C:B9A9H         LINE#         221
  C:B9AFH         LINE#         223
  C:B9C0H         LINE#         224
  C:B9C6H         LINE#         225
  C:B9D0H         LINE#         226
  C:B9E7H         LINE#         227
  C:B9EDH         LINE#         228
  C:B9F7H         LINE#         229
  C:BA06H         LINE#         230
  C:BA1CH         LINE#         231
  C:BA26H         LINE#         232
  C:BA2CH         LINE#         233
  C:BA2CH         LINE#         234
  C:BA42H         LINE#         235
  C:BA48H         LINE#         236
  C:BA53H         LINE#         237
  C:BA58H         LINE#         238
  C:BA6EH         LINE#         239
  C:BA74H         LINE#         240
  C:BA76H         LINE#         241
  C:BA7BH         LINE#         242
  C:BA7BH         LINE#         243
  C:BA7BH         LINE#         244
  -------         ENDPROC       UART1_ISR
  -------         ENDMOD        STABLIZER

  -------         MODULE        LIPOCELLS
  C:0000H         SYMBOL        _ICE_DUMMY_
  X:0860H         PUBLIC        AdcValue
  B:00E8H.5       PUBLIC        ADC0CN0_ADINT
  C:93C5H         PUBLIC        ADC0EOC_ISR
  C:CE97H         PUBLIC        LipoCellsDatInit
  X:0864H         PUBLIC        AdcCovEnTrigger
  C:D601H         PUBLIC        LipoCellsProcessHandle
  X:0865H         PUBLIC        IdxChs
  X:0866H         PUBLIC        AdcVoltage
  B:00E8H.4       PUBLIC        ADC0CN0_ADBUSY
  D:00BBH         PUBLIC        AMX0P
  X:0868H         PUBLIC        i
  C:D301H         PUBLIC        LipoCellsDetect
  X:0869H         PUBLIC        AdcCovOkFlag
  X:086AH         PUBLIC        BatVoltage
  D:00BDH         PUBLIC        ADC0
  -------         PROC          LIPOCELLSDATINIT
BL51 BANKED LINKER/LOCATER V6.22                                                      09/10/2018  09:41:02  PAGE 28


  C:CE97H         LINE#         13
  C:CE97H         LINE#         14
  C:CEB7H         LINE#         15
  C:CED7H         LINE#         16
  C:CEDFH         LINE#         18
  C:CEE4H         LINE#         19
  C:CEEFH         LINE#         20
  -------         ENDPROC       LIPOCELLSDATINIT
  -------         PROC          LIPOCELLSDETECT
  C:D301H         LINE#         22
  C:D301H         LINE#         23
  C:D303H         LINE#         24
  C:D30BH         LINE#         26
  C:D32DH         LINE#         27
  C:D33BH         LINE#         28
  C:D33BH         LINE#         29
  -------         ENDPROC       LIPOCELLSDETECT
  -------         PROC          LIPOCELLSPROCESSHANDLE
  C:D601H         LINE#         31
  C:D601H         LINE#         32
  C:D60AH         LINE#         33
  C:D612H         LINE#         34
  C:D619H         LINE#         35
  C:D619H         LINE#         36
  C:D619H         LINE#         38
  C:D619H         LINE#         39
  -------         ENDPROC       LIPOCELLSPROCESSHANDLE
  -------         PROC          ADC0EOC_ISR
  C:93C5H         LINE#         41
  C:93E2H         LINE#         42
  C:93E4H         LINE#         44
  C:9409H         LINE#         45
  C:940EH         LINE#         46
  C:9413H         LINE#         47
  C:9418H         LINE#         48
  C:941DH         LINE#         49
  C:9422H         LINE#         50
  C:9427H         LINE#         51
  C:942CH         LINE#         52
  C:942FH         LINE#         53
  C:942FH         LINE#         55
  C:943CH         LINE#         56
  C:9468H         LINE#         58
  C:9482H         LINE#         59
  C:94B9H         LINE#         60
  C:94C1H         LINE#         61
  C:94E3H         LINE#         62
  C:950BH         LINE#         63
  C:950DH         LINE#         64
  C:952DH         LINE#         65
  C:952DH         LINE#         67
  C:953AH         LINE#         68
  C:9540H         LINE#         69
  C:9542H         LINE#         70
  C:9544H         LINE#         71
  C:954CH         LINE#         72
  C:955EH         LINE#         73
BL51 BANKED LINKER/LOCATER V6.22                                                      09/10/2018  09:41:02  PAGE 29


  C:958AH         LINE#         74
  C:9592H         LINE#         75
  C:9597H         LINE#         76
  C:959DH         LINE#         77
  C:959DH         LINE#         78
  -------         ENDPROC       ADC0EOC_ISR
  -------         ENDMOD        LIPOCELLS

  -------         MODULE        STERRING
  C:0000H         SYMBOL        _ICE_DUMMY_
  C:9B2AH         PUBLIC        TIMER3_ISR
  C:D4B3H         PUBLIC        SterringDatInit
  C:D763H         PUBLIC        SterringProcessHandle
  D:002BH         PUBLIC        SterringPwmPulse
  D:002DH         PUBLIC        SterringPwmCnt
  C:D6B6H         PUBLIC        SterringDetect
  X:0978H         PUBLIC        SterringParam
  D:0091H         PUBLIC        TMR3CN0
  B:0080H.4       PUBLIC        RC_OUT
  D:002FH         PUBLIC        SterringPwmPeriod
  D:0031H         PUBLIC        SterringTickTime
  D:0033H         PUBLIC        SterringStepState
  -------         PROC          STERRINGDATINIT
  C:D4B3H         LINE#         13
  C:D4B3H         LINE#         14
  C:D4B9H         LINE#         15
  C:D4C5H         LINE#         16
  C:D4DDH         LINE#         17
  -------         ENDPROC       STERRINGDATINIT
  -------         PROC          STERRINGDETECT
  C:D6B6H         LINE#         18
  C:D6B6H         LINE#         19
  C:D6C4H         LINE#         20
  -------         ENDPROC       STERRINGDETECT
  -------         PROC          STERRINGPROCESSHANDLE
  C:D763H         LINE#         21
  C:D763H         LINE#         22
  -------         ENDPROC       STERRINGPROCESSHANDLE
  -------         PROC          TIMER3_ISR
  C:9B2AH         LINE#         24
  C:9B41H         LINE#         25
  C:9B4CH         LINE#         26
  C:9B59H         LINE#         27
  C:9B5BH         LINE#         28
  C:9B63H         LINE#         29
  C:9B63H         LINE#         30
  C:9B6BH         LINE#         31
  C:9B6EH         LINE#         33
  C:9B7DH         LINE#         34
  C:9B85H         LINE#         35
  C:9BAFH         LINE#         36
  C:9BB3H         LINE#         37
  C:9BC1H         LINE#         38
  C:9BD2H         LINE#         39
  C:9BD4H         LINE#         40
  C:9BE2H         LINE#         41
  C:9BF5H         LINE#         42
BL51 BANKED LINKER/LOCATER V6.22                                                      09/10/2018  09:41:02  PAGE 30


  C:9BF5H         LINE#         43
  C:9C07H         LINE#         44
  C:9C0DH         LINE#         45
  C:9C13H         LINE#         46
  C:9C13H         LINE#         47
  C:9C24H         LINE#         48
  C:9C36H         LINE#         49
  C:9C47H         LINE#         50
  C:9C61H         LINE#         51
  C:9C71H         LINE#         52
  C:9C8CH         LINE#         53
  C:9C9CH         LINE#         54
  C:9CB8H         LINE#         55
  C:9CB8H         LINE#         56
  -------         ENDPROC       TIMER3_ISR
  -------         ENDMOD        STERRING

  -------         MODULE        PAGERES
  C:0000H         SYMBOL        _ICE_DUMMY_
  C:67F5H         PUBLIC        PageMainBmp
  C:6433H         PUBLIC        AscFontTableMask
  C:63FFH         PUBLIC        ChsFontTableMask
  C:672DH         PUBLIC        MinFontTableMask
  -------         ENDMOD        PAGERES

  -------         MODULE        LCDBSAE
  C:0000H         SYMBOL        _ICE_DUMMY_
  C:D696H         PUBLIC        _Lcd_Cmd
  C:CE34H         PUBLIC        Lcd_Init
  B:0080H.5       PUBLIC        LCD_SDA
  C:D6A6H         SYMBOL        _Lcd_Dat
  C:D374H         PUBLIC        _Lcd_SetPageColumn
  C:D505H         PUBLIC        _Lcd_SetColumn
  B:0080H.3       PUBLIC        LCD_SCK
  C:D684H         PUBLIC        _Lcd_SetPage
  C:D73DH         SYMBOL        Spi_Inti
  C:D2C3H         SYMBOL        _Spi_sWriteByte
  B:0090H.3       PUBLIC        LCD_RST
  C:D56CH         SYMBOL        _Lcd_Rst
  C:CF9CH         PUBLIC        _LcdWriteAscString
  C:C8FBH         PUBLIC        _LcdWriteAscChar
  C:CD65H         PUBLIC        _LcdWriteClr
  C:D6C5H         PUBLIC        _LcdWriteDatLine
  B:0080H.6       PUBLIC        LCD_CS
  C:A2E2H         PUBLIC        LcdDrawBufferRefresh
  B:0080H.2       PUBLIC        LCD_RS
  C:D5ABH         SYMBOL        _Delay
  C:D58CH         PUBLIC        _LcdWriteClrline
  -------         PROC          _DELAY
  X:09E6H         SYMBOL        nTim
  -------         DO            
  X:09E7H         SYMBOL        nCnt
  -------         ENDDO         
  C:D5ABH         LINE#         13
  C:D5B0H         LINE#         14
  C:D5BAH         LINE#         15
  C:D5C7H         LINE#         16
BL51 BANKED LINKER/LOCATER V6.22                                                      09/10/2018  09:41:02  PAGE 31


  -------         ENDPROC       _DELAY
  -------         PROC          SPI_INTI
  C:D73DH         LINE#         17
  C:D73DH         LINE#         21
  C:D73FH         LINE#         23
  C:D741H         LINE#         24
  C:D743H         LINE#         25
  -------         ENDPROC       SPI_INTI
  -------         PROC          _SPI_SWRITEBYTE
  X:09E8H         SYMBOL        SpiDat
  -------         DO            
  X:09E9H         SYMBOL        i
  -------         ENDDO         
  C:D2C3H         LINE#         40
  C:D2C8H         LINE#         41
  C:D2CDH         LINE#         43
  C:D2DDH         LINE#         44
  C:D2DFH         LINE#         45
  C:D2E8H         LINE#         46
  C:D2F6H         LINE#         47
  C:D2F8H         LINE#         48
  C:D300H         LINE#         49
  -------         ENDPROC       _SPI_SWRITEBYTE
  -------         PROC          _LCD_RST
  X:09FBH         SYMBOL        nTim
  C:D56CH         LINE#         52
  C:D571H         LINE#         53
  C:D573H         LINE#         54
  C:D57BH         LINE#         55
  C:D57DH         LINE#         56
  C:D58BH         LINE#         57
  -------         ENDPROC       _LCD_RST
  -------         PROC          _LCD_CMD
  X:09FCH         SYMBOL        uCmd
  C:D696H         LINE#         58
  C:D69BH         LINE#         59
  C:D69DH         LINE#         63
  C:D6A5H         LINE#         65
  -------         ENDPROC       _LCD_CMD
  -------         PROC          _LCD_DAT
  X:09FDH         SYMBOL        uDat
  C:D6A6H         LINE#         66
  C:D6ABH         LINE#         67
  C:D6ADH         LINE#         71
  C:D6B5H         LINE#         73
  -------         ENDPROC       _LCD_DAT
  -------         PROC          LCD_INIT
  C:CE34H         LINE#         75
  C:CE34H         LINE#         76
  C:CE37H         LINE#         77
  C:CE3CH         LINE#         79
  C:CE41H         LINE#         80
  C:CE46H         LINE#         82
  C:CE4BH         LINE#         83
  C:CE50H         LINE#         84
  C:CE55H         LINE#         85
  C:CE5AH         LINE#         86
BL51 BANKED LINKER/LOCATER V6.22                                                      09/10/2018  09:41:02  PAGE 32


  C:CE5FH         LINE#         87
  C:CE64H         LINE#         89
  C:CE69H         LINE#         90
  C:CE6EH         LINE#         91
  C:CE73H         LINE#         92
  C:CE78H         LINE#         93
  C:CE7DH         LINE#         94
  C:CE82H         LINE#         95
  C:CE87H         LINE#         96
  C:CE8CH         LINE#         97
  C:CE91H         LINE#         98
  C:CE96H         LINE#         99
  -------         ENDPROC       LCD_INIT
  -------         PROC          _LCD_SETPAGE
  X:09FEH         SYMBOL        iPage
  C:D684H         LINE#         101
  C:D689H         LINE#         102
  C:D695H         LINE#         103
  -------         ENDPROC       _LCD_SETPAGE
  -------         PROC          _LCD_SETCOLUMN
  X:09FFH         SYMBOL        iColumn
  C:D505H         LINE#         104
  C:D50AH         LINE#         105
  C:D516H         LINE#         106
  C:D527H         LINE#         107
  -------         ENDPROC       _LCD_SETCOLUMN
  -------         PROC          _LCD_SETPAGECOLUMN
  X:09EAH         SYMBOL        iPage
  X:09EBH         SYMBOL        iColumn
  C:D374H         LINE#         108
  C:D37EH         LINE#         109
  C:D38AH         LINE#         110
  C:D396H         LINE#         111
  C:D3A7H         LINE#         112
  -------         ENDPROC       _LCD_SETPAGECOLUMN
  -------         PROC          _LCDWRITECLR
  X:09DEH         SYMBOL        mBw
  -------         DO            
  X:09DFH         SYMBOL        iPage
  X:09E0H         SYMBOL        iColumn
  -------         ENDDO         
  C:CD65H         LINE#         114
  C:CD6AH         LINE#         115
  C:CD74H         LINE#         117
  C:CD87H         LINE#         118
  C:CD97H         LINE#         119
  C:CD9FH         LINE#         120
  C:CDA4H         LINE#         121
  C:CDB4H         LINE#         122
  C:CDBCH         LINE#         123
  C:CDC4H         LINE#         124
  C:CDCCH         LINE#         125
  -------         ENDPROC       _LCDWRITECLR
  -------         PROC          _LCDWRITEDATLINE
  X:0A00H         SYMBOL        mDat
  C:D6C5H         LINE#         126
  C:D6CAH         LINE#         127
BL51 BANKED LINKER/LOCATER V6.22                                                      09/10/2018  09:41:02  PAGE 33


  C:D6D2H         LINE#         128
  -------         ENDPROC       _LCDWRITEDATLINE
  -------         PROC          _LCDWRITECLRLINE
  X:09ECH         SYMBOL        nClr
  X:09EDH         SYMBOL        mDat
  C:D58CH         LINE#         129
  C:D596H         LINE#         130
  C:D5A0H         LINE#         131
  C:D5A8H         LINE#         132
  C:D5AAH         LINE#         133
  -------         ENDPROC       _LCDWRITECLRLINE
  -------         PROC          _LCDWRITEASCCHAR
  X:096AH         SYMBOL        iAsc
  X:096BH         SYMBOL        mBw
  -------         DO            
  X:096CH         SYMBOL        iAscMask
  X:096DH         SYMBOL        AskMaskDat
  X:096EH         SYMBOL        pAscMask
  -------         ENDDO         
  C:C8FBH         LINE#         135
  C:C905H         LINE#         136
  C:C90FH         LINE#         137
  C:C932H         LINE#         139
  C:C942H         LINE#         140
  C:C960H         LINE#         141
  C:C968H         LINE#         142
  C:C975H         LINE#         143
  C:C975H         LINE#         144
  C:C97DH         LINE#         145
  C:C985H         LINE#         146
  -------         ENDPROC       _LCDWRITEASCCHAR
  -------         PROC          _LCDWRITEASCSTRING
  X:097EH         SYMBOL        iPage
  X:097FH         SYMBOL        iColumn
  X:0980H         SYMBOL        mBw
  X:0981H         SYMBOL        pString
  C:CF9CH         LINE#         147
  C:CFABH         LINE#         148
  C:CFB8H         LINE#         150
  C:CFCAH         LINE#         151
  C:CFE1H         LINE#         152
  C:CFEBH         LINE#         153
  C:CFEDH         LINE#         154
  -------         ENDPROC       _LCDWRITEASCSTRING
  -------         PROC          LCDDRAWBUFFERREFRESH
  -------         DO            
  X:0942H         SYMBOL        Idx
  X:0943H         SYMBOL        Init
  X:0944H         SYMBOL        iPage
  X:0946H         SYMBOL        iColumn
  X:0948H         SYMBOL        iColumnCache
  -------         ENDDO         
  C:A2E2H         LINE#         159
  C:A2E2H         LINE#         160
  C:A2E7H         LINE#         161
  C:A2ECH         LINE#         162
  C:A304H         LINE#         164
BL51 BANKED LINKER/LOCATER V6.22                                                      09/10/2018  09:41:02  PAGE 34


  C:A320H         LINE#         165
  C:A33CH         LINE#         166
  C:A378H         LINE#         167
  C:A380H         LINE#         168
  C:A393H         LINE#         169
  C:A3B5H         LINE#         170
  C:A3C0H         LINE#         171
  C:A3C0H         LINE#         172
  C:A3F0H         LINE#         173
  C:A400H         LINE#         174
  C:A400H         LINE#         175
  C:A411H         LINE#         176
  C:A422H         LINE#         178
  C:A432H         LINE#         179
  C:A443H         LINE#         180
  C:A44BH         LINE#         182
  -------         ENDPROC       LCDDRAWBUFFERREFRESH
  -------         ENDMOD        LCDBSAE

  -------         MODULE        LCDDRAW
  C:0000H         SYMBOL        _ICE_DUMMY_
  C:D040H         PUBLIC        _LcdDrawVLine
  C:BEE8H         SYMBOL        _LcdDrawMaskX
  C:BFA4H         SYMBOL        _LcdDrawMaskY
  C:80BCH         PUBLIC        _LcdDrawBmpToArray
  X:0000H         PUBLIC        LcdRight
  X:0002H         PUBLIC        LcdLeft
  C:A44CH         SYMBOL        _LcdDrawPixel
  C:8CB6H         PUBLIC        _LcdDrawLine
  X:0004H         PUBLIC        LcdDir
  C:C592H         PUBLIC        _LcdDrawRect
  C:CB10H         SYMBOL        _LcdDrawStart
  C:D74BH         PUBLIC        LcdDrawInit
  C:BC77H         PUBLIC        _LcdDrawAscChar
  X:0005H         PUBLIC        LcdXpos
  X:0007H         PUBLIC        LcdYpos
  X:0009H         PUBLIC        LcdDispBuf
  X:0089H         PUBLIC        LcdDispImg
  C:C3B3H         PUBLIC        LcdDatInit
  C:95B8H         PUBLIC        _LcdDrawChsChar
  C:C4F4H         PUBLIC        _LcdDrawClr
  C:BE1FH         PUBLIC        _LcdDrawTextString
  C:A99CH         PUBLIC        _LcdDrawMiniAsc
  X:0489H         PUBLIC        LcdBw
  C:89DCH         PUBLIC        _LcdDrawInt
  C:9FF1H         PUBLIC        _LcdDrawGeChar
  C:CB90H         PUBLIC        _LcdDrawMiniBmp
  C:D1FCH         PUBLIC        _LcdDrawPixelXY
  C:86F1H         PUBLIC        _LcdDrawMiniInt
  C:C265H         SYMBOL        _LcdDrawHzLine
  C:CFEEH         PUBLIC        _LcdDrawHLine
  -------         PROC          _LCDDRAWSTART
  X:0930H         SYMBOL        x0
  X:0932H         SYMBOL        y0
  X:0934H         SYMBOL        x1
  X:0936H         SYMBOL        y1
  X:0938H         SYMBOL        DrawDir
BL51 BANKED LINKER/LOCATER V6.22                                                      09/10/2018  09:41:02  PAGE 35


  C:CB10H         LINE#         18
  C:CB28H         LINE#         19
  C:CB31H         LINE#         20
  C:CB41H         LINE#         21
  C:CB47H         LINE#         22
  C:CB49H         LINE#         23
  C:CB59H         LINE#         24
  C:CB5FH         LINE#         25
  C:CB5FH         LINE#         26
  C:CB6FH         LINE#         27
  C:CB7FH         LINE#         28
  C:CB8FH         LINE#         29
  -------         ENDPROC       _LCDDRAWSTART
  -------         PROC          _LCDDRAWPIXEL
  X:09CEH         SYMBOL        Color
  -------         DO            
  X:09D0H         SYMBOL        YColumn
  X:09D1H         SYMBOL        YByteIdxBit
  -------         ENDDO         
  C:A44CH         LINE#         30
  C:A454H         LINE#         31
  C:A46CH         LINE#         32
  C:A47FH         LINE#         34
  C:A48BH         LINE#         35
  C:A4D8H         LINE#         36
  C:A4DAH         LINE#         37
  C:A52AH         LINE#         38
  C:A52AH         LINE#         39
  C:A55CH         LINE#         41
  C:A56AH         LINE#         42
  C:A581H         LINE#         43
  C:A591H         LINE#         44
  C:A5A4H         LINE#         45
  C:A5A4H         LINE#         46
  -------         ENDPROC       _LCDDRAWPIXEL
  -------         PROC          _LCDDRAWMASKX
  X:091CH         SYMBOL        x
  X:091EH         SYMBOL        y
  X:0920H         SYMBOL        mask
  X:0921H         SYMBOL        n
  -------         DO            
  X:0922H         SYMBOL        j
  X:0923H         SYMBOL        c
  X:0924H         SYMBOL        mv
  -------         ENDDO         
  C:BEE8H         LINE#         47
  C:BEFDH         LINE#         49
  C:BF1BH         LINE#         51
  C:BF2FH         LINE#         52
  C:BF46H         LINE#         53
  C:BF5BH         LINE#         54
  C:BF9AH         LINE#         55
  C:BFA3H         LINE#         56
  -------         ENDPROC       _LCDDRAWMASKX
  -------         PROC          _LCDDRAWMASKY
  X:0926H         SYMBOL        x
  X:0928H         SYMBOL        y
BL51 BANKED LINKER/LOCATER V6.22                                                      09/10/2018  09:41:02  PAGE 36


  X:092AH         SYMBOL        mask
  X:092BH         SYMBOL        n
  -------         DO            
  X:092CH         SYMBOL        j
  X:092DH         SYMBOL        c
  X:092EH         SYMBOL        mv
  -------         ENDDO         
  C:BFA4H         LINE#         57
  C:BFB9H         LINE#         59
  C:BFD7H         LINE#         61
  C:BFEBH         LINE#         62
  C:C002H         LINE#         63
  C:C017H         LINE#         64
  C:C056H         LINE#         65
  C:C05FH         LINE#         66
  -------         ENDPROC       _LCDDRAWMASKY
  -------         PROC          _LCDDRAWHZLINE
  X:08F9H         SYMBOL        x
  X:08FBH         SYMBOL        y
  X:08FDH         SYMBOL        mask
  X:08FFH         SYMBOL        numble
  -------         DO            
  X:0901H         SYMBOL        j
  X:0903H         SYMBOL        mv
  -------         ENDDO         
  C:C265H         LINE#         67
  C:C27DH         LINE#         69
  C:C286H         LINE#         70
  C:C2A5H         LINE#         71
  C:C2E4H         LINE#         72
  C:C2FBH         LINE#         73
  C:C30BH         LINE#         74
  -------         ENDPROC       _LCDDRAWHZLINE
  -------         PROC          LCDDATINIT
  -------         DO            
  X:09EEH         SYMBOL        i
  -------         ENDDO         
  C:C3B3H         LINE#         77
  C:C3B3H         LINE#         80
  C:C3C9H         LINE#         81
  C:C3DDH         LINE#         82
  C:C3EDH         LINE#         83
  C:C406H         LINE#         84
  C:C41AH         LINE#         85
  C:C42AH         LINE#         87
  C:C42FH         LINE#         88
  C:C434H         LINE#         89
  C:C444H         LINE#         90
  C:C454H         LINE#         91
  -------         ENDPROC       LCDDATINIT
  -------         PROC          LCDDRAWINIT
  C:D74BH         LINE#         92
  C:D74BH         LINE#         93
  C:D750H         LINE#         94
  -------         ENDPROC       LCDDRAWINIT
  -------         PROC          _LCDDRAWCLR
  X:09E1H         SYMBOL        Bw
BL51 BANKED LINKER/LOCATER V6.22                                                      09/10/2018  09:41:02  PAGE 37


  -------         DO            
  X:09E2H         SYMBOL        Idx
  -------         ENDDO         
  C:C4F4H         LINE#         96
  C:C4F9H         LINE#         97
  C:C501H         LINE#         99
  C:C514H         LINE#         100
  C:C52AH         LINE#         101
  C:C543H         LINE#         102
  C:C553H         LINE#         104
  C:C56CH         LINE#         105
  C:C581H         LINE#         106
  C:C591H         LINE#         109
  -------         ENDPROC       _LCDDRAWCLR
  -------         PROC          _LCDDRAWPIXELXY
  X:0984H         SYMBOL        x
  X:0986H         SYMBOL        y
  X:0988H         SYMBOL        color
  C:D1FCH         LINE#         111
  C:D214H         LINE#         112
  C:D224H         LINE#         113
  C:D234H         LINE#         114
  C:D23FH         LINE#         115
  -------         ENDPROC       _LCDDRAWPIXELXY
  -------         PROC          _LCDDRAWHLINE
  X:094AH         SYMBOL        x1
  X:094CH         SYMBOL        x2
  X:094EH         SYMBOL        y
  X:0950H         SYMBOL        color
  C:CFEEH         LINE#         116
  C:D006H         LINE#         118
  C:D01DH         LINE#         119
  C:D03DH         LINE#         120
  C:D03FH         LINE#         121
  -------         ENDPROC       _LCDDRAWHLINE
  -------         PROC          _LCDDRAWVLINE
  X:0952H         SYMBOL        x
  X:0954H         SYMBOL        y1
  X:0956H         SYMBOL        y2
  X:0958H         SYMBOL        color
  C:D040H         LINE#         122
  C:D058H         LINE#         124
  C:D06FH         LINE#         125
  C:D08FH         LINE#         126
  C:D091H         LINE#         127
  -------         ENDPROC       _LCDDRAWVLINE
  -------         PROC          _LCDDRAWLINE
  X:087CH         SYMBOL        x0
  X:087EH         SYMBOL        y0
  X:0880H         SYMBOL        x1
  X:0882H         SYMBOL        y1
  X:0884H         SYMBOL        color
  -------         DO            
  X:0886H         SYMBOL        t
  X:0888H         SYMBOL        dx
  X:088AH         SYMBOL        dy
  X:088CH         SYMBOL        err
BL51 BANKED LINKER/LOCATER V6.22                                                      09/10/2018  09:41:02  PAGE 38


  X:088EH         SYMBOL        steep
  X:0890H         SYMBOL        ystep
  -------         ENDDO         
  C:8CB6H         LINE#         128
  C:8CCEH         LINE#         129
  C:8CD6H         LINE#         130
  C:8CFEH         LINE#         134
  C:8D5DH         LINE#         135
  C:8D69H         LINE#         136
  C:8D99H         LINE#         137
  C:8DC9H         LINE#         138
  C:8DC9H         LINE#         140
  C:8DE0H         LINE#         141
  C:8E10H         LINE#         142
  C:8E40H         LINE#         143
  C:8E40H         LINE#         145
  C:8E5FH         LINE#         146
  C:8E81H         LINE#         147
  C:8E98H         LINE#         149
  C:8EAFH         LINE#         150
  C:8EB8H         LINE#         151
  C:8EBAH         LINE#         152
  C:8EC4H         LINE#         153
  C:8EC4H         LINE#         155
  C:8EDEH         LINE#         156
  C:8EEAH         LINE#         157
  C:8F05H         LINE#         158
  C:8F07H         LINE#         159
  C:8F22H         LINE#         160
  C:8F22H         LINE#         162
  C:8F41H         LINE#         163
  C:8F51H         LINE#         164
  C:8F65H         LINE#         165
  C:8F79H         LINE#         166
  C:8F79H         LINE#         167
  C:8F8AH         LINE#         168
  -------         ENDPROC       _LCDDRAWLINE
  -------         PROC          _LCDDRAWRECT
  X:0905H         SYMBOL        x0
  X:0907H         SYMBOL        y0
  X:0909H         SYMBOL        x1
  X:090BH         SYMBOL        y1
  X:090DH         SYMBOL        color
  -------         DO            
  X:090FH         SYMBOL        y
  -------         ENDDO         
  C:C592H         LINE#         169
  C:C5AAH         LINE#         170
  C:C5B2H         LINE#         171
  C:C5C9H         LINE#         172
  C:C5F0H         LINE#         173
  C:C60BH         LINE#         174
  C:C61BH         LINE#         175
  C:C629H         LINE#         176
  C:C62BH         LINE#         177
  -------         ENDPROC       _LCDDRAWRECT
  -------         PROC          _LCDDRAWBMPTOARRAY
BL51 BANKED LINKER/LOCATER V6.22                                                      09/10/2018  09:41:02  PAGE 39


  X:0892H         SYMBOL        x
  X:0894H         SYMBOL        y
  X:0896H         SYMBOL        pImageDat
  -------         DO            
  X:0899H         SYMBOL        iPix
  X:089AH         SYMBOL        uPixDat
  X:089BH         SYMBOL        iWidth
  X:089DH         SYMBOL        iHeight
  X:089FH         SYMBOL        iDat
  X:08A1H         SYMBOL        iImgWidth
  X:08A3H         SYMBOL        iImgHeight
  -------         ENDDO         
  C:80BCH         LINE#         179
  C:80D7H         LINE#         181
  C:80E1H         LINE#         182
  C:80F1H         LINE#         184
  C:8110H         LINE#         185
  C:8150H         LINE#         186
  C:8190H         LINE#         189
  C:81FDH         LINE#         191
  C:821AH         LINE#         192
  C:823CH         LINE#         193
  C:8260H         LINE#         194
  C:8268H         LINE#         195
  C:828DH         LINE#         196
  C:8293H         LINE#         197
  C:8293H         LINE#         198
  C:82A5H         LINE#         199
  C:82B3H         LINE#         200
  C:82C3H         LINE#         202
  C:82E6H         LINE#         203
  C:82F8H         LINE#         204
  C:831DH         LINE#         205
  C:832BH         LINE#         206
  C:832DH         LINE#         207
  C:833EH         LINE#         208
  C:833EH         LINE#         210
  C:835BH         LINE#         211
  C:837AH         LINE#         212
  C:8399H         LINE#         213
  C:83BEH         LINE#         214
  C:83CEH         LINE#         215
  C:83DEH         LINE#         216
  C:83DEH         LINE#         217
  -------         ENDPROC       _LCDDRAWBMPTOARRAY
  -------         PROC          _LCDDRAWGECHAR
  X:08EAH         SYMBOL        x
  X:08ECH         SYMBOL        y
  X:08EEH         SYMBOL        width
  X:08EFH         SYMBOL        yOffset
  X:08F0H         SYMBOL        height
  X:08F1H         SYMBOL        pImageDat
  -------         DO            
  X:08F4H         SYMBOL        i
  X:08F5H         SYMBOL        mDat
  -------         ENDDO         
  C:9FF1H         LINE#         218
BL51 BANKED LINKER/LOCATER V6.22                                                      09/10/2018  09:41:02  PAGE 40


  C:A006H         LINE#         219
  C:A00BH         LINE#         220
  C:A015H         LINE#         222
  C:A02CH         LINE#         223
  C:A03AH         LINE#         224
  C:A0B5H         LINE#         225
  C:A0B7H         LINE#         226
  C:A0F1H         LINE#         227
  C:A0F1H         LINE#         228
  C:A0F9H         LINE#         229
  C:A110H         LINE#         230
  C:A110H         LINE#         231
  C:A161H         LINE#         232
  C:A16AH         LINE#         233
  -------         ENDPROC       _LCDDRAWGECHAR
  -------         PROC          _LCDDRAWASCCHAR
  X:0911H         SYMBOL        x
  X:0913H         SYMBOL        y
  X:0915H         SYMBOL        iAsc
  -------         DO            
  X:0916H         SYMBOL        iDatLine
  X:0917H         SYMBOL        cDatLine
  X:0919H         SYMBOL        pBmpAscChar
  -------         ENDDO         
  C:BC77H         LINE#         235
  C:BC8CH         LINE#         236
  C:BC91H         LINE#         237
  C:BC99H         LINE#         239
  C:BCBCH         LINE#         241
  C:BCCFH         LINE#         242
  C:BCFAH         LINE#         243
  C:BD02H         LINE#         244
  C:BD18H         LINE#         245
  C:BD18H         LINE#         246
  C:BD49H         LINE#         247
  C:BD52H         LINE#         248
  -------         ENDPROC       _LCDDRAWASCCHAR
  -------         PROC          _LCDDRAWCHSCHAR
  X:08C9H         SYMBOL        x
  X:08CBH         SYMBOL        y
  X:08CDH         SYMBOL        iChs
  -------         DO            
  X:08CFH         SYMBOL        i
  X:08D1H         SYMBOL        iChsTmp
  X:08D3H         SYMBOL        cDatLine
  X:08D5H         SYMBOL        pBmpChsChar
  -------         DO            
  X:08D8H         SYMBOL        cDatLine
  -------         ENDDO         
  -------         ENDDO         
  C:95B8H         LINE#         249
  C:95D0H         LINE#         250
  C:95D8H         LINE#         251
  C:95E8H         LINE#         253
  C:95F9H         LINE#         255
  C:9612H         LINE#         256
  C:9664H         LINE#         257
BL51 BANKED LINKER/LOCATER V6.22                                                      09/10/2018  09:41:02  PAGE 41


  C:967CH         LINE#         258
  C:967CH         LINE#         259
  C:968DH         LINE#         260
  C:96B1H         LINE#         262
  C:96CDH         LINE#         263
  C:9721H         LINE#         264
  C:9738H         LINE#         265
  C:9740H         LINE#         266
  C:9756H         LINE#         267
  C:9788H         LINE#         268
  C:9799H         LINE#         269
  -------         ENDPROC       _LCDDRAWCHSCHAR
  -------         PROC          _LCDDRAWTEXTSTRING
  X:0971H         SYMBOL        x
  X:0973H         SYMBOL        y
  X:0975H         SYMBOL        AscText
  C:BE1FH         LINE#         270
  C:BE3AH         LINE#         271
  C:BE4FH         LINE#         272
  C:BE64H         LINE#         273
  C:BE88H         LINE#         274
  C:BE96H         LINE#         275
  C:BEA0H         LINE#         276
  C:BEA2H         LINE#         277
  C:BEC4H         LINE#         278
  C:BED2H         LINE#         279
  C:BEDCH         LINE#         280
  C:BEDCH         LINE#         281
  C:BEDFH         LINE#         282
  C:BEE7H         LINE#         283
  -------         ENDPROC       _LCDDRAWTEXTSTRING
  -------         PROC          _LCDDRAWINT
  X:08A5H         SYMBOL        x
  X:08A7H         SYMBOL        y
  X:08A9H         SYMBOL        value
  X:08ABH         SYMBOL        n
  X:08ACH         SYMBOL        dot
  X:08ADH         SYMBOL        plus
  X:08AEH         SYMBOL        ar
  -------         DO            
  X:08AFH         SYMBOL        ValueTmp
  X:08B1H         SYMBOL        mask
  X:08B3H         SYMBOL        w
  X:08B4H         SYMBOL        i
  X:08B5H         SYMBOL        sz
  X:08B6H         SYMBOL        minus
  -------         ENDDO         
  C:89DCH         LINE#         294
  C:89F4H         LINE#         295
  C:89F4H         LINE#         297
  C:89FAH         LINE#         299
  C:8A0AH         LINE#         300
  C:8A10H         LINE#         301
  C:8A27H         LINE#         302
  C:8A3CH         LINE#         303
  C:8A4AH         LINE#         304
  C:8A4AH         LINE#         306
BL51 BANKED LINKER/LOCATER V6.22                                                      09/10/2018  09:41:02  PAGE 42


  C:8A5AH         LINE#         307
  C:8A92H         LINE#         308
  C:8AAEH         LINE#         310
  C:8ABEH         LINE#         311
  C:8ACDH         LINE#         312
  C:8ADEH         LINE#         314
  C:8AE7H         LINE#         315
  C:8B1DH         LINE#         317
  C:8B43H         LINE#         319
  C:8B4DH         LINE#         320
  C:8B65H         LINE#         321
  C:8B73H         LINE#         322
  C:8B73H         LINE#         324
  C:8B78H         LINE#         325
  C:8B8FH         LINE#         326
  C:8BB1H         LINE#         327
  C:8BC8H         LINE#         328
  C:8BEAH         LINE#         329
  C:8BF0H         LINE#         330
  C:8C1DH         LINE#         331
  C:8C40H         LINE#         332
  C:8C42H         LINE#         333
  C:8C56H         LINE#         334
  C:8C68H         LINE#         336
  C:8C87H         LINE#         337
  C:8C95H         LINE#         338
  C:8C95H         LINE#         339
  C:8CACH         LINE#         340
  C:8CB5H         LINE#         341
  -------         ENDPROC       _LCDDRAWINT
  -------         PROC          _LCDDRAWMINIBMP
  X:098AH         SYMBOL        x
  X:098CH         SYMBOL        y
  X:098EH         SYMBOL        iTab
  -------         DO            
  X:098FH         SYMBOL        i
  -------         ENDDO         
  C:CB90H         LINE#         343
  C:CBA5H         LINE#         344
  C:CBA5H         LINE#         345
  C:CBAAH         LINE#         346
  C:CBBAH         LINE#         347
  C:CC05H         LINE#         348
  C:CC0DH         LINE#         349
  -------         ENDPROC       _LCDDRAWMINIBMP
  -------         PROC          _LCDDRAWMINIASC
  X:095AH         SYMBOL        x
  X:095CH         SYMBOL        y
  X:095EH         SYMBOL        pAsc
  -------         DO            
  X:0961H         SYMBOL        c
  -------         ENDDO         
  C:A99CH         LINE#         350
  C:A9B7H         LINE#         351
  C:A9B7H         LINE#         352
  C:A9CCH         LINE#         353
  C:A9E0H         LINE#         354
BL51 BANKED LINKER/LOCATER V6.22                                                      09/10/2018  09:41:02  PAGE 43


  C:AA08H         LINE#         356
  C:AA40H         LINE#         357
  C:AA78H         LINE#         358
  C:AA98H         LINE#         359
  C:AAB0H         LINE#         361
  C:AAC8H         LINE#         362
  C:AACBH         LINE#         363
  -------         ENDPROC       _LCDDRAWMINIASC
  -------         PROC          _LCDDRAWMINIINT
  X:08B7H         SYMBOL        x
  X:08B9H         SYMBOL        y
  X:08BBH         SYMBOL        value
  X:08BDH         SYMBOL        n
  X:08BEH         SYMBOL        dot
  X:08BFH         SYMBOL        plus
  X:08C0H         SYMBOL        ar
  -------         DO            
  X:08C1H         SYMBOL        ValueTmp
  X:08C3H         SYMBOL        mask
  X:08C5H         SYMBOL        w
  X:08C6H         SYMBOL        sz
  X:08C7H         SYMBOL        i
  X:08C8H         SYMBOL        minus
  -------         ENDDO         
  C:86F1H         LINE#         372
  C:8709H         LINE#         373
  C:8709H         LINE#         374
  C:8719H         LINE#         375
  C:872EH         LINE#         377
  C:873EH         LINE#         378
  C:8744H         LINE#         379
  C:875BH         LINE#         380
  C:8770H         LINE#         381
  C:877EH         LINE#         382
  C:877EH         LINE#         384
  C:878EH         LINE#         385
  C:87C6H         LINE#         386
  C:87E2H         LINE#         388
  C:87F2H         LINE#         389
  C:8801H         LINE#         390
  C:8812H         LINE#         392
  C:881BH         LINE#         393
  C:8851H         LINE#         395
  C:8877H         LINE#         397
  C:8881H         LINE#         398
  C:88A7H         LINE#         399
  C:88A7H         LINE#         401
  C:88BEH         LINE#         402
  C:88E0H         LINE#         403
  C:88F1H         LINE#         404
  C:88F7H         LINE#         405
  C:88F7H         LINE#         406
  C:8919H         LINE#         407
  C:891FH         LINE#         408
  C:8948H         LINE#         409
  C:896BH         LINE#         410
  C:896DH         LINE#         411
BL51 BANKED LINKER/LOCATER V6.22                                                      09/10/2018  09:41:02  PAGE 44


  C:8979H         LINE#         412
  C:897FH         LINE#         413
  C:8989H         LINE#         414
  C:8992H         LINE#         415
  C:8992H         LINE#         416
  C:89ADH         LINE#         417
  C:89BBH         LINE#         418
  C:89BBH         LINE#         419
  C:89D2H         LINE#         420
  C:89DBH         LINE#         421
  -------         ENDPROC       _LCDDRAWMINIINT
  -------         ENDMOD        LCDDRAW

  -------         MODULE        PAGE
  C:0000H         SYMBOL        _ICE_DUMMY_
  C:D092H         PUBLIC        _PageEnter
  C:D3D5H         PUBLIC        _PageReturn
  C:CC8CH         PUBLIC        _PageInit
  C:D172H         PUBLIC        _PageGoto
  D:0012H         PUBLIC        PageStackIdx
  C:4DBDH         PUBLIC        _PageMenuProc
  C:A851H         PUBLIC        PageMenuStatDatInit
  D:0013H         PUBLIC        PageStack
  -------         PROC          _PAGEINIT
  X:09D2H         SYMBOL        Page
  X:09D5H         SYMBOL        Msg
  C:CC8CH         LINE#         7
  C:CC9CH         LINE#         8
  C:CCA6H         LINE#         9
  C:CCBEH         LINE#         10
  C:CCC2H         LINE#         11
  C:CCC5H         LINE#         12
  C:CCE2H         LINE#         13
  C:CCF9H         LINE#         14
  -------         ENDPROC       _PAGEINIT
  -------         PROC          _PAGEGOTO
  X:09D6H         SYMBOL        Page
  X:09D9H         SYMBOL        Msg
  C:D172H         LINE#         15
  C:D182H         LINE#         16
  C:D19FH         LINE#         17
  C:D1B6H         LINE#         18
  -------         ENDPROC       _PAGEGOTO
  -------         PROC          _PAGEENTER
  X:09DAH         SYMBOL        Page
  X:09DDH         SYMBOL        Msg
  C:D092H         LINE#         19
  C:D0A2H         LINE#         20
  C:D0A9H         LINE#         21
  C:D0C8H         LINE#         22
  C:D0DFH         LINE#         23
  -------         ENDPROC       _PAGEENTER
  -------         PROC          _PAGERETURN
  X:0A01H         SYMBOL        Msg
  C:D3D5H         LINE#         24
  C:D3DAH         LINE#         25
  C:D3E3H         LINE#         26
BL51 BANKED LINKER/LOCATER V6.22                                                      09/10/2018  09:41:02  PAGE 45


  C:D401H         LINE#         27
  -------         ENDPROC       _PAGERETURN
  -------         PROC          PAGEMENUSTATDATINIT
  C:A851H         LINE#         29
  C:A851H         LINE#         30
  C:A856H         LINE#         31
  C:A85BH         LINE#         32
  C:A860H         LINE#         33
  C:A865H         LINE#         34
  C:A86AH         LINE#         35
  C:A86FH         LINE#         37
  C:A874H         LINE#         38
  C:A879H         LINE#         39
  C:A87EH         LINE#         40
  C:A883H         LINE#         41
  C:A888H         LINE#         42
  C:A88DH         LINE#         44
  C:A892H         LINE#         45
  C:A897H         LINE#         46
  C:A89CH         LINE#         47
  C:A8A1H         LINE#         48
  C:A8A6H         LINE#         49
  C:A8ABH         LINE#         51
  C:A8B0H         LINE#         52
  C:A8B5H         LINE#         53
  C:A8BAH         LINE#         54
  C:A8BFH         LINE#         55
  C:A8C4H         LINE#         56
  C:A8C9H         LINE#         58
  C:A8CEH         LINE#         59
  C:A8D3H         LINE#         60
  C:A8D8H         LINE#         61
  C:A8DDH         LINE#         62
  C:A8E2H         LINE#         63
  C:A8E7H         LINE#         65
  C:A8ECH         LINE#         66
  C:A8F1H         LINE#         67
  C:A8F6H         LINE#         68
  C:A8FBH         LINE#         69
  C:A900H         LINE#         70
  C:A905H         LINE#         72
  C:A90AH         LINE#         73
  C:A90FH         LINE#         74
  C:A914H         LINE#         75
  C:A919H         LINE#         76
  C:A91EH         LINE#         77
  C:A923H         LINE#         79
  C:A928H         LINE#         80
  C:A92DH         LINE#         81
  C:A932H         LINE#         82
  C:A937H         LINE#         83
  C:A93CH         LINE#         84
  C:A941H         LINE#         86
  C:A946H         LINE#         87
  C:A94BH         LINE#         88
  C:A950H         LINE#         89
  C:A955H         LINE#         90
BL51 BANKED LINKER/LOCATER V6.22                                                      09/10/2018  09:41:02  PAGE 46


  C:A95AH         LINE#         91
  C:A95FH         LINE#         93
  C:A964H         LINE#         94
  C:A969H         LINE#         95
  C:A96EH         LINE#         96
  C:A973H         LINE#         97
  C:A978H         LINE#         98
  C:A97DH         LINE#         100
  C:A982H         LINE#         101
  C:A987H         LINE#         102
  C:A98CH         LINE#         103
  C:A991H         LINE#         104
  C:A996H         LINE#         105
  C:A99BH         LINE#         106
  -------         ENDPROC       PAGEMENUSTATDATINIT
  -------         PROC          _PAGEMENUPROC
  X:0939H         SYMBOL        pmi
  X:093CH         SYMBOL        pms
  -------         DO            
  D:0008H         SYMBOL        i
  D:0009H         SYMBOL        idx
  D:000AH         SYMBOL        s
  D:000CH         SYMBOL        p
  D:000EH         SYMBOL        x
  D:0010H         SYMBOL        y
  X:093FH         SYMBOL        mi
  -------         ENDDO         
  C:4DBDH         LINE#         108
  C:4DC8H         LINE#         109
  C:4DCEH         LINE#         110
  C:4DE6H         LINE#         111
  C:4E28H         LINE#         113
  C:4E43H         LINE#         114
  C:4E5CH         LINE#         115
  C:4E7CH         LINE#         116
  C:4EADH         LINE#         117
  C:4EADH         LINE#         119
  C:4EC9H         LINE#         120
  C:4EE7H         LINE#         121
  C:4F28H         LINE#         122
  C:4F35H         LINE#         123
  C:4F6FH         LINE#         124
  C:4F72H         LINE#         125
  C:4FB3H         LINE#         126
  C:4FC0H         LINE#         127
  C:4FFAH         LINE#         128
  C:4FFAH         LINE#         129
  C:4FFAH         LINE#         131
  C:5019H         LINE#         132
  C:504AH         LINE#         133
  C:5064H         LINE#         134
  C:5089H         LINE#         135
  C:508BH         LINE#         137
  C:5091H         LINE#         138
  C:509EH         LINE#         140
  C:50C2H         LINE#         141
  C:50F8H         LINE#         142
BL51 BANKED LINKER/LOCATER V6.22                                                      09/10/2018  09:41:02  PAGE 47


  C:5124H         LINE#         143
  C:513DH         LINE#         144
  C:516EH         LINE#         146
  C:5198H         LINE#         147
  C:51A0H         LINE#         148
  C:51B7H         LINE#         149
  C:51B9H         LINE#         150
  C:51D0H         LINE#         151
  C:51D0H         LINE#         152
  C:51D0H         LINE#         154
  C:51FDH         LINE#         155
  C:5236H         LINE#         156
  C:5270H         LINE#         157
  C:528DH         LINE#         158
  C:52BDH         LINE#         159
  C:537EH         LINE#         160
  C:543FH         LINE#         162
  C:546CH         LINE#         163
  C:54EBH         LINE#         164
  C:556BH         LINE#         165
  C:556EH         LINE#         166
  C:55F4H         LINE#         167
  C:55FAH         LINE#         168
  C:55FAH         LINE#         169
  C:55FAH         LINE#         171
  C:5620H         LINE#         172
  C:567EH         LINE#         173
  C:5695H         LINE#         174
  C:56F6H         LINE#         175
  C:570DH         LINE#         176
  C:570FH         LINE#         177
  C:5726H         LINE#         178
  C:574FH         LINE#         179
  C:574FH         LINE#         180
  C:574FH         LINE#         181
  C:574FH         LINE#         182
  C:5754H         LINE#         183
  C:5764H         LINE#         184
  C:5764H         LINE#         185
  C:5767H         LINE#         186
  C:577CH         LINE#         187
  C:577CH         LINE#         189
  C:5797H         LINE#         190
  C:57A2H         LINE#         191
  C:57BBH         LINE#         192
  C:57F9H         LINE#         193
  C:5814H         LINE#         194
  C:5833H         LINE#         195
  C:5833H         LINE#         196
  C:5833H         LINE#         197
  C:5833H         LINE#         198
  C:583EH         LINE#         199
  C:585AH         LINE#         200
  C:589BH         LINE#         201
  C:58B7H         LINE#         202
  C:58D6H         LINE#         203
  C:58D6H         LINE#         204
BL51 BANKED LINKER/LOCATER V6.22                                                      09/10/2018  09:41:02  PAGE 48


  C:58D6H         LINE#         205
  C:58D6H         LINE#         206
  C:58D9H         LINE#         207
  C:58E1H         LINE#         208
  C:58FCH         LINE#         209
  C:5912H         LINE#         210
  C:5914H         LINE#         211
  C:5941H         LINE#         212
  C:5941H         LINE#         213
  C:5957H         LINE#         214
  C:5957H         LINE#         215
  C:595FH         LINE#         216
  C:5991H         LINE#         217
  C:59A7H         LINE#         218
  C:59A9H         LINE#         219
  C:59BEH         LINE#         220
  C:59BEH         LINE#         221
  C:59D4H         LINE#         222
  C:59D4H         LINE#         223
  C:59D4H         LINE#         225
  C:5A2DH         LINE#         226
  C:5A8EH         LINE#         227
  -------         ENDPROC       _PAGEMENUPROC
  -------         ENDMOD        PAGE

  -------         MODULE        PAGEESC
  C:0000H         SYMBOL        _ICE_DUMMY_
  X:0676H         PUBLIC        ShowTextMaxTemp
  X:068AH         PUBLIC        ShowText3thSoftWare
  X:069EH         PUBLIC        ShowText3thHardware
  C:CA8EH         PUBLIC        _PageEscParam
  X:06B2H         PUBLIC        ShowTextMaxCurr
  X:06C6H         PUBLIC        ShowTextMinVolt
  X:06DAH         PUBLIC        ShowText3thFirmware
  C:AACCH         PUBLIC        _PageEsc3thAbout
  C:B100H         PUBLIC        MenuItemParamEsc
  X:06EEH         PUBLIC        MaxTemp
  X:06F2H         PUBLIC        MaxCurr
  D:008CH         PUBLIC        TH0
  X:06F6H         PUBLIC        MinVolt
  D:008AH         PUBLIC        TL0
  X:06FAH         PUBLIC        EscMs
  C:B890H         PUBLIC        _PageEsc1thRst
  C:BA88H         PUBLIC        _PageEsc2thRst
  C:BB81H         PUBLIC        _PageEsc3thRst
  B:0088H.4       PUBLIC        TCON_TR0
  C:9CCDH         PUBLIC        ParamEscDatProccess
  -------         PROC          PARAMESCDATPROCCESS
  C:9CCDH         LINE#         25
  C:9CCDH         LINE#         26
  C:9D07H         LINE#         27
  C:9D41H         LINE#         29
  C:9D9CH         LINE#         30
  C:9DD6H         LINE#         32
  C:9E31H         LINE#         33
  C:9E6BH         LINE#         34
  -------         ENDPROC       PARAMESCDATPROCCESS
BL51 BANKED LINKER/LOCATER V6.22                                                      09/10/2018  09:41:02  PAGE 49


  -------         PROC          _PAGEESCPARAM
  X:0A02H         SYMBOL        event
  C:CA8EH         LINE#         36
  C:CA93H         LINE#         37
  C:CA9DH         LINE#         38
  C:CAA2H         LINE#         39
  C:CAAAH         LINE#         40
  C:CAB9H         LINE#         41
  C:CABFH         LINE#         42
  C:CABFH         LINE#         43
  C:CACEH         LINE#         44
  C:CAD4H         LINE#         45
  C:CAD7H         LINE#         46
  C:CAD7H         LINE#         48
  C:CADAH         LINE#         49
  C:CB00H         LINE#         51
  C:CB08H         LINE#         52
  C:CB0DH         LINE#         53
  C:CB0DH         LINE#         54
  C:CB0FH         LINE#         55
  -------         ENDPROC       _PAGEESCPARAM
  -------         PROC          _PAGEESC1THRST
  X:0A03H         SYMBOL        event
  C:B890H         LINE#         57
  C:B895H         LINE#         58
  C:B89FH         LINE#         59
  C:B8A4H         LINE#         60
  C:B8B5H         LINE#         61
  C:B8C6H         LINE#         62
  C:B8D7H         LINE#         63
  C:B8DAH         LINE#         64
  C:B8DAH         LINE#         66
  C:B8E5H         LINE#         67
  C:B900H         LINE#         68
  C:B91BH         LINE#         69
  C:B936H         LINE#         70
  C:B951H         LINE#         71
  C:B96CH         LINE#         72
  C:B97AH         LINE#         73
  C:B97FH         LINE#         74
  C:B97FH         LINE#         75
  C:B987H         LINE#         76
  C:B98CH         LINE#         77
  C:B98CH         LINE#         78
  C:B98EH         LINE#         79
  -------         ENDPROC       _PAGEESC1THRST
  -------         PROC          _PAGEESC2THRST
  X:0A04H         SYMBOL        event
  C:BA88H         LINE#         80
  C:BA8DH         LINE#         81
  C:BA97H         LINE#         82
  C:BA9CH         LINE#         83
  C:BAADH         LINE#         84
  C:BABEH         LINE#         85
  C:BACFH         LINE#         86
  C:BAD2H         LINE#         87
  C:BAD2H         LINE#         89
BL51 BANKED LINKER/LOCATER V6.22                                                      09/10/2018  09:41:02  PAGE 50


  C:BADDH         LINE#         90
  C:BAF8H         LINE#         91
  C:BB13H         LINE#         92
  C:BB2EH         LINE#         93
  C:BB46H         LINE#         94
  C:BB5EH         LINE#         95
  C:BB6CH         LINE#         96
  C:BB71H         LINE#         97
  C:BB71H         LINE#         98
  C:BB79H         LINE#         99
  C:BB7EH         LINE#         100
  C:BB7EH         LINE#         101
  C:BB80H         LINE#         102
  -------         ENDPROC       _PAGEESC2THRST
  -------         PROC          _PAGEESC3THRST
  X:0A05H         SYMBOL        event
  C:BB81H         LINE#         104
  C:BB86H         LINE#         105
  C:BB90H         LINE#         106
  C:BB95H         LINE#         107
  C:BBA6H         LINE#         108
  C:BBB7H         LINE#         109
  C:BBC8H         LINE#         110
  C:BBCBH         LINE#         111
  C:BBCBH         LINE#         113
  C:BBD6H         LINE#         114
  C:BBF1H         LINE#         115
  C:BC0CH         LINE#         116
  C:BC24H         LINE#         117
  C:BC3CH         LINE#         118
  C:BC54H         LINE#         119
  C:BC62H         LINE#         120
  C:BC67H         LINE#         121
  C:BC67H         LINE#         122
  C:BC6FH         LINE#         123
  C:BC74H         LINE#         124
  C:BC74H         LINE#         125
  C:BC76H         LINE#         126
  -------         ENDPROC       _PAGEESC3THRST
  -------         PROC          _PAGEESC3THABOUT
  X:09F0H         SYMBOL        event
  -------         DO            
  X:09F1H         SYMBOL        i
  -------         ENDDO         
  C:AACCH         LINE#         127
  C:AAD1H         LINE#         130
  C:AADBH         LINE#         131
  C:AAE0H         LINE#         132
  C:AAF1H         LINE#         133
  C:AB02H         LINE#         134
  C:AB13H         LINE#         135
  C:AB16H         LINE#         136
  C:AB16H         LINE#         138
  C:AB21H         LINE#         139
  C:AB3BH         LINE#         140
  C:AB44H         LINE#         141
  C:AB52H         LINE#         142
BL51 BANKED LINKER/LOCATER V6.22                                                      09/10/2018  09:41:02  PAGE 51


  C:AB54H         LINE#         143
  C:AB62H         LINE#         144
  C:AB70H         LINE#         146
  C:AB80H         LINE#         147
  C:ABACH         LINE#         148
  C:ABB4H         LINE#         150
  C:ABB7H         LINE#         151
  C:ABBAH         LINE#         152
  C:ABBCH         LINE#         153
  C:ABBCH         LINE#         154
  C:ABBCH         LINE#         156
  C:ABC1H         LINE#         157
  C:ABD2H         LINE#         158
  C:ABD5H         LINE#         159
  C:ABDEH         LINE#         160
  C:ABE3H         LINE#         161
  C:ABE3H         LINE#         162
  C:ABEBH         LINE#         163
  C:ABF0H         LINE#         164
  C:ABF0H         LINE#         165
  C:ABF2H         LINE#         166
  -------         ENDPROC       _PAGEESC3THABOUT
  -------         ENDMOD        PAGEESC

  -------         MODULE        PAGEESC1TH
  C:0000H         SYMBOL        _ICE_DUMMY_
  X:048AH         PUBLIC        ShowText1thAirCutVoltage
  X:049EH         PUBLIC        ShowText1thAirLipoCells
  C:4003H         PUBLIC        Esc1thDatProccess
  X:04B2H         PUBLIC        ShowText1thArTime
  C:AD12H         PUBLIC        _PageEsc1th
  X:04C6H         PUBLIC        ShowText1thCutType
  X:04DAH         PUBLIC        ShowText1thBrakeForce
  X:04EEH         PUBLIC        ShowText1thStartUpTime
  X:0502H         PUBLIC        ShowText1thFlightMode
  X:0516H         PUBLIC        ShowText1thTiming
  X:052AH         PUBLIC        ShowText1thGovParamI
  X:053EH         PUBLIC        ShowText1thGovParamP
  C:8575H         PUBLIC        MenuItemEsc1th
  X:0552H         PUBLIC        ShowText1thAirBecVoltage
  X:0566H         PUBLIC        ShowText1thBrakeType
  X:057AH         PUBLIC        ShowText1thArReStartTime
  X:058EH         PUBLIC        Esc1thMs
  X:0594H         PUBLIC        ShowText1thRotateDirection
  X:05A8H         PUBLIC        ShowText1thActiveFw
  -------         PROC          _PAGEESC1TH
  X:0A06H         SYMBOL        event
  C:AD12H         LINE#         48
  C:AD17H         LINE#         49
  C:AD21H         LINE#         50
  C:AD26H         LINE#         51
  C:AD2EH         LINE#         52
  C:AD39H         LINE#         53
  C:AD48H         LINE#         54
  C:AD4EH         LINE#         55
  C:AD4EH         LINE#         56
  C:AD5DH         LINE#         57
BL51 BANKED LINKER/LOCATER V6.22                                                      09/10/2018  09:41:02  PAGE 52


  C:AD63H         LINE#         58
  C:AD66H         LINE#         59
  C:AD66H         LINE#         61
  C:AD69H         LINE#         62
  C:AD8FH         LINE#         64
  C:AD97H         LINE#         65
  C:ADBBH         LINE#         66
  C:ADDFH         LINE#         67
  C:ADE1H         LINE#         68
  C:ADE7H         LINE#         69
  C:ADF5H         LINE#         70
  C:ADF5H         LINE#         71
  C:ADF5H         LINE#         72
  C:ADFDH         LINE#         73
  C:AE06H         LINE#         74
  C:AE0BH         LINE#         75
  C:AE19H         LINE#         76
  C:AE1BH         LINE#         77
  C:AE20H         LINE#         78
  C:AE20H         LINE#         79
  C:AE20H         LINE#         80
  C:AE22H         LINE#         81
  -------         ENDPROC       _PAGEESC1TH
  -------         PROC          ESC1THDATPROCCESS
  C:4003H         LINE#         83
  C:4003H         LINE#         84
  C:4029H         LINE#         85
  C:404FH         LINE#         86
  C:4060H         LINE#         87
  C:4086H         LINE#         88
  C:4097H         LINE#         89
  C:40BDH         LINE#         90
  C:40CDH         LINE#         91
  C:40F3H         LINE#         92
  C:4103H         LINE#         93
  C:4129H         LINE#         94
  C:4129H         LINE#         96
  C:414FH         LINE#         97
  C:4175H         LINE#         98
  C:4185H         LINE#         99
  C:41ABH         LINE#         100
  C:41ADH         LINE#         101
  C:41E3H         LINE#         102
  C:41E3H         LINE#         104
  C:4209H         LINE#         105
  C:422FH         LINE#         106
  C:423FH         LINE#         107
  C:4265H         LINE#         108
  C:4275H         LINE#         109
  C:429BH         LINE#         110
  C:429BH         LINE#         112
  C:42C1H         LINE#         113
  C:42E7H         LINE#         114
  C:42F8H         LINE#         115
  C:431EH         LINE#         116
  C:4321H         LINE#         117
  C:432FH         LINE#         118
BL51 BANKED LINKER/LOCATER V6.22                                                      09/10/2018  09:41:02  PAGE 53


  C:437AH         LINE#         119
  C:437CH         LINE#         120
  C:43C7H         LINE#         121
  C:43C7H         LINE#         122
  C:43C7H         LINE#         124
  C:43EDH         LINE#         125
  C:4413H         LINE#         126
  C:4424H         LINE#         127
  C:446FH         LINE#         128
  C:4471H         LINE#         129
  C:44BCH         LINE#         130
  C:44BCH         LINE#         132
  C:44E2H         LINE#         133
  C:4508H         LINE#         134
  C:4519H         LINE#         135
  C:4557H         LINE#         136
  C:4559H         LINE#         137
  C:4597H         LINE#         138
  C:4597H         LINE#         140
  C:45BDH         LINE#         141
  C:45E3H         LINE#         142
  C:45F3H         LINE#         143
  C:4629H         LINE#         144
  C:462BH         LINE#         145
  C:4661H         LINE#         146
  C:4661H         LINE#         148
  C:4687H         LINE#         149
  C:46ADH         LINE#         150
  C:46BDH         LINE#         151
  C:46F3H         LINE#         152
  C:46F5H         LINE#         153
  C:472BH         LINE#         154
  C:472BH         LINE#         156
  C:4751H         LINE#         157
  C:4777H         LINE#         158
  C:4788H         LINE#         159
  C:47C6H         LINE#         160
  C:47C8H         LINE#         161
  C:4806H         LINE#         162
  C:4806H         LINE#         164
  C:482CH         LINE#         165
  C:4852H         LINE#         166
  C:4863H         LINE#         167
  C:48B1H         LINE#         168
  C:48B3H         LINE#         169
  C:4901H         LINE#         170
  C:4901H         LINE#         172
  C:4927H         LINE#         173
  C:494DH         LINE#         174
  C:495EH         LINE#         175
  C:4984H         LINE#         176
  C:4995H         LINE#         177
  C:49BBH         LINE#         178
  C:49CBH         LINE#         179
  C:49F1H         LINE#         180
  C:4A01H         LINE#         181
  C:4A27H         LINE#         182
BL51 BANKED LINKER/LOCATER V6.22                                                      09/10/2018  09:41:02  PAGE 54


  C:4A27H         LINE#         184
  C:4A4DH         LINE#         185
  C:4A73H         LINE#         186
  C:4A83H         LINE#         187
  C:4AB9H         LINE#         188
  C:4ABBH         LINE#         189
  C:4AF1H         LINE#         190
  C:4AF1H         LINE#         192
  C:4B17H         LINE#         193
  C:4B3DH         LINE#         194
  C:4B4EH         LINE#         195
  C:4B74H         LINE#         196
  C:4B85H         LINE#         197
  C:4BABH         LINE#         198
  C:4BBCH         LINE#         199
  C:4BE2H         LINE#         200
  C:4BF2H         LINE#         201
  C:4C18H         LINE#         202
  C:4C28H         LINE#         203
  C:4C4EH         LINE#         204
  C:4C4EH         LINE#         206
  C:4C74H         LINE#         207
  C:4C9AH         LINE#         208
  C:4CAAH         LINE#         209
  C:4CD0H         LINE#         210
  C:4CE0H         LINE#         211
  C:4D06H         LINE#         212
  C:4D06H         LINE#         214
  C:4D2CH         LINE#         215
  C:4D52H         LINE#         216
  C:4D61H         LINE#         217
  C:4D87H         LINE#         218
  C:4D96H         LINE#         219
  C:4DBCH         LINE#         220
  C:4DBCH         LINE#         221
  -------         ENDPROC       ESC1THDATPROCCESS
  -------         ENDMOD        PAGEESC1TH

  -------         MODULE        PAGEESC2TH
  C:0000H         SYMBOL        _ICE_DUMMY_
  X:05BCH         PUBLIC        ShowText2thRunMode
  C:AE23H         PUBLIC        _PageEsc2th
  X:05D0H         PUBLIC        ShowText2thBecVoltage
  X:05E4H         PUBLIC        ShowText2thDragBrake
  X:05F8H         PUBLIC        ShowText2thEscThermal
  C:92C1H         PUBLIC        MenuItemEsc2th
  C:6C35H         PUBLIC        Esc2thDatPreproccess
  X:060CH         PUBLIC        ShowText2thPunch
  X:0620H         PUBLIC        ShowText2thCutVoltage
  X:0634H         PUBLIC        ShowText2thMaxReverse
  X:0648H         PUBLIC        ShowText2thLipoCells
  X:065CH         PUBLIC        ShowText2thMaxBrake
  X:0670H         PUBLIC        Esc2thMs
  -------         PROC          _PAGEESC2TH
  X:0A07H         SYMBOL        event
  C:AE23H         LINE#         36
  C:AE28H         LINE#         37
BL51 BANKED LINKER/LOCATER V6.22                                                      09/10/2018  09:41:02  PAGE 55


  C:AE32H         LINE#         38
  C:AE37H         LINE#         39
  C:AE3FH         LINE#         40
  C:AE4AH         LINE#         41
  C:AE59H         LINE#         42
  C:AE5FH         LINE#         43
  C:AE5FH         LINE#         44
  C:AE6EH         LINE#         45
  C:AE74H         LINE#         46
  C:AE77H         LINE#         47
  C:AE77H         LINE#         49
  C:AE7AH         LINE#         50
  C:AEA0H         LINE#         52
  C:AEA8H         LINE#         53
  C:AECCH         LINE#         54
  C:AEF0H         LINE#         55
  C:AEF2H         LINE#         56
  C:AEF8H         LINE#         57
  C:AF06H         LINE#         58
  C:AF06H         LINE#         59
  C:AF06H         LINE#         60
  C:AF0EH         LINE#         61
  C:AF17H         LINE#         62
  C:AF1CH         LINE#         63
  C:AF2AH         LINE#         64
  C:AF2CH         LINE#         65
  C:AF31H         LINE#         66
  C:AF31H         LINE#         67
  C:AF31H         LINE#         68
  C:AF33H         LINE#         69
  -------         ENDPROC       _PAGEESC2TH
  -------         PROC          ESC2THDATPREPROCCESS
  C:6C35H         LINE#         71
  C:6C35H         LINE#         72
  C:6C5BH         LINE#         73
  C:6C81H         LINE#         74
  C:6C91H         LINE#         75
  C:6CB7H         LINE#         76
  C:6CC7H         LINE#         77
  C:6CEDH         LINE#         78
  C:6CEDH         LINE#         80
  C:6D13H         LINE#         81
  C:6D39H         LINE#         82
  C:6D49H         LINE#         83
  C:6D6FH         LINE#         84
  C:6D71H         LINE#         85
  C:6DA7H         LINE#         86
  C:6DA7H         LINE#         88
  C:6DCDH         LINE#         89
  C:6DF3H         LINE#         90
  C:6E04H         LINE#         91
  C:6E2AH         LINE#         92
  C:6E2DH         LINE#         93
  C:6E3BH         LINE#         94
  C:6E86H         LINE#         95
  C:6E88H         LINE#         96
  C:6ED3H         LINE#         97
BL51 BANKED LINKER/LOCATER V6.22                                                      09/10/2018  09:41:02  PAGE 56


  C:6ED3H         LINE#         98
  C:6ED3H         LINE#         100
  C:6EF9H         LINE#         101
  C:6F1FH         LINE#         102
  C:6F2FH         LINE#         103
  C:6F55H         LINE#         104
  C:6F65H         LINE#         105
  C:6F8BH         LINE#         106
  C:6F8BH         LINE#         108
  C:6FB1H         LINE#         109
  C:6FD7H         LINE#         110
  C:6FE7H         LINE#         111
  C:700DH         LINE#         112
  C:701DH         LINE#         113
  C:7043H         LINE#         114
  C:7043H         LINE#         116
  C:7069H         LINE#         117
  C:708FH         LINE#         118
  C:70A0H         LINE#         119
  C:70C6H         LINE#         120
  C:70C9H         LINE#         121
  C:70D7H         LINE#         122
  C:7114H         LINE#         123
  C:7116H         LINE#         124
  C:7153H         LINE#         125
  C:7153H         LINE#         126
  C:7153H         LINE#         128
  C:7179H         LINE#         129
  C:719FH         LINE#         130
  C:71AFH         LINE#         131
  C:71D5H         LINE#         132
  C:71E5H         LINE#         133
  C:720BH         LINE#         134
  C:720BH         LINE#         136
  C:7231H         LINE#         137
  C:7257H         LINE#         138
  C:7267H         LINE#         139
  C:729DH         LINE#         140
  C:729FH         LINE#         141
  C:72D5H         LINE#         142
  C:72D5H         LINE#         144
  C:72FBH         LINE#         145
  C:7321H         LINE#         146
  C:7330H         LINE#         147
  C:736DH         LINE#         148
  C:736EH         LINE#         149
  C:73ABH         LINE#         150
  C:73ABH         LINE#         151
  -------         ENDPROC       ESC2THDATPREPROCCESS
  -------         ENDMOD        PAGEESC2TH

  -------         MODULE        PAGEESC3TH
  C:0000H         SYMBOL        _ICE_DUMMY_
  X:0700H         PUBLIC        ShowText3thCutOffVoltage
  C:73ACH         PUBLIC        Esc3thDatProccess
  C:AF34H         PUBLIC        _PageEsc3th
  X:0714H         PUBLIC        ShowText3thBrake
BL51 BANKED LINKER/LOCATER V6.22                                                      09/10/2018  09:41:02  PAGE 57


  X:0728H         PUBLIC        ShowText3thCutOffType
  X:073CH         PUBLIC        ShowText3thTimingMode
  C:A79DH         PUBLIC        MenuItemEsc3th
  X:0750H         PUBLIC        ShowText3thBatteryType
  X:0764H         PUBLIC        Esc3thMs
  X:076AH         PUBLIC        ShowText3thStartMode
  -------         PROC          _PAGEESC3TH
  X:0A08H         SYMBOL        event
  C:AF34H         LINE#         28
  C:AF39H         LINE#         29
  C:AF43H         LINE#         30
  C:AF48H         LINE#         31
  C:AF50H         LINE#         32
  C:AF5BH         LINE#         33
  C:AF6AH         LINE#         34
  C:AF70H         LINE#         35
  C:AF70H         LINE#         36
  C:AF7FH         LINE#         37
  C:AF85H         LINE#         38
  C:AF88H         LINE#         39
  C:AF88H         LINE#         41
  C:AF8BH         LINE#         42
  C:AFB1H         LINE#         44
  C:AFB9H         LINE#         45
  C:AFDCH         LINE#         46
  C:AFFFH         LINE#         47
  C:B001H         LINE#         48
  C:B007H         LINE#         49
  C:B015H         LINE#         50
  C:B015H         LINE#         51
  C:B015H         LINE#         52
  C:B01DH         LINE#         53
  C:B026H         LINE#         54
  C:B02BH         LINE#         55
  C:B039H         LINE#         56
  C:B03BH         LINE#         57
  C:B040H         LINE#         58
  C:B040H         LINE#         59
  C:B040H         LINE#         60
  C:B042H         LINE#         61
  -------         ENDPROC       _PAGEESC3TH
  -------         PROC          ESC3THDATPROCCESS
  C:73ACH         LINE#         63
  C:73ACH         LINE#         64
  C:73D2H         LINE#         65
  C:73F8H         LINE#         66
  C:7408H         LINE#         67
  C:742EH         LINE#         68
  C:743EH         LINE#         69
  C:7464H         LINE#         70
  C:7464H         LINE#         72
  C:748AH         LINE#         73
  C:74B0H         LINE#         74
  C:74C0H         LINE#         75
  C:74E6H         LINE#         76
  C:74F6H         LINE#         77
  C:751CH         LINE#         78
BL51 BANKED LINKER/LOCATER V6.22                                                      09/10/2018  09:41:02  PAGE 58


  C:751CH         LINE#         80
  C:7542H         LINE#         81
  C:7568H         LINE#         82
  C:7578H         LINE#         83
  C:759EH         LINE#         84
  C:75AEH         LINE#         85
  C:75D4H         LINE#         86
  C:75D4H         LINE#         88
  C:75FAH         LINE#         89
  C:7620H         LINE#         90
  C:7631H         LINE#         91
  C:7657H         LINE#         92
  C:7667H         LINE#         93
  C:768DH         LINE#         94
  C:769DH         LINE#         95
  C:76C3H         LINE#         96
  C:76C3H         LINE#         98
  C:76E9H         LINE#         99
  C:770FH         LINE#         100
  C:7720H         LINE#         101
  C:7746H         LINE#         102
  C:7756H         LINE#         103
  C:777CH         LINE#         104
  C:778CH         LINE#         105
  C:77B2H         LINE#         106
  C:77B2H         LINE#         108
  C:77D8H         LINE#         109
  C:77FEH         LINE#         110
  C:780DH         LINE#         111
  C:7833H         LINE#         112
  C:7842H         LINE#         113
  C:7868H         LINE#         114
  C:7877H         LINE#         115
  C:789DH         LINE#         116
  C:789DH         LINE#         117
  -------         ENDPROC       ESC3THDATPROCCESS
  -------         ENDMOD        PAGEESC3TH

  -------         MODULE        PAGELIPOCELLS
  C:0000H         SYMBOL        _ICE_DUMMY_
  C:7D21H         PUBLIC        _PageBatVolt
  X:0990H         PUBLIC        LipoCellsEscMs
  -------         PROC          _PAGEBATVOLT
  X:0A09H         SYMBOL        event
  C:7D21H         LINE#         6
  C:7D26H         LINE#         7
  C:7D26H         LINE#         8
  C:7D30H         LINE#         9
  C:7D35H         LINE#         10
  C:7D3DH         LINE#         11
  C:7D4CH         LINE#         12
  C:7D51H         LINE#         13
  C:7D57H         LINE#         14
  C:7D57H         LINE#         15
  C:7D5DH         LINE#         16
  C:7D60H         LINE#         17
  C:7D6BH         LINE#         18
BL51 BANKED LINKER/LOCATER V6.22                                                      09/10/2018  09:41:02  PAGE 59


  C:7D73H         LINE#         19
  C:7D78H         LINE#         20
  C:7D86H         LINE#         21
  C:7D86H         LINE#         22
  C:7D86H         LINE#         24
  C:7D91H         LINE#         25
  C:7D9AH         LINE#         26
  C:7DBAH         LINE#         28
  C:7DC6H         LINE#         29
  C:7DD7H         LINE#         30
  C:7DE7H         LINE#         31
  C:7DF8H         LINE#         32
  C:7DF8H         LINE#         33
  C:7E10H         LINE#         34
  C:7E10H         LINE#         36
  C:7E1CH         LINE#         37
  C:7E3EH         LINE#         38
  C:7E60H         LINE#         39
  C:7E82H         LINE#         40
  C:7EA4H         LINE#         41
  C:7EB5H         LINE#         42
  C:7EB5H         LINE#         44
  C:7EC1H         LINE#         45
  C:7F29H         LINE#         46
  C:7F91H         LINE#         47
  C:7FF9H         LINE#         48
  C:8061H         LINE#         49
  C:8096H         LINE#         50
  C:8096H         LINE#         52
  C:809BH         LINE#         53
  C:809EH         LINE#         54
  C:80A4H         LINE#         55
  C:80A4H         LINE#         57
  C:80B4H         LINE#         58
  C:80B9H         LINE#         59
  C:80B9H         LINE#         60
  C:80BBH         LINE#         61
  -------         ENDPROC       _PAGEBATVOLT
  -------         ENDMOD        PAGELIPOCELLS

  -------         MODULE        PAGESTABILIZER
  C:0000H         SYMBOL        _ICE_DUMMY_
  X:0996H         PUBLIC        AutoFlyMs
  C:A211H         PUBLIC        PageOptionWingType
  C:B150H         PUBLIC        _PageAutoFly
  C:A21AH         PUBLIC        MenuItemAutoFly
  C:A205H         PUBLIC        PageOptionMountingDir
  -------         PROC          _PAGEAUTOFLY
  X:0A0AH         SYMBOL        event
  C:B150H         LINE#         25
  C:B155H         LINE#         26
  C:B15FH         LINE#         27
  C:B164H         LINE#         28
  C:B16CH         LINE#         29
  C:B17BH         LINE#         30
  C:B181H         LINE#         31
  C:B181H         LINE#         32
BL51 BANKED LINKER/LOCATER V6.22                                                      09/10/2018  09:41:02  PAGE 60


  C:B190H         LINE#         33
  C:B196H         LINE#         34
  C:B199H         LINE#         35
  C:B199H         LINE#         37
  C:B1A4H         LINE#         38
  C:B1CAH         LINE#         40
  C:B1D2H         LINE#         41
  C:B1F5H         LINE#         42
  C:B218H         LINE#         43
  C:B21AH         LINE#         44
  C:B220H         LINE#         45
  C:B22EH         LINE#         46
  C:B22EH         LINE#         47
  C:B22EH         LINE#         49
  C:B236H         LINE#         50
  C:B23FH         LINE#         51
  C:B244H         LINE#         52
  C:B252H         LINE#         53
  C:B254H         LINE#         54
  C:B259H         LINE#         55
  C:B259H         LINE#         56
  C:B259H         LINE#         58
  C:B25BH         LINE#         59
  -------         ENDPROC       _PAGEAUTOFLY
  -------         ENDMOD        PAGESTABILIZER

  -------         MODULE        PAGESTABILIZERBUILD
  C:0000H         SYMBOL        _ICE_DUMMY_
  D:003FH         PUBLIC        PageStablizerBindTickOverFlow
  X:0A0CH         PUBLIC        IdxStatue
  C:9963H         PUBLIC        _PageStablizerBuild
  B:0088H.2       PUBLIC        TCON_IT1
  D:0040H         PUBLIC        PageStablizerBindTickCnt
  -------         PROC          _PAGESTABLIZERBUILD
  X:0A0BH         SYMBOL        event
  C:9963H         LINE#         8
  C:9968H         LINE#         9
  C:9972H         LINE#         10
  C:9977H         LINE#         11
  C:9988H         LINE#         12
  C:99A0H         LINE#         13
  C:99A9H         LINE#         14
  C:99AEH         LINE#         15
  C:99B7H         LINE#         16
  C:99BAH         LINE#         17
  C:99C2H         LINE#         18
  C:99C7H         LINE#         19
  C:99C7H         LINE#         21
  C:99C9H         LINE#         22
  C:99CEH         LINE#         23
  C:99D9H         LINE#         24
  C:99DBH         LINE#         25
  C:99DEH         LINE#         26
  C:99DEH         LINE#         27
  C:99E1H         LINE#         28
  C:99E3H         LINE#         29
  C:99E5H         LINE#         30
BL51 BANKED LINKER/LOCATER V6.22                                                      09/10/2018  09:41:02  PAGE 61


  C:99F0H         LINE#         31
  C:99F2H         LINE#         32
  C:99F5H         LINE#         33
  C:99F5H         LINE#         34
  C:9A01H         LINE#         35
  C:9A0FH         LINE#         36
  C:9A11H         LINE#         37
  C:9A11H         LINE#         39
  C:9A31H         LINE#         41
  C:9A39H         LINE#         42
  C:9A3FH         LINE#         43
  C:9A50H         LINE#         44
  C:9A5CH         LINE#         45
  C:9A62H         LINE#         46
  C:9A73H         LINE#         47
  C:9A7FH         LINE#         48
  C:9A85H         LINE#         49
  C:9A96H         LINE#         50
  C:9AA2H         LINE#         51
  C:9AA8H         LINE#         52
  C:9AB9H         LINE#         53
  C:9AC4H         LINE#         54
  C:9ACAH         LINE#         55
  C:9ADBH         LINE#         56
  C:9AE6H         LINE#         57
  C:9AECH         LINE#         58
  C:9AFDH         LINE#         59
  C:9B08H         LINE#         60
  C:9B19H         LINE#         61
  C:9B19H         LINE#         62
  C:9B19H         LINE#         63
  C:9B1CH         LINE#         64
  C:9B27H         LINE#         66
  C:9B29H         LINE#         67
  -------         ENDPROC       _PAGESTABLIZERBUILD
  -------         ENDMOD        PAGESTABILIZERBUILD

  -------         MODULE        PAGESTABILIZERMODE
  C:0000H         SYMBOL        _ICE_DUMMY_
  X:099CH         PUBLIC        AutoFlyModeMs
  C:C357H         PUBLIC        PageOptionFlyMode
  C:B25CH         PUBLIC        _PageAutoFlyMode
  C:C34BH         PUBLIC        PageOptionSwitch
  C:C363H         PUBLIC        MenuItemAutoFlyMode
  -------         PROC          _PAGEAUTOFLYMODE
  X:0A0DH         SYMBOL        event
  C:B25CH         LINE#         15
  C:B261H         LINE#         16
  C:B26BH         LINE#         17
  C:B270H         LINE#         18
  C:B278H         LINE#         19
  C:B287H         LINE#         20
  C:B28DH         LINE#         21
  C:B28DH         LINE#         22
  C:B29CH         LINE#         23
  C:B2A2H         LINE#         24
  C:B2A5H         LINE#         25
BL51 BANKED LINKER/LOCATER V6.22                                                      09/10/2018  09:41:02  PAGE 62


  C:B2A5H         LINE#         27
  C:B2B0H         LINE#         28
  C:B2D6H         LINE#         30
  C:B2DEH         LINE#         31
  C:B301H         LINE#         32
  C:B324H         LINE#         33
  C:B326H         LINE#         34
  C:B32CH         LINE#         35
  C:B33AH         LINE#         36
  C:B33AH         LINE#         37
  C:B33AH         LINE#         38
  C:B342H         LINE#         39
  C:B34BH         LINE#         40
  C:B350H         LINE#         41
  C:B35EH         LINE#         42
  C:B360H         LINE#         43
  C:B365H         LINE#         44
  C:B365H         LINE#         45
  C:B365H         LINE#         47
  C:B367H         LINE#         48
  -------         ENDPROC       _PAGEAUTOFLYMODE
  -------         ENDMOD        PAGESTABILIZERMODE

  -------         MODULE        PAGESTABILIZERPITCHGAIN
  C:0000H         SYMBOL        _ICE_DUMMY_
  X:09A2H         PUBLIC        AutoFlyPitchGainMs
  C:C668H         PUBLIC        PageOptionAutoFlyPitchGain
  C:B368H         PUBLIC        _PageAutoFlyPitchGain
  C:C66EH         PUBLIC        MenuItemAutoFlyPitchGain
  -------         PROC          _PAGEAUTOFLYPITCHGAIN
  X:0A0EH         SYMBOL        event
  C:B368H         LINE#         14
  C:B36DH         LINE#         15
  C:B377H         LINE#         16
  C:B37CH         LINE#         17
  C:B384H         LINE#         18
  C:B393H         LINE#         19
  C:B399H         LINE#         20
  C:B399H         LINE#         21
  C:B3A8H         LINE#         22
  C:B3AEH         LINE#         23
  C:B3B1H         LINE#         24
  C:B3B1H         LINE#         26
  C:B3BCH         LINE#         27
  C:B3E2H         LINE#         29
  C:B3EAH         LINE#         30
  C:B40DH         LINE#         31
  C:B430H         LINE#         32
  C:B432H         LINE#         33
  C:B438H         LINE#         34
  C:B446H         LINE#         35
  C:B446H         LINE#         36
  C:B446H         LINE#         37
  C:B44EH         LINE#         38
  C:B457H         LINE#         39
  C:B45CH         LINE#         40
  C:B46AH         LINE#         41
BL51 BANKED LINKER/LOCATER V6.22                                                      09/10/2018  09:41:02  PAGE 63


  C:B46CH         LINE#         42
  C:B471H         LINE#         43
  C:B471H         LINE#         44
  C:B471H         LINE#         46
  C:B473H         LINE#         47
  -------         ENDPROC       _PAGEAUTOFLYPITCHGAIN
  -------         ENDMOD        PAGESTABILIZERPITCHGAIN

  -------         MODULE        PAGESTABILIZERROLLGAIN
  C:0000H         SYMBOL        _ICE_DUMMY_
  C:C6FFH         PUBLIC        MenuItemAutoFlyRollGain
  C:C6F9H         PUBLIC        PageOptionGainDir
  X:09A8H         PUBLIC        AutoFlyRollGainMs
  C:B474H         PUBLIC        _PageAutoFlyRollGain
  -------         PROC          _PAGEAUTOFLYROLLGAIN
  X:0A0FH         SYMBOL        event
  C:B474H         LINE#         14
  C:B479H         LINE#         15
  C:B483H         LINE#         16
  C:B488H         LINE#         17
  C:B490H         LINE#         18
  C:B49FH         LINE#         19
  C:B4A5H         LINE#         20
  C:B4A5H         LINE#         21
  C:B4B4H         LINE#         22
  C:B4BAH         LINE#         23
  C:B4BDH         LINE#         24
  C:B4BDH         LINE#         26
  C:B4C8H         LINE#         27
  C:B4EEH         LINE#         29
  C:B4F6H         LINE#         30
  C:B519H         LINE#         31
  C:B53CH         LINE#         32
  C:B53EH         LINE#         33
  C:B544H         LINE#         34
  C:B552H         LINE#         35
  C:B552H         LINE#         36
  C:B552H         LINE#         37
  C:B55AH         LINE#         38
  C:B563H         LINE#         39
  C:B568H         LINE#         40
  C:B576H         LINE#         41
  C:B578H         LINE#         42
  C:B57DH         LINE#         43
  C:B57DH         LINE#         44
  C:B57DH         LINE#         46
  C:B57FH         LINE#         47
  -------         ENDPROC       _PAGEAUTOFLYROLLGAIN
  -------         ENDMOD        PAGESTABILIZERROLLGAIN

  -------         MODULE        PAGESTABILIZERYAWGAIN
  C:0000H         SYMBOL        _ICE_DUMMY_
  C:C78FH         PUBLIC        MenuItemAutoFlyYawGain
  X:09AEH         PUBLIC        AutoFlyYawGainMs
  C:C789H         PUBLIC        PageOptionAutoFlyYawGain
  C:B580H         PUBLIC        _PageAutoFlyYawGain
  -------         PROC          _PAGEAUTOFLYYAWGAIN
BL51 BANKED LINKER/LOCATER V6.22                                                      09/10/2018  09:41:02  PAGE 64


  X:0A10H         SYMBOL        event
  C:B580H         LINE#         14
  C:B585H         LINE#         15
  C:B58FH         LINE#         16
  C:B594H         LINE#         17
  C:B59CH         LINE#         18
  C:B5ABH         LINE#         19
  C:B5B1H         LINE#         20
  C:B5B1H         LINE#         21
  C:B5C0H         LINE#         22
  C:B5C6H         LINE#         23
  C:B5C9H         LINE#         24
  C:B5C9H         LINE#         26
  C:B5D4H         LINE#         27
  C:B5FAH         LINE#         29
  C:B602H         LINE#         30
  C:B625H         LINE#         31
  C:B648H         LINE#         32
  C:B64AH         LINE#         33
  C:B650H         LINE#         34
  C:B65EH         LINE#         35
  C:B65EH         LINE#         36
  C:B65EH         LINE#         37
  C:B666H         LINE#         38
  C:B66FH         LINE#         39
  C:B674H         LINE#         40
  C:B682H         LINE#         41
  C:B684H         LINE#         42
  C:B689H         LINE#         43
  C:B689H         LINE#         44
  C:B689H         LINE#         46
  C:B68BH         LINE#         47
  -------         ENDPROC       _PAGEAUTOFLYYAWGAIN
  -------         ENDMOD        PAGESTABILIZERYAWGAIN

  -------         MODULE        PAGESTEERING
  C:0000H         SYMBOL        _ICE_DUMMY_
  X:09B4H         PUBLIC        SterringMs
  C:B78FH         PUBLIC        _PageSterring
  C:C15FH         PUBLIC        PageOptionSterringMode
  C:C16EH         PUBLIC        MenuItemSterring
  -------         PROC          _PAGESTERRING
  X:0A11H         SYMBOL        event
  C:B78FH         LINE#         16
  C:B794H         LINE#         17
  C:B79EH         LINE#         18
  C:B7A3H         LINE#         19
  C:B7ABH         LINE#         20
  C:B7BAH         LINE#         21
  C:B7C0H         LINE#         22
  C:B7C0H         LINE#         23
  C:B7CFH         LINE#         24
  C:B7D5H         LINE#         25
  C:B7D8H         LINE#         26
  C:B7D8H         LINE#         27
  C:B7FEH         LINE#         29
  C:B806H         LINE#         30
BL51 BANKED LINKER/LOCATER V6.22                                                      09/10/2018  09:41:02  PAGE 65


  C:B829H         LINE#         31
  C:B84CH         LINE#         32
  C:B84EH         LINE#         33
  C:B862H         LINE#         34
  C:B862H         LINE#         35
  C:B862H         LINE#         36
  C:B86AH         LINE#         37
  C:B873H         LINE#         38
  C:B886H         LINE#         39
  C:B888H         LINE#         40
  C:B88DH         LINE#         41
  C:B88DH         LINE#         42
  C:B88DH         LINE#         43
  C:B88FH         LINE#         44
  -------         ENDPROC       _PAGESTERRING
  -------         ENDMOD        PAGESTEERING

  -------         MODULE        INPUTBTN
  C:0000H         SYMBOL        _ICE_DUMMY_
  C:D5E5H         PUBLIC        _BtnTstStat
  X:0962H         PUBLIC        BtnUpdate
  X:0963H         PUBLIC        BtnHoldBuffer
  X:0964H         PUBLIC        BtnDownBuffer
  C:D632H         PUBLIC        _BtnClearDown
  C:D61AH         PUBLIC        BtnFlush
  X:0965H         PUBLIC        BtnHold
  X:0966H         PUBLIC        BtnTmpCache
  X:0967H         PUBLIC        BtnDown
  X:0968H         PUBLIC        BtnStat
  X:0969H         PUBLIC        BtnCnt
  C:D33CH         PUBLIC        BtnDatInit
  D:001DH         PUBLIC        BtnTickCnt
  B:0088H.2       PUBLIC        TCON_IT1
  C:D42FH         PUBLIC        _BtnTstHold
  D:001FH         PUBLIC        BtnTickOverFlow
  C:D744H         PUBLIC        BtnStopCnt
  C:D402H         PUBLIC        _BtnTstDown
  C:A5A5H         PUBLIC        BtnScanHandle
  -------         PROC          BTNDATINIT
  C:D33CH         LINE#         18
  C:D33CH         LINE#         19
  C:D341H         LINE#         20
  C:D34AH         LINE#         22
  C:D34FH         LINE#         23
  C:D361H         LINE#         24
  C:D373H         LINE#         25
  -------         ENDPROC       BTNDATINIT
  -------         PROC          BTNSCANHANDLE
  -------         DO            
  D:001CH         SYMBOL        BtnTmp
  -------         ENDDO         
  C:A5A5H         LINE#         27
  C:A5A5H         LINE#         28
  C:A5A8H         LINE#         30
  C:A5AAH         LINE#         31
  C:A5AFH         LINE#         32
  C:A5BAH         LINE#         33
BL51 BANKED LINKER/LOCATER V6.22                                                      09/10/2018  09:41:02  PAGE 66


  C:A5BDH         LINE#         35
  C:A5BDH         LINE#         36
  C:A5C0H         LINE#         37
  C:A5C2H         LINE#         38
  C:A5C4H         LINE#         39
  C:A5CFH         LINE#         40
  C:A5D2H         LINE#         42
  C:A5D2H         LINE#         43
  C:A5DEH         LINE#         44
  C:A5ECH         LINE#         45
  C:A5EEH         LINE#         46
  C:A5EEH         LINE#         48
  C:A5FAH         LINE#         49
  C:A606H         LINE#         50
  C:A612H         LINE#         51
  C:A61EH         LINE#         53
  C:A62BH         LINE#         54
  C:A635H         LINE#         55
  C:A646H         LINE#         56
  C:A64EH         LINE#         57
  C:A64FH         LINE#         58
  C:A661H         LINE#         59
  C:A663H         LINE#         60
  C:A66EH         LINE#         61
  C:A678H         LINE#         62
  C:A682H         LINE#         64
  C:A698H         LINE#         65
  C:A6AAH         LINE#         66
  C:A6BBH         LINE#         67
  C:A6CAH         LINE#         68
  C:A6D0H         LINE#         69
  C:A6D0H         LINE#         70
  C:A6D0H         LINE#         71
  C:A6D6H         LINE#         72
  C:A6D7H         LINE#         73
  C:A6E9H         LINE#         74
  C:A6EEH         LINE#         75
  C:A6EEH         LINE#         76
  C:A6EFH         LINE#         77
  C:A6F5H         LINE#         78
  C:A6FBH         LINE#         79
  C:A6FBH         LINE#         80
  -------         ENDPROC       BTNSCANHANDLE
  -------         PROC          BTNFLUSH
  C:D61AH         LINE#         82
  C:D61AH         LINE#         83
  C:D62CH         LINE#         84
  C:D631H         LINE#         85
  -------         ENDPROC       BTNFLUSH
  -------         PROC          BTNSTOPCNT
  C:D744H         LINE#         86
  C:D744H         LINE#         87
  C:D74AH         LINE#         88
  -------         ENDPROC       BTNSTOPCNT
  -------         PROC          _BTNCLEARDOWN
  X:0A12H         SYMBOL        BtnMask
  C:D632H         LINE#         89
BL51 BANKED LINKER/LOCATER V6.22                                                      09/10/2018  09:41:02  PAGE 67


  C:D637H         LINE#         90
  C:D649H         LINE#         91
  -------         ENDPROC       _BTNCLEARDOWN
  -------         PROC          _BTNTSTSTAT
  X:0A13H         SYMBOL        BtnMask
  C:D5E5H         LINE#         92
  C:D5EAH         LINE#         93
  C:D600H         LINE#         94
  -------         ENDPROC       _BTNTSTSTAT
  -------         PROC          _BTNTSTDOWN
  X:0A14H         SYMBOL        BtnMask
  C:D402H         LINE#         95
  C:D407H         LINE#         96
  C:D417H         LINE#         97
  C:D429H         LINE#         98
  C:D42CH         LINE#         99
  C:D42CH         LINE#         100
  C:D42EH         LINE#         101
  -------         ENDPROC       _BTNTSTDOWN
  -------         PROC          _BTNTSTHOLD
  X:0A15H         SYMBOL        BtnMask
  C:D42FH         LINE#         102
  C:D434H         LINE#         103
  C:D444H         LINE#         104
  C:D456H         LINE#         105
  C:D459H         LINE#         106
  C:D459H         LINE#         107
  C:D45BH         LINE#         108
  -------         ENDPROC       _BTNTSTHOLD
  -------         ENDMOD        INPUTBTN

  -------         MODULE        INPUTBTNBSP
  C:0000H         SYMBOL        _ICE_DUMMY_
  C:D1B7H         PUBLIC        _BtnGetState
  B:0080H.0       PUBLIC        BtnEntGpio
  B:0080H.1       PUBLIC        BtnExtGpio
  B:0090H.5       PUBLIC        BtnDwGpio
  B:0090H.4       PUBLIC        BtnUpGpio
  -------         PROC          _BTNGETSTATE
  X:0A16H         SYMBOL        IdxBtn
  C:D1B7H         LINE#         3
  C:D1BCH         LINE#         4
  C:D1D5H         LINE#         5
  C:D1D5H         LINE#         6
  C:D1DBH         LINE#         7
  C:D1DEH         LINE#         8
  C:D1DEH         LINE#         9
  C:D1E4H         LINE#         10
  C:D1E7H         LINE#         11
  C:D1E7H         LINE#         12
  C:D1EDH         LINE#         13
  C:D1F0H         LINE#         14
  C:D1F0H         LINE#         15
  C:D1F6H         LINE#         16
  C:D1F9H         LINE#         17
  C:D1F9H         LINE#         18
  C:D1FBH         LINE#         19
BL51 BANKED LINKER/LOCATER V6.22                                                      09/10/2018  09:41:02  PAGE 68


  -------         ENDPROC       _BTNGETSTATE
  -------         ENDMOD        INPUTBTNBSP

  -------         MODULE        ?C?FPADD
  C:5A96H         PUBLIC        ?C?FPADD
  C:5A92H         PUBLIC        ?C?FPSUB
  -------         ENDMOD        ?C?FPADD

  -------         MODULE        ?C?FPMUL
  C:5B87H         PUBLIC        ?C?FPMUL
  -------         ENDMOD        ?C?FPMUL

  -------         MODULE        ?C?FPDIV
  C:5C90H         PUBLIC        ?C?FPDIV
  -------         ENDMOD        ?C?FPDIV

  -------         MODULE        ?C?FCAST
  C:5D37H         PUBLIC        ?C?FCASTC
  C:5D32H         PUBLIC        ?C?FCASTI
  C:5D2DH         PUBLIC        ?C?FCASTL
  -------         ENDMOD        ?C?FCAST

  -------         MODULE        PRINTF
  X:0830H         PUBLIC        ?_PRINTF?BYTE
  X:0830H         PUBLIC        ?_SPRINTF?BYTE
  C:7909H         PUBLIC        _PRINTF
  C:7903H         PUBLIC        _SPRINTF
  -------         ENDMOD        PRINTF

  -------         MODULE        ?C?FPROUND
  C:5DB5H         PUBLIC        ?C?FPROUND
  -------         ENDMOD        ?C?FPROUND

  -------         MODULE        ?C?FPCONVERT
  C:5DF2H         PUBLIC        ?C?FPCONVERT
  -------         ENDMOD        ?C?FPCONVERT

  -------         MODULE        ?C?FTNPWR
  C:5F27H         PUBLIC        ?C?FTNPWR
  -------         ENDMOD        ?C?FTNPWR

  -------         MODULE        ?C?CLDPTR
  C:5F67H         PUBLIC        ?C?CLDPTR
  -------         ENDMOD        ?C?CLDPTR

  -------         MODULE        ?C?CLDOPTR
  C:5F80H         PUBLIC        ?C?CLDOPTR
  -------         ENDMOD        ?C?CLDOPTR

  -------         MODULE        ?C?CILDOPTR
  C:5FADH         PUBLIC        ?C?CILDOPTR
  -------         ENDMOD        ?C?CILDOPTR

  -------         MODULE        ?C?CSTPTR
  C:5FE0H         PUBLIC        ?C?CSTPTR
  -------         ENDMOD        ?C?CSTPTR

BL51 BANKED LINKER/LOCATER V6.22                                                      09/10/2018  09:41:02  PAGE 69


  -------         MODULE        ?C?CSTOPTR
  C:5FF2H         PUBLIC        ?C?CSTOPTR
  -------         ENDMOD        ?C?CSTOPTR

  -------         MODULE        ?C?IMUL
  C:6014H         PUBLIC        ?C?IMUL
  -------         ENDMOD        ?C?IMUL

  -------         MODULE        ?C?UIDIV
  C:6026H         PUBLIC        ?C?UIDIV
  -------         ENDMOD        ?C?UIDIV

  -------         MODULE        ?C?SIDIV
  C:607BH         PUBLIC        ?C?SIDIV
  -------         ENDMOD        ?C?SIDIV

  -------         MODULE        ?C?IILDX
  C:60B1H         PUBLIC        ?C?IILDX
  -------         ENDMOD        ?C?IILDX

  -------         MODULE        ?C?ILDIX
  C:60C7H         PUBLIC        ?C?ILDIX
  -------         ENDMOD        ?C?ILDIX

  -------         MODULE        ?C?ILDPTR
  C:60DDH         PUBLIC        ?C?ILDPTR
  -------         ENDMOD        ?C?ILDPTR

  -------         MODULE        ?C?ILDOPTR
  C:6108H         PUBLIC        ?C?ILDOPTR
  -------         ENDMOD        ?C?ILDOPTR

  -------         MODULE        ?C?IILDPTR
  C:6140H         PUBLIC        ?C?IILDPTR
  -------         ENDMOD        ?C?IILDPTR

  -------         MODULE        ?C?ISTPTR
  C:6178H         PUBLIC        ?C?ISTPTR
  -------         ENDMOD        ?C?ISTPTR

  -------         MODULE        ?C?LMUL
  C:6197H         PUBLIC        ?C?LMUL
  -------         ENDMOD        ?C?LMUL

  -------         MODULE        ?C?ULDIV
  C:6222H         PUBLIC        ?C?ULDIV
  -------         ENDMOD        ?C?ULDIV

  -------         MODULE        ?C?LNOT
  C:62B4H         PUBLIC        ?C?LNOT
  -------         ENDMOD        ?C?LNOT

  -------         MODULE        ?C?LNEG
  C:62C1H         PUBLIC        ?C?LNEG
  -------         ENDMOD        ?C?LNEG

  -------         MODULE        ?C?LSHL
BL51 BANKED LINKER/LOCATER V6.22                                                      09/10/2018  09:41:02  PAGE 70


  C:62CFH         PUBLIC        ?C?LSHL
  -------         ENDMOD        ?C?LSHL

  -------         MODULE        ?C?LSTXDATA
  C:62E2H         PUBLIC        ?C?LSTXDATA
  -------         ENDMOD        ?C?LSTXDATA

  -------         MODULE        ?C?LSTKXDATA
  C:62EEH         PUBLIC        ?C?LSTKXDATA
  -------         ENDMOD        ?C?LSTKXDATA

  -------         MODULE        ?C?OFFX256
  C:631FH         PUBLIC        ?C?OFFX256
  -------         ENDMOD        ?C?OFFX256

  -------         MODULE        ?C?OFFXADD
  C:6330H         PUBLIC        ?C?OFFXADD
  -------         ENDMOD        ?C?OFFXADD

  -------         MODULE        ?C?PLDIXDATA
  C:633CH         PUBLIC        ?C?PLDIXDATA
  -------         ENDMOD        ?C?PLDIXDATA

  -------         MODULE        ?C?PSTXDATA
  C:6353H         PUBLIC        ?C?PSTXDATA
  -------         ENDMOD        ?C?PSTXDATA

  -------         MODULE        ?C?PLDPTR
  C:635CH         PUBLIC        ?C?PLDPTR
  -------         ENDMOD        ?C?PLDPTR

  -------         MODULE        ?C?PLDOPTR
  C:637CH         PUBLIC        ?C?PLDOPTR
  -------         ENDMOD        ?C?PLDOPTR

  -------         MODULE        ?C?CCASE
  C:63ACH         PUBLIC        ?C?CCASE
  -------         ENDMOD        ?C?CCASE

  -------         MODULE        ?C?ICALL
  C:63D2H         PUBLIC        ?C?ICALL
  C:63D6H         PUBLIC        ?C?ICALL2
  -------         ENDMOD        ?C?ICALL

  -------         MODULE        PUTCHAR
  C:D4DEH         PUBLIC        _PUTCHAR
  -------         ENDMOD        PUTCHAR

  -------         MODULE        ABS
  C:D6EDH         PUBLIC        _ABS
  -------         ENDMOD        ABS

  -------         MODULE        STRLEN
  C:D64AH         PUBLIC        _STRLEN
  -------         ENDMOD        STRLEN

  -------         MODULE        ?C?PLDIDATA
BL51 BANKED LINKER/LOCATER V6.22                                                      09/10/2018  09:41:02  PAGE 71


  C:63D8H         PUBLIC        ?C?PLDIDATA
  -------         ENDMOD        ?C?PLDIDATA

  -------         MODULE        ?C?PLDXDATA
  C:63E1H         PUBLIC        ?C?PLDXDATA
  -------         ENDMOD        ?C?PLDXDATA

  -------         MODULE        ?C?PLDPDATA
  C:63EAH         PUBLIC        ?C?PLDPDATA
  -------         ENDMOD        ?C?PLDPDATA

  -------         MODULE        ?C?PLDCODE
  C:63F3H         PUBLIC        ?C?PLDCODE
  -------         ENDMOD        ?C?PLDCODE



INTER-MODULE CROSS-REFERENCE LISTING
------------------------------------


NAME . . . . . . . . . . . . . . . . . . . USAGE    MODULE NAMES
----------------------------------------------------------------

?A_APPINIT . . . . . . . . . . . . . . . . CODE;    ?A_APPINIT  
?C?CCASE . . . . . . . . . . . . . . . . . CODE;    ?C?CCASE  INPUTBTNBSP  LIPOCELLS  PRINTF  
?C?CILDOPTR. . . . . . . . . . . . . . . . CODE;    ?C?CILDOPTR  PAGE  
?C?CLDOPTR . . . . . . . . . . . . . . . . CODE;    ?C?CLDOPTR  LCDBSAE  LCDDRAW  PAGE  PRINTF  STABLIZER  
?C?CLDPTR. . . . . . . . . . . . . . . . . CODE;    ?C?CLDPTR  LCDBSAE  LCDDRAW  PAGE  PRINTF  STRLEN  
?C?CSTOPTR . . . . . . . . . . . . . . . . CODE;    ?C?CSTOPTR  PAGE  
?C?CSTPTR. . . . . . . . . . . . . . . . . CODE;    ?C?CSTPTR  PAGE  PRINTF  
?C?FCASTC. . . . . . . . . . . . . . . . . CODE;    ?C?FCAST  
?C?FCASTI. . . . . . . . . . . . . . . . . CODE;    ?C?FCAST  PAGEESC  PAGEESC1TH  PAGEESC2TH  
?C?FCASTL. . . . . . . . . . . . . . . . . CODE;    ?C?FCAST  
?C?FPADD . . . . . . . . . . . . . . . . . CODE;    ?C?FPADD  ?C?FPCONVERT  PAGEESC  PAGEESC1TH  
?C?FPCONVERT . . . . . . . . . . . . . . . CODE;    ?C?FPCONVERT  PRINTF  
?C?FPDIV . . . . . . . . . . . . . . . . . CODE;    ?C?FPDIV  ?C?FPCONVERT  PAGEESC  PAGEESC1TH  PAGEESC2TH  
?C?FPGETOPN2 . . . . . . . . . . . . . . . CODE;    ?C?FPGETOPN  ?C?FPADD  ?C?FPDIV  ?C?FPMUL  
?C?FPMUL . . . . . . . . . . . . . . . . . CODE;    ?C?FPMUL  ?C?FPCONVERT  ?C?FTNPWR  PAGEESC  
?C?FPNANRESULT . . . . . . . . . . . . . . CODE;    ?C?FPGETOPN  ?C?FPADD  ?C?FPDIV  ?C?FPMUL  
?C?FPOVERFLOW. . . . . . . . . . . . . . . CODE;    ?C?FPGETOPN  ?C?FPADD  ?C?FPDIV  ?C?FPMUL  
?C?FPRESULT. . . . . . . . . . . . . . . . CODE;    ?C?FPGETOPN  ?C?FPADD  ?C?FPDIV  ?C?FPMUL  
?C?FPRESULT2 . . . . . . . . . . . . . . . CODE;    ?C?FPGETOPN  ?C?FPDIV  ?C?FPMUL  
?C?FPROUND . . . . . . . . . . . . . . . . CODE;    ?C?FPROUND  PRINTF  
?C?FPSUB . . . . . . . . . . . . . . . . . CODE;    ?C?FPADD  
?C?FPUNDERFLOW . . . . . . . . . . . . . . CODE;    ?C?FPGETOPN  ?C?FPADD  ?C?FPDIV  ?C?FPMUL  
?C?FTNPWR. . . . . . . . . . . . . . . . . CODE;    ?C?FTNPWR  ?C?FPCONVERT  
?C?ICALL . . . . . . . . . . . . . . . . . CODE;    ?C?ICALL  
?C?ICALL2. . . . . . . . . . . . . . . . . CODE;    ?C?ICALL  MAIN  PAGE  
?C?IILDPTR . . . . . . . . . . . . . . . . CODE;    ?C?IILDPTR  PAGE  
?C?IILDX . . . . . . . . . . . . . . . . . CODE;    ?C?IILDX  ?C?IILDPTR  LCDBSAE  LCDDRAW  
?C?ILDIX . . . . . . . . . . . . . . . . . CODE;    ?C?ILDIX  LCDDRAW  
?C?ILDOPTR . . . . . . . . . . . . . . . . CODE;    ?C?ILDOPTR  ESC  PAGE  STABLIZER  
?C?ILDPTR. . . . . . . . . . . . . . . . . CODE;    ?C?ILDPTR  LCDDRAW  PAGE  
?C?IMUL. . . . . . . . . . . . . . . . . . CODE;    ?C?IMUL  LCDBSAE  LCDDRAW  PAGE  PAGEESC2TH  STABLIZER  STERRING  
?C?ISTPTR. . . . . . . . . . . . . . . . . CODE;    ?C?ISTPTR  PAGE  
?C?LMUL. . . . . . . . . . . . . . . . . . CODE;    ?C?LMUL  LIPOCELLS  
BL51 BANKED LINKER/LOCATER V6.22                                                      09/10/2018  09:41:02  PAGE 72


?C?LNEG. . . . . . . . . . . . . . . . . . CODE;    ?C?LNEG  ?C?FCAST  
?C?LNOT. . . . . . . . . . . . . . . . . . CODE;    ?C?LNOT  LCDDRAW  
?C?LSHL. . . . . . . . . . . . . . . . . . CODE;    ?C?LSHL  LCDDRAW  
?C?LSTKXDATA . . . . . . . . . . . . . . . CODE;    ?C?LSTKXDATA  LCDDRAW  
?C?LSTXDATA. . . . . . . . . . . . . . . . CODE;    ?C?LSTXDATA  LCDDRAW  LIPOCELLS  PAGEESC  PAGEESC1TH  PAGEESC2TH  
?C?OFFX256 . . . . . . . . . . . . . . . . CODE;    ?C?OFFX256  PAGE  
?C?OFFXADD . . . . . . . . . . . . . . . . CODE;    ?C?OFFXADD  LCDDRAW  
?C?PLDCODE . . . . . . . . . . . . . . . . CODE;    ?C?PLDCODE  ?C?PLDOPTR  ?C?PLDPTR  
?C?PLDIDATA. . . . . . . . . . . . . . . . CODE;    ?C?PLDIDATA  ?C?PLDOPTR  ?C?PLDPTR  
?C?PLDIXDATA . . . . . . . . . . . . . . . CODE;    ?C?PLDIXDATA  PRINTF  
?C?PLDOPTR . . . . . . . . . . . . . . . . CODE;    ?C?PLDOPTR  PAGE  
?C?PLDPDATA. . . . . . . . . . . . . . . . CODE;    ?C?PLDPDATA  ?C?PLDOPTR  ?C?PLDPTR  
?C?PLDPTR. . . . . . . . . . . . . . . . . CODE;    ?C?PLDPTR  PAGE  
?C?PLDXDATA. . . . . . . . . . . . . . . . CODE;    ?C?PLDXDATA  ?C?PLDOPTR  ?C?PLDPTR  
?C?PSTXDATA. . . . . . . . . . . . . . . . CODE;    ?C?PSTXDATA  PRINTF  
?C?SIDIV . . . . . . . . . . . . . . . . . CODE;    ?C?SIDIV  LCDDRAW  
?C?UIDIV . . . . . . . . . . . . . . . . . CODE;    ?C?UIDIV  ?C?SIDIV  PAGELIPOCELLS  
?C?ULDIV . . . . . . . . . . . . . . . . . CODE;    ?C?ULDIV  LIPOCELLS  
?C_INITSEGSTART. . . . . . . . . . . . . . CODE;    ** L51 GENERATED **  
?C_START . . . . . . . . . . . . . . . . . CODE;    ?C_INIT  ?C_STARTUP  
?C_STARTUP . . . . . . . . . . . . . . . . CODE;    ?C_STARTUP  MAIN  
?_LCDDRAWGECHAR?BYTE . . . . . . . . . . . XDATA;   LCDDRAW  
?_LCDDRAWHLINE?BYTE. . . . . . . . . . . . XDATA;   LCDDRAW  PAGE  PAGELIPOCELLS  PAGESTABILIZERBUILD  
?_LCDDRAWINT?BYTE. . . . . . . . . . . . . XDATA;   LCDDRAW  PAGE  PAGELIPOCELLS  
?_LCDDRAWLINE?BYTE . . . . . . . . . . . . XDATA;   LCDDRAW  
?_LCDDRAWMINIINT?BYTE. . . . . . . . . . . XDATA;   LCDDRAW  PAGE  
?_LCDDRAWRECT?BYTE . . . . . . . . . . . . XDATA;   LCDDRAW  PAGE  PAGELIPOCELLS  PAGESTABILIZERBUILD  
?_LCDDRAWVLINE?BYTE. . . . . . . . . . . . XDATA;   LCDDRAW  
?_LCDWRITEASCSTRING?BYTE . . . . . . . . . XDATA;   LCDBSAE  
?_PAGEMENUPROC?BYTE. . . . . . . . . . . . XDATA;   PAGE  PAGEESC  PAGEESC1TH  PAGEESC2TH  PAGEESC3TH  PAGESTABILIZER  P
                                                    AGESTABILIZERMODE  PAGESTABILIZERPITCHGAIN  PAGESTABILIZERROLLGAIN  
                                                    PAGESTABILIZERYAWGAIN  PAGESTEERING  
?_PRINTF?BYTE. . . . . . . . . . . . . . . XDATA;   PRINTF  
?_SPRINTF?BYTE . . . . . . . . . . . . . . XDATA;   PRINTF  PAGEESC  PAGEESC1TH  PAGEESC2TH  PAGEESC3TH  
ADC0EOC_ISR. . . . . . . . . . . . . . . . CODE;    LIPOCELLS  
ADCCOVENTRIGGER. . . . . . . . . . . . . . XDATA;   LIPOCELLS  PAGELIPOCELLS  
ADCCOVOKFLAG . . . . . . . . . . . . . . . XDATA;   LIPOCELLS  PAGELIPOCELLS  
ADCVALUE . . . . . . . . . . . . . . . . . XDATA;   LIPOCELLS  
ADCVOLTAGE . . . . . . . . . . . . . . . . XDATA;   LIPOCELLS  
ADC_0_ENTER_DEFAULTMODE_FROM_RESET . . . . CODE;    INITDEVICE  
ASCFONTTABLEMASK . . . . . . . . . . . . . CODE;    PAGERES  LCDBSAE  LCDDRAW  
AUTOFLYMODEMS. . . . . . . . . . . . . . . XDATA;   PAGESTABILIZERMODE  PAGE  
AUTOFLYMS. . . . . . . . . . . . . . . . . XDATA;   PAGESTABILIZER  PAGE  
AUTOFLYPITCHGAINMS . . . . . . . . . . . . XDATA;   PAGESTABILIZERPITCHGAIN  PAGE  
AUTOFLYROLLGAINMS. . . . . . . . . . . . . XDATA;   PAGESTABILIZERROLLGAIN  PAGE  
AUTOFLYYAWGAINMS . . . . . . . . . . . . . XDATA;   PAGESTABILIZERYAWGAIN  PAGE  
BATVOLTAGE . . . . . . . . . . . . . . . . XDATA;   LIPOCELLS  PAGELIPOCELLS  
BTNCNT . . . . . . . . . . . . . . . . . . XDATA;   INPUTBTN  
BTNDATINIT . . . . . . . . . . . . . . . . CODE;    INPUTBTN  MAIN  
BTNDOWN. . . . . . . . . . . . . . . . . . XDATA;   INPUTBTN  
BTNDOWNBUFFER. . . . . . . . . . . . . . . XDATA;   INPUTBTN  
BTNFLUSH . . . . . . . . . . . . . . . . . CODE;    INPUTBTN  
BTNHOLD. . . . . . . . . . . . . . . . . . XDATA;   INPUTBTN  
BTNHOLDBUFFER. . . . . . . . . . . . . . . XDATA;   INPUTBTN  
BTNSCANHANDLE. . . . . . . . . . . . . . . CODE;    INPUTBTN  GLOBAL  
BTNSTAT. . . . . . . . . . . . . . . . . . XDATA;   INPUTBTN  
BTNSTOPCNT . . . . . . . . . . . . . . . . CODE;    INPUTBTN  
BL51 BANKED LINKER/LOCATER V6.22                                                      09/10/2018  09:41:02  PAGE 73


BTNTICKCNT . . . . . . . . . . . . . . . . DATA;    INPUTBTN  
BTNTICKOVERFLOW. . . . . . . . . . . . . . DATA;    INPUTBTN  
BTNTMPCACHE. . . . . . . . . . . . . . . . XDATA;   INPUTBTN  
BTNUPDATE. . . . . . . . . . . . . . . . . XDATA;   INPUTBTN  
CHSFONTTABLEMASK . . . . . . . . . . . . . CODE;    PAGERES  LCDDRAW  
CLOCK_0_ENTER_DEFAULTMODE_FROM_RESET . . . CODE;    INITDEVICE  
DATAPULSECNT . . . . . . . . . . . . . . . DATA;    ESC  
DETECTSTABLIZERTICKCNT . . . . . . . . . . DATA;    STABLIZER  
DETECTSTABLIZERTICKOVERFLOW. . . . . . . . DATA;    STABLIZER  
ENTER_DEFAULTMODE_FROM_RESET . . . . . . . CODE;    INITDEVICE  MAIN  
ESC1THDATPROCCESS. . . . . . . . . . . . . CODE;    PAGEESC1TH  
ESC1THMS . . . . . . . . . . . . . . . . . XDATA;   PAGEESC1TH  PAGE  
ESC2THDATPREPROCCESS . . . . . . . . . . . CODE;    PAGEESC2TH  
ESC2THMS . . . . . . . . . . . . . . . . . XDATA;   PAGEESC2TH  PAGE  
ESC3THDATPROCCESS. . . . . . . . . . . . . CODE;    PAGEESC3TH  
ESC3THMS . . . . . . . . . . . . . . . . . XDATA;   PAGEESC3TH  PAGE  
ESCDATINIT . . . . . . . . . . . . . . . . CODE;    ESC  
ESCDATSUM. . . . . . . . . . . . . . . . . XDATA;   ESC  
ESCDATSUMPRE . . . . . . . . . . . . . . . XDATA;   ESC  
ESCDETECT. . . . . . . . . . . . . . . . . CODE;    ESC  
ESCMS. . . . . . . . . . . . . . . . . . . XDATA;   PAGEESC  PAGE  
ESCPARAM . . . . . . . . . . . . . . . . . XDATA;   ESC  MAIN  PAGEESC  PAGEESC1TH  PAGEESC2TH  PAGEESC3TH  
ESCTXPARAM . . . . . . . . . . . . . . . . XDATA;   ESC  PAGEESC  
EXTINT_0_ENTER_DEFAULTMODE_FROM_RESET. . . CODE;    INITDEVICE  
HFOSC_0_ENTER_DEFAULTMODE_FROM_RESET . . . CODE;    INITDEVICE  
I. . . . . . . . . . . . . . . . . . . . . XDATA;   LIPOCELLS  
IDXCHS . . . . . . . . . . . . . . . . . . XDATA;   LIPOCELLS  
IDXSTATUE. . . . . . . . . . . . . . . . . XDATA;   PAGESTABILIZERBUILD  
INITPULSECNT . . . . . . . . . . . . . . . DATA;    ESC  
INPULSEIDX . . . . . . . . . . . . . . . . XDATA;   ESC  
INT0_ISR . . . . . . . . . . . . . . . . . CODE;    ESC  
INTERRUPT_0_ENTER_DEFAULTMODE_FROM_RESET . CODE;    INITDEVICE  
LCDBW. . . . . . . . . . . . . . . . . . . XDATA;   LCDDRAW  PAGE  
LCDDATINIT . . . . . . . . . . . . . . . . CODE;    LCDDRAW  
LCDDIR . . . . . . . . . . . . . . . . . . XDATA;   LCDDRAW  
LCDDISPBUF . . . . . . . . . . . . . . . . XDATA;   LCDDRAW  LCDBSAE  
LCDDISPIMG . . . . . . . . . . . . . . . . XDATA;   LCDDRAW  LCDBSAE  
LCDDRAWBUFFERREFRESH . . . . . . . . . . . CODE;    LCDBSAE  MAIN  PAGE  PAGEESC  PAGELIPOCELLS  PAGESTABILIZERBUILD  
LCDDRAWINIT. . . . . . . . . . . . . . . . CODE;    LCDDRAW  
LCDLEFT. . . . . . . . . . . . . . . . . . XDATA;   LCDDRAW  
LCDRIGHT . . . . . . . . . . . . . . . . . XDATA;   LCDDRAW  
LCDXPOS. . . . . . . . . . . . . . . . . . XDATA;   LCDDRAW  
LCDYPOS. . . . . . . . . . . . . . . . . . XDATA;   LCDDRAW  
LCD_INIT . . . . . . . . . . . . . . . . . CODE;    LCDBSAE  
LIPOCELLSDATINIT . . . . . . . . . . . . . CODE;    LIPOCELLS  
LIPOCELLSDETECT. . . . . . . . . . . . . . CODE;    LIPOCELLS  
LIPOCELLSESCMS . . . . . . . . . . . . . . XDATA;   PAGELIPOCELLS  PAGE  
LIPOCELLSPROCESSHANDLE . . . . . . . . . . CODE;    LIPOCELLS  
MAIN . . . . . . . . . . . . . . . . . . . CODE;    MAIN  ?C_INIT  
MAXCURR. . . . . . . . . . . . . . . . . . XDATA;   PAGEESC  
MAXTEMP. . . . . . . . . . . . . . . . . . XDATA;   PAGEESC  
MENUITEMAUTOFLY. . . . . . . . . . . . . . CODE;    PAGESTABILIZER  
MENUITEMAUTOFLYMODE. . . . . . . . . . . . CODE;    PAGESTABILIZERMODE  
MENUITEMAUTOFLYPITCHGAIN . . . . . . . . . CODE;    PAGESTABILIZERPITCHGAIN  
MENUITEMAUTOFLYROLLGAIN. . . . . . . . . . CODE;    PAGESTABILIZERROLLGAIN  
MENUITEMAUTOFLYYAWGAIN . . . . . . . . . . CODE;    PAGESTABILIZERYAWGAIN  
MENUITEMESC1TH . . . . . . . . . . . . . . CODE;    PAGEESC1TH  
BL51 BANKED LINKER/LOCATER V6.22                                                      09/10/2018  09:41:02  PAGE 74


MENUITEMESC2TH . . . . . . . . . . . . . . CODE;    PAGEESC2TH  
MENUITEMESC3TH . . . . . . . . . . . . . . CODE;    PAGEESC3TH  
MENUITEMPARAMESC . . . . . . . . . . . . . CODE;    PAGEESC  
MENUITEMSTERRING . . . . . . . . . . . . . CODE;    PAGESTEERING  
MINFONTTABLEMASK . . . . . . . . . . . . . CODE;    PAGERES  LCDDRAW  
MINVOLT. . . . . . . . . . . . . . . . . . XDATA;   PAGEESC  
OUTPULSEIDX. . . . . . . . . . . . . . . . XDATA;   ESC  
PAGEMAINBMP. . . . . . . . . . . . . . . . CODE;    PAGERES  
PAGEMENUSTATDATINIT. . . . . . . . . . . . CODE;    PAGE  
PAGEOPTIONAUTOFLYPITCHGAIN . . . . . . . . CODE;    PAGESTABILIZERPITCHGAIN  
PAGEOPTIONAUTOFLYYAWGAIN . . . . . . . . . CODE;    PAGESTABILIZERYAWGAIN  
PAGEOPTIONFLYMODE. . . . . . . . . . . . . CODE;    PAGESTABILIZERMODE  
PAGEOPTIONGAINDIR. . . . . . . . . . . . . CODE;    PAGESTABILIZERROLLGAIN  
PAGEOPTIONMOUNTINGDIR. . . . . . . . . . . CODE;    PAGESTABILIZER  
PAGEOPTIONSTERRINGMODE . . . . . . . . . . CODE;    PAGESTEERING  
PAGEOPTIONSWITCH . . . . . . . . . . . . . CODE;    PAGESTABILIZERMODE  
PAGEOPTIONWINGTYPE . . . . . . . . . . . . CODE;    PAGESTABILIZER  
PAGESTABLIZERBINDTICKCNT . . . . . . . . . DATA;    PAGESTABILIZERBUILD  
PAGESTABLIZERBINDTICKOVERFLOW. . . . . . . DATA;    PAGESTABILIZERBUILD  
PAGESTACK. . . . . . . . . . . . . . . . . DATA;    PAGE  MAIN  
PAGESTACKIDX . . . . . . . . . . . . . . . DATA;    PAGE  MAIN  
PARAMESCDATPROCCESS. . . . . . . . . . . . CODE;    PAGEESC  
PBCFG_0_ENTER_DEFAULTMODE_FROM_RESET . . . CODE;    INITDEVICE  
PCACH_0_ENTER_DEFAULTMODE_FROM_RESET . . . CODE;    INITDEVICE  
PCACH_4_ENTER_DEFAULTMODE_FROM_RESET . . . CODE;    INITDEVICE  
PCA_0_ENTER_DEFAULTMODE_FROM_RESET . . . . CODE;    INITDEVICE  
PGMSTATUS. . . . . . . . . . . . . . . . . XDATA;   ESC  PAGEESC  
PORTS_0_ENTER_DEFAULTMODE_FROM_RESET . . . CODE;    INITDEVICE  
PORTS_1_ENTER_DEFAULTMODE_FROM_RESET . . . CODE;    INITDEVICE  
PORTS_2_ENTER_DEFAULTMODE_FROM_RESET . . . CODE;    INITDEVICE  
PWMONREF . . . . . . . . . . . . . . . . . DATA;    ESC  
PWMOUTCNT. . . . . . . . . . . . . . . . . DATA;    ESC  
PWMOUTNUM. . . . . . . . . . . . . . . . . DATA;    ESC  
RXDATAENABLE . . . . . . . . . . . . . . . XDATA;   ESC  
RXDATHANDLE. . . . . . . . . . . . . . . . XDATA;   STABLIZER  
RXPACKAGECNT . . . . . . . . . . . . . . . XDATA;   STABLIZER  
RXPACKAGEDATA. . . . . . . . . . . . . . . XDATA;   STABLIZER  
RXPACKAGELENGTH. . . . . . . . . . . . . . XDATA;   STABLIZER  
RXSOCKETDAT. . . . . . . . . . . . . . . . XDATA;   STABLIZER  
RXSOCKETDECODE . . . . . . . . . . . . . . CODE;    STABLIZER  
RXSOCKETHANDLER. . . . . . . . . . . . . . CODE;    STABLIZER  
RXSTATUSIDX. . . . . . . . . . . . . . . . XDATA;   STABLIZER  
RXTXSTATUE . . . . . . . . . . . . . . . . XDATA;   STABLIZER  
SHOWTEXT1THACTIVEFW. . . . . . . . . . . . XDATA;   PAGEESC1TH  
SHOWTEXT1THAIRBECVOLTAGE . . . . . . . . . XDATA;   PAGEESC1TH  
SHOWTEXT1THAIRCUTVOLTAGE . . . . . . . . . XDATA;   PAGEESC1TH  
SHOWTEXT1THAIRLIPOCELLS. . . . . . . . . . XDATA;   PAGEESC1TH  
SHOWTEXT1THARRESTARTTIME . . . . . . . . . XDATA;   PAGEESC1TH  
SHOWTEXT1THARTIME. . . . . . . . . . . . . XDATA;   PAGEESC1TH  
SHOWTEXT1THBRAKEFORCE. . . . . . . . . . . XDATA;   PAGEESC1TH  
SHOWTEXT1THBRAKETYPE . . . . . . . . . . . XDATA;   PAGEESC1TH  
SHOWTEXT1THCUTTYPE . . . . . . . . . . . . XDATA;   PAGEESC1TH  
SHOWTEXT1THFLIGHTMODE. . . . . . . . . . . XDATA;   PAGEESC1TH  
SHOWTEXT1THGOVPARAMI . . . . . . . . . . . XDATA;   PAGEESC1TH  
SHOWTEXT1THGOVPARAMP . . . . . . . . . . . XDATA;   PAGEESC1TH  
SHOWTEXT1THROTATEDIRECTION . . . . . . . . XDATA;   PAGEESC1TH  
SHOWTEXT1THSTARTUPTIME . . . . . . . . . . XDATA;   PAGEESC1TH  
BL51 BANKED LINKER/LOCATER V6.22                                                      09/10/2018  09:41:02  PAGE 75


SHOWTEXT1THTIMING. . . . . . . . . . . . . XDATA;   PAGEESC1TH  
SHOWTEXT2THBECVOLTAGE. . . . . . . . . . . XDATA;   PAGEESC2TH  
SHOWTEXT2THCUTVOLTAGE. . . . . . . . . . . XDATA;   PAGEESC2TH  
SHOWTEXT2THDRAGBRAKE . . . . . . . . . . . XDATA;   PAGEESC2TH  
SHOWTEXT2THESCTHERMAL. . . . . . . . . . . XDATA;   PAGEESC2TH  
SHOWTEXT2THLIPOCELLS . . . . . . . . . . . XDATA;   PAGEESC2TH  
SHOWTEXT2THMAXBRAKE. . . . . . . . . . . . XDATA;   PAGEESC2TH  
SHOWTEXT2THMAXREVERSE. . . . . . . . . . . XDATA;   PAGEESC2TH  
SHOWTEXT2THPUNCH . . . . . . . . . . . . . XDATA;   PAGEESC2TH  
SHOWTEXT2THRUNMODE . . . . . . . . . . . . XDATA;   PAGEESC2TH  
SHOWTEXT3THBATTERYTYPE . . . . . . . . . . XDATA;   PAGEESC3TH  
SHOWTEXT3THBRAKE . . . . . . . . . . . . . XDATA;   PAGEESC3TH  
SHOWTEXT3THCUTOFFTYPE. . . . . . . . . . . XDATA;   PAGEESC3TH  
SHOWTEXT3THCUTOFFVOLTAGE . . . . . . . . . XDATA;   PAGEESC3TH  
SHOWTEXT3THFIRMWARE. . . . . . . . . . . . XDATA;   PAGEESC  
SHOWTEXT3THHARDWARE. . . . . . . . . . . . XDATA;   PAGEESC  
SHOWTEXT3THSOFTWARE. . . . . . . . . . . . XDATA;   PAGEESC  
SHOWTEXT3THSTARTMODE . . . . . . . . . . . XDATA;   PAGEESC3TH  
SHOWTEXT3THTIMINGMODE. . . . . . . . . . . XDATA;   PAGEESC3TH  
SHOWTEXTMAXCURR. . . . . . . . . . . . . . XDATA;   PAGEESC  
SHOWTEXTMAXTEMP. . . . . . . . . . . . . . XDATA;   PAGEESC  
SHOWTEXTMINVOLT. . . . . . . . . . . . . . XDATA;   PAGEESC  
STABILIZERPARAM. . . . . . . . . . . . . . XDATA;   STABLIZER  PAGESTABILIZER  PAGESTABILIZERBUILD  PAGESTABILIZERMODE  
                                                    PAGESTABILIZERPITCHGAIN  PAGESTABILIZERROLLGAIN  PAGESTABILIZERYAWGA
                                                    IN  
STABLIZERDATINIT . . . . . . . . . . . . . CODE;    STABLIZER  MAIN  
STABLIZERDETECT. . . . . . . . . . . . . . CODE;    STABLIZER  MAIN  
STABLIZERPROCESSHANDLE . . . . . . . . . . CODE;    STABLIZER  MAIN  
STABLIZERTICKCNT . . . . . . . . . . . . . DATA;    STABLIZER  
STABLIZERTICKOVERFLOW. . . . . . . . . . . DATA;    STABLIZER  
STERRINGDATINIT. . . . . . . . . . . . . . CODE;    STERRING  
STERRINGDETECT . . . . . . . . . . . . . . CODE;    STERRING  
STERRINGMS . . . . . . . . . . . . . . . . XDATA;   PAGESTEERING  PAGE  STERRING  
STERRINGPARAM. . . . . . . . . . . . . . . XDATA;   STERRING  PAGESTEERING  
STERRINGPROCESSHANDLE. . . . . . . . . . . CODE;    STERRING  
STERRINGPWMCNT . . . . . . . . . . . . . . DATA;    STERRING  
STERRINGPWMPERIOD. . . . . . . . . . . . . DATA;    STERRING  
STERRINGPWMPULSE . . . . . . . . . . . . . DATA;    STERRING  
STERRINGSTEPSTATE. . . . . . . . . . . . . DATA;    STERRING  
STERRINGTICKTIME . . . . . . . . . . . . . DATA;    STERRING  
SUM. . . . . . . . . . . . . . . . . . . . XDATA;   STABLIZER  
SUMPRE . . . . . . . . . . . . . . . . . . XDATA;   STABLIZER  
SYSDATINIT . . . . . . . . . . . . . . . . CODE;    GLOBAL  MAIN  
SYSMODULEENABLE. . . . . . . . . . . . . . XDATA;   GLOBAL  ESC  LIPOCELLS  MAIN  STABLIZER  STERRING  
SYSTASKHANDLE. . . . . . . . . . . . . . . XDATA;   GLOBAL  MAIN  
TICKCNT1MS . . . . . . . . . . . . . . . . DATA;    GLOBAL  INPUTBTN  PAGESTABILIZERBUILD  STABLIZER  
TIMER01_0_ENTER_DEFAULTMODE_FROM_RESET . . CODE;    INITDEVICE  
TIMER0_ISR . . . . . . . . . . . . . . . . CODE;    ESC  
TIMER16_2_ENTER_DEFAULTMODE_FROM_RESET . . CODE;    INITDEVICE  
TIMER16_3_ENTER_DEFAULTMODE_FROM_RESET . . CODE;    INITDEVICE  
TIMER1_ISR . . . . . . . . . . . . . . . . CODE;    GLOBAL  
TIMER2_ISR . . . . . . . . . . . . . . . . CODE;    ESC  
TIMER3_ISR . . . . . . . . . . . . . . . . CODE;    STERRING  
TIMER_SETUP_0_ENTER_DEFAULTMODE_FROM_... CODE;    INITDEVICE  
TXINITPULSE. . . . . . . . . . . . . . . . XDATA;   ESC  
TXNEXTDELAYCNT . . . . . . . . . . . . . . XDATA;   ESC  
TXSOCKETDAT. . . . . . . . . . . . . . . . XDATA;   STABLIZER  
BL51 BANKED LINKER/LOCATER V6.22                                                      09/10/2018  09:41:02  PAGE 76


TXSYS. . . . . . . . . . . . . . . . . . . XDATA;   GLOBAL  PAGELIPOCELLS  
UART1_ISR. . . . . . . . . . . . . . . . . CODE;    STABLIZER  
UART1_READ_ENCODE. . . . . . . . . . . . . CODE;    STABLIZER  
UART1_WRITE_ENCODE . . . . . . . . . . . . CODE;    STABLIZER  
UARTE_1_ENTER_DEFAULTMODE_FROM_RESET . . . CODE;    INITDEVICE  
_ABS . . . . . . . . . . . . . . . . . . . CODE;    ABS  LCDDRAW  
_BTNCLEARDOWN. . . . . . . . . . . . . . . CODE;    INPUTBTN  
_BTNGETSTATE . . . . . . . . . . . . . . . CODE;    INPUTBTNBSP  INPUTBTN  
_BTNTSTDOWN. . . . . . . . . . . . . . . . CODE;    INPUTBTN  PAGE  PAGEESC  PAGEESC1TH  PAGEESC2TH  PAGEESC3TH  PAGELIP
                                                    OCELLS  PAGESTABILIZER  PAGESTABILIZERBUILD  PAGESTABILIZERMODE  PAG
                                                    ESTABILIZERPITCHGAIN  PAGESTABILIZERROLLGAIN  PAGESTABILIZERYAWGAIN 
                                                     PAGESTEERING  
_BTNTSTHOLD. . . . . . . . . . . . . . . . CODE;    INPUTBTN  
_BTNTSTSTAT. . . . . . . . . . . . . . . . CODE;    INPUTBTN  
_DELAYMS . . . . . . . . . . . . . . . . . CODE;    GLOBAL  ESC  
_DETECTCHARGEPARAMETER . . . . . . . . . . CODE;    STABLIZER  PAGESTABILIZER  PAGESTABILIZERBUILD  PAGESTABILIZERMODE  
                                                    PAGESTABILIZERPITCHGAIN  PAGESTABILIZERROLLGAIN  PAGESTABILIZERYAWGA
                                                    IN  
_ESCDATCHARGE. . . . . . . . . . . . . . . CODE;    ESC  PAGEESC  PAGEESC1TH  PAGEESC2TH  PAGEESC3TH  
_LCDDRAWASCCHAR. . . . . . . . . . . . . . CODE;    LCDDRAW  
_LCDDRAWBMPTOARRAY . . . . . . . . . . . . CODE;    LCDDRAW  
_LCDDRAWCHSCHAR. . . . . . . . . . . . . . CODE;    LCDDRAW  
_LCDDRAWCLR. . . . . . . . . . . . . . . . CODE;    LCDDRAW  MAIN  PAGEESC  PAGEESC1TH  PAGEESC2TH  PAGEESC3TH  PAGELIPO
                                                    CELLS  PAGESTABILIZER  PAGESTABILIZERBUILD  PAGESTABILIZERMODE  PAGE
                                                    STABILIZERPITCHGAIN  PAGESTABILIZERROLLGAIN  PAGESTABILIZERYAWGAIN  
                                                    PAGESTEERING  
_LCDDRAWGECHAR . . . . . . . . . . . . . . CODE;    LCDDRAW  
_LCDDRAWHLINE. . . . . . . . . . . . . . . CODE;    LCDDRAW  PAGE  PAGELIPOCELLS  PAGESTABILIZERBUILD  
_LCDDRAWINT. . . . . . . . . . . . . . . . CODE;    LCDDRAW  PAGE  PAGELIPOCELLS  
_LCDDRAWLINE . . . . . . . . . . . . . . . CODE;    LCDDRAW  
_LCDDRAWMINIASC. . . . . . . . . . . . . . CODE;    LCDDRAW  
_LCDDRAWMINIBMP. . . . . . . . . . . . . . CODE;    LCDDRAW  PAGE  
_LCDDRAWMINIINT. . . . . . . . . . . . . . CODE;    LCDDRAW  PAGE  
_LCDDRAWPIXELXY. . . . . . . . . . . . . . CODE;    LCDDRAW  
_LCDDRAWRECT . . . . . . . . . . . . . . . CODE;    LCDDRAW  PAGE  PAGELIPOCELLS  PAGESTABILIZERBUILD  
_LCDDRAWTEXTSTRING . . . . . . . . . . . . CODE;    LCDDRAW  MAIN  PAGE  PAGEESC  PAGELIPOCELLS  PAGESTABILIZERBUILD  
_LCDDRAWVLINE. . . . . . . . . . . . . . . CODE;    LCDDRAW  
_LCDWRITEASCCHAR . . . . . . . . . . . . . CODE;    LCDBSAE  
_LCDWRITEASCSTRING . . . . . . . . . . . . CODE;    LCDBSAE  
_LCDWRITECLR . . . . . . . . . . . . . . . CODE;    LCDBSAE  
_LCDWRITECLRLINE . . . . . . . . . . . . . CODE;    LCDBSAE  
_LCDWRITEDATLINE . . . . . . . . . . . . . CODE;    LCDBSAE  
_LCD_SETCOLUMN . . . . . . . . . . . . . . CODE;    LCDBSAE  
_LCD_SETPAGE . . . . . . . . . . . . . . . CODE;    LCDBSAE  
_LCD_SETPAGECOLUMN . . . . . . . . . . . . CODE;    LCDBSAE  
_PAGEAUTOFLY . . . . . . . . . . . . . . . CODE;    PAGESTABILIZER  MAIN  
_PAGEAUTOFLYMODE . . . . . . . . . . . . . CODE;    PAGESTABILIZERMODE  PAGESTABILIZER  
_PAGEAUTOFLYPITCHGAIN. . . . . . . . . . . CODE;    PAGESTABILIZERPITCHGAIN  PAGESTABILIZER  
_PAGEAUTOFLYROLLGAIN . . . . . . . . . . . CODE;    PAGESTABILIZERROLLGAIN  PAGESTABILIZER  
_PAGEAUTOFLYYAWGAIN. . . . . . . . . . . . CODE;    PAGESTABILIZERYAWGAIN  PAGESTABILIZER  
_PAGEBATVOLT . . . . . . . . . . . . . . . CODE;    PAGELIPOCELLS  MAIN  
_PAGEENTER . . . . . . . . . . . . . . . . CODE;    PAGE  PAGEESC1TH  PAGEESC2TH  PAGEESC3TH  PAGESTABILIZER  PAGESTABIL
                                                    IZERMODE  PAGESTABILIZERPITCHGAIN  PAGESTABILIZERROLLGAIN  PAGESTABI
                                                    LIZERYAWGAIN  PAGESTEERING  
_PAGEESC1TH. . . . . . . . . . . . . . . . CODE;    PAGEESC1TH  MAIN  
_PAGEESC1THRST . . . . . . . . . . . . . . CODE;    PAGEESC  PAGEESC1TH  
_PAGEESC2TH. . . . . . . . . . . . . . . . CODE;    PAGEESC2TH  MAIN  
BL51 BANKED LINKER/LOCATER V6.22                                                      09/10/2018  09:41:02  PAGE 77


_PAGEESC2THRST . . . . . . . . . . . . . . CODE;    PAGEESC  PAGEESC2TH  
_PAGEESC3TH. . . . . . . . . . . . . . . . CODE;    PAGEESC3TH  MAIN  
_PAGEESC3THABOUT . . . . . . . . . . . . . CODE;    PAGEESC  PAGEESC1TH  PAGEESC2TH  PAGEESC3TH  
_PAGEESC3THRST . . . . . . . . . . . . . . CODE;    PAGEESC  PAGEESC3TH  
_PAGEESCPARAM. . . . . . . . . . . . . . . CODE;    PAGEESC  PAGEESC1TH  PAGEESC2TH  
_PAGEGOTO. . . . . . . . . . . . . . . . . CODE;    PAGE  
_PAGEINIT. . . . . . . . . . . . . . . . . CODE;    PAGE  MAIN  
_PAGEMENUPROC. . . . . . . . . . . . . . . CODE;    PAGE  PAGEESC  PAGEESC1TH  PAGEESC2TH  PAGEESC3TH  PAGESTABILIZER  P
                                                    AGESTABILIZERMODE  PAGESTABILIZERPITCHGAIN  PAGESTABILIZERROLLGAIN  
                                                    PAGESTABILIZERYAWGAIN  PAGESTEERING  
_PAGERETURN. . . . . . . . . . . . . . . . CODE;    PAGE  PAGEESC  PAGEESC1TH  PAGEESC2TH  PAGEESC3TH  PAGELIPOCELLS  PA
                                                    GESTABILIZER  PAGESTABILIZERBUILD  PAGESTABILIZERMODE  PAGESTABILIZE
                                                    RPITCHGAIN  PAGESTABILIZERROLLGAIN  PAGESTABILIZERYAWGAIN  PAGESTEER
                                                    ING  
_PAGESTABLIZERBUILD. . . . . . . . . . . . CODE;    PAGESTABILIZERBUILD  PAGESTABILIZER  
_PAGESTERRING. . . . . . . . . . . . . . . CODE;    PAGESTEERING  MAIN  
_PRINTF. . . . . . . . . . . . . . . . . . CODE;    PRINTF  
_PUTCHAR . . . . . . . . . . . . . . . . . CODE;    PUTCHAR  PRINTF  
_SPRINTF . . . . . . . . . . . . . . . . . CODE;    PRINTF  PAGEESC  PAGEESC1TH  PAGEESC2TH  PAGEESC3TH  
_STRLEN. . . . . . . . . . . . . . . . . . CODE;    STRLEN  PAGE  
_SYSHANDLEPROCESS. . . . . . . . . . . . . CODE;    MAIN  
_UART1_WRITE_BUFFER. . . . . . . . . . . . CODE;    STABLIZER  

Program Size: data=68.2 xdata=2583 code=38780
LINK/LOCATE RUN COMPLETE.  0 WARNING(S),  0 ERROR(S)
